
TP_autoradio.elf:     file format elf32-littlearm

Sections:
Idx Name          Size      VMA       LMA       File off  Algn
  0 .isr_vector   00000188  08000000  08000000  00001000  2**0
                  CONTENTS, ALLOC, LOAD, READONLY, DATA
  1 .text         00007da0  08000190  08000190  00001190  2**4
                  CONTENTS, ALLOC, LOAD, READONLY, CODE
  2 .rodata       000002e0  08007f30  08007f30  00008f30  2**2
                  CONTENTS, ALLOC, LOAD, READONLY, DATA
  3 .ARM.extab    00000000  08008210  08008210  0000a06c  2**0
                  CONTENTS
  4 .ARM          00000008  08008210  08008210  00009210  2**2
                  CONTENTS, ALLOC, LOAD, READONLY, DATA
  5 .preinit_array 00000000  08008218  08008218  0000a06c  2**0
                  CONTENTS, ALLOC, LOAD, DATA
  6 .init_array   00000004  08008218  08008218  00009218  2**2
                  CONTENTS, ALLOC, LOAD, READONLY, DATA
  7 .fini_array   00000004  0800821c  0800821c  0000921c  2**2
                  CONTENTS, ALLOC, LOAD, READONLY, DATA
  8 .data         0000006c  20000000  08008220  0000a000  2**2
                  CONTENTS, ALLOC, LOAD, DATA
  9 .bss          000015cc  2000006c  0800828c  0000a06c  2**2
                  ALLOC
 10 ._user_heap_stack 00000600  20001638  0800828c  0000a638  2**0
                  ALLOC
 11 .ARM.attributes 00000030  00000000  00000000  0000a06c  2**0
                  CONTENTS, READONLY
 12 .debug_info   0001b9f2  00000000  00000000  0000a09c  2**0
                  CONTENTS, READONLY, DEBUGGING, OCTETS
 13 .debug_abbrev 0000435e  00000000  00000000  00025a8e  2**0
                  CONTENTS, READONLY, DEBUGGING, OCTETS
 14 .debug_aranges 000017e8  00000000  00000000  00029df0  2**3
                  CONTENTS, READONLY, DEBUGGING, OCTETS
 15 .debug_rnglists 0000126d  00000000  00000000  0002b5d8  2**0
                  CONTENTS, READONLY, DEBUGGING, OCTETS
 16 .debug_macro  0002ad49  00000000  00000000  0002c845  2**0
                  CONTENTS, READONLY, DEBUGGING, OCTETS
 17 .debug_line   0001db75  00000000  00000000  0005758e  2**0
                  CONTENTS, READONLY, DEBUGGING, OCTETS
 18 .debug_str    000ff8bb  00000000  00000000  00075103  2**0
                  CONTENTS, READONLY, DEBUGGING, OCTETS
 19 .comment      00000043  00000000  00000000  001749be  2**0
                  CONTENTS, READONLY
 20 .debug_frame  00006b10  00000000  00000000  00174a04  2**2
                  CONTENTS, READONLY, DEBUGGING, OCTETS
 21 .debug_line_str 00000067  00000000  00000000  0017b514  2**0
                  CONTENTS, READONLY, DEBUGGING, OCTETS

Disassembly of section .text:

08000190 <__do_global_dtors_aux>:
 8000190:	b510      	push	{r4, lr}
 8000192:	4c05      	ldr	r4, [pc, #20]	@ (80001a8 <__do_global_dtors_aux+0x18>)
 8000194:	7823      	ldrb	r3, [r4, #0]
 8000196:	b933      	cbnz	r3, 80001a6 <__do_global_dtors_aux+0x16>
 8000198:	4b04      	ldr	r3, [pc, #16]	@ (80001ac <__do_global_dtors_aux+0x1c>)
 800019a:	b113      	cbz	r3, 80001a2 <__do_global_dtors_aux+0x12>
 800019c:	4804      	ldr	r0, [pc, #16]	@ (80001b0 <__do_global_dtors_aux+0x20>)
 800019e:	f3af 8000 	nop.w
 80001a2:	2301      	movs	r3, #1
 80001a4:	7023      	strb	r3, [r4, #0]
 80001a6:	bd10      	pop	{r4, pc}
 80001a8:	2000006c 	.word	0x2000006c
 80001ac:	00000000 	.word	0x00000000
 80001b0:	08007f18 	.word	0x08007f18

080001b4 <frame_dummy>:
 80001b4:	b508      	push	{r3, lr}
 80001b6:	4b03      	ldr	r3, [pc, #12]	@ (80001c4 <frame_dummy+0x10>)
 80001b8:	b11b      	cbz	r3, 80001c2 <frame_dummy+0xe>
 80001ba:	4903      	ldr	r1, [pc, #12]	@ (80001c8 <frame_dummy+0x14>)
 80001bc:	4803      	ldr	r0, [pc, #12]	@ (80001cc <frame_dummy+0x18>)
 80001be:	f3af 8000 	nop.w
 80001c2:	bd08      	pop	{r3, pc}
 80001c4:	00000000 	.word	0x00000000
 80001c8:	20000070 	.word	0x20000070
 80001cc:	08007f18 	.word	0x08007f18

080001d0 <strlen>:
 80001d0:	4603      	mov	r3, r0
 80001d2:	f813 2b01 	ldrb.w	r2, [r3], #1
 80001d6:	2a00      	cmp	r2, #0
 80001d8:	d1fb      	bne.n	80001d2 <strlen+0x2>
 80001da:	1a18      	subs	r0, r3, r0
 80001dc:	3801      	subs	r0, #1
 80001de:	4770      	bx	lr

080001e0 <memchr>:
 80001e0:	f001 01ff 	and.w	r1, r1, #255	@ 0xff
 80001e4:	2a10      	cmp	r2, #16
 80001e6:	db2b      	blt.n	8000240 <memchr+0x60>
 80001e8:	f010 0f07 	tst.w	r0, #7
 80001ec:	d008      	beq.n	8000200 <memchr+0x20>
 80001ee:	f810 3b01 	ldrb.w	r3, [r0], #1
 80001f2:	3a01      	subs	r2, #1
 80001f4:	428b      	cmp	r3, r1
 80001f6:	d02d      	beq.n	8000254 <memchr+0x74>
 80001f8:	f010 0f07 	tst.w	r0, #7
 80001fc:	b342      	cbz	r2, 8000250 <memchr+0x70>
 80001fe:	d1f6      	bne.n	80001ee <memchr+0xe>
 8000200:	b4f0      	push	{r4, r5, r6, r7}
 8000202:	ea41 2101 	orr.w	r1, r1, r1, lsl #8
 8000206:	ea41 4101 	orr.w	r1, r1, r1, lsl #16
 800020a:	f022 0407 	bic.w	r4, r2, #7
 800020e:	f07f 0700 	mvns.w	r7, #0
 8000212:	2300      	movs	r3, #0
 8000214:	e8f0 5602 	ldrd	r5, r6, [r0], #8
 8000218:	3c08      	subs	r4, #8
 800021a:	ea85 0501 	eor.w	r5, r5, r1
 800021e:	ea86 0601 	eor.w	r6, r6, r1
 8000222:	fa85 f547 	uadd8	r5, r5, r7
 8000226:	faa3 f587 	sel	r5, r3, r7
 800022a:	fa86 f647 	uadd8	r6, r6, r7
 800022e:	faa5 f687 	sel	r6, r5, r7
 8000232:	b98e      	cbnz	r6, 8000258 <memchr+0x78>
 8000234:	d1ee      	bne.n	8000214 <memchr+0x34>
 8000236:	bcf0      	pop	{r4, r5, r6, r7}
 8000238:	f001 01ff 	and.w	r1, r1, #255	@ 0xff
 800023c:	f002 0207 	and.w	r2, r2, #7
 8000240:	b132      	cbz	r2, 8000250 <memchr+0x70>
 8000242:	f810 3b01 	ldrb.w	r3, [r0], #1
 8000246:	3a01      	subs	r2, #1
 8000248:	ea83 0301 	eor.w	r3, r3, r1
 800024c:	b113      	cbz	r3, 8000254 <memchr+0x74>
 800024e:	d1f8      	bne.n	8000242 <memchr+0x62>
 8000250:	2000      	movs	r0, #0
 8000252:	4770      	bx	lr
 8000254:	3801      	subs	r0, #1
 8000256:	4770      	bx	lr
 8000258:	2d00      	cmp	r5, #0
 800025a:	bf06      	itte	eq
 800025c:	4635      	moveq	r5, r6
 800025e:	3803      	subeq	r0, #3
 8000260:	3807      	subne	r0, #7
 8000262:	f015 0f01 	tst.w	r5, #1
 8000266:	d107      	bne.n	8000278 <memchr+0x98>
 8000268:	3001      	adds	r0, #1
 800026a:	f415 7f80 	tst.w	r5, #256	@ 0x100
 800026e:	bf02      	ittt	eq
 8000270:	3001      	addeq	r0, #1
 8000272:	f415 3fc0 	tsteq.w	r5, #98304	@ 0x18000
 8000276:	3001      	addeq	r0, #1
 8000278:	bcf0      	pop	{r4, r5, r6, r7}
 800027a:	3801      	subs	r0, #1
 800027c:	4770      	bx	lr
 800027e:	bf00      	nop

08000280 <__aeabi_uldivmod>:
 8000280:	b953      	cbnz	r3, 8000298 <__aeabi_uldivmod+0x18>
 8000282:	b94a      	cbnz	r2, 8000298 <__aeabi_uldivmod+0x18>
 8000284:	2900      	cmp	r1, #0
 8000286:	bf08      	it	eq
 8000288:	2800      	cmpeq	r0, #0
 800028a:	bf1c      	itt	ne
 800028c:	f04f 31ff 	movne.w	r1, #4294967295
 8000290:	f04f 30ff 	movne.w	r0, #4294967295
 8000294:	f000 b96a 	b.w	800056c <__aeabi_idiv0>
 8000298:	f1ad 0c08 	sub.w	ip, sp, #8
 800029c:	e96d ce04 	strd	ip, lr, [sp, #-16]!
 80002a0:	f000 f806 	bl	80002b0 <__udivmoddi4>
 80002a4:	f8dd e004 	ldr.w	lr, [sp, #4]
 80002a8:	e9dd 2302 	ldrd	r2, r3, [sp, #8]
 80002ac:	b004      	add	sp, #16
 80002ae:	4770      	bx	lr

080002b0 <__udivmoddi4>:
 80002b0:	e92d 47f0 	stmdb	sp!, {r4, r5, r6, r7, r8, r9, sl, lr}
 80002b4:	9d08      	ldr	r5, [sp, #32]
 80002b6:	460c      	mov	r4, r1
 80002b8:	2b00      	cmp	r3, #0
 80002ba:	d14e      	bne.n	800035a <__udivmoddi4+0xaa>
 80002bc:	4694      	mov	ip, r2
 80002be:	458c      	cmp	ip, r1
 80002c0:	4686      	mov	lr, r0
 80002c2:	fab2 f282 	clz	r2, r2
 80002c6:	d962      	bls.n	800038e <__udivmoddi4+0xde>
 80002c8:	b14a      	cbz	r2, 80002de <__udivmoddi4+0x2e>
 80002ca:	f1c2 0320 	rsb	r3, r2, #32
 80002ce:	4091      	lsls	r1, r2
 80002d0:	fa20 f303 	lsr.w	r3, r0, r3
 80002d4:	fa0c fc02 	lsl.w	ip, ip, r2
 80002d8:	4319      	orrs	r1, r3
 80002da:	fa00 fe02 	lsl.w	lr, r0, r2
 80002de:	ea4f 471c 	mov.w	r7, ip, lsr #16
 80002e2:	fa1f f68c 	uxth.w	r6, ip
 80002e6:	fbb1 f4f7 	udiv	r4, r1, r7
 80002ea:	ea4f 431e 	mov.w	r3, lr, lsr #16
 80002ee:	fb07 1114 	mls	r1, r7, r4, r1
 80002f2:	ea43 4301 	orr.w	r3, r3, r1, lsl #16
 80002f6:	fb04 f106 	mul.w	r1, r4, r6
 80002fa:	4299      	cmp	r1, r3
 80002fc:	d90a      	bls.n	8000314 <__udivmoddi4+0x64>
 80002fe:	eb1c 0303 	adds.w	r3, ip, r3
 8000302:	f104 30ff 	add.w	r0, r4, #4294967295
 8000306:	f080 8112 	bcs.w	800052e <__udivmoddi4+0x27e>
 800030a:	4299      	cmp	r1, r3
 800030c:	f240 810f 	bls.w	800052e <__udivmoddi4+0x27e>
 8000310:	3c02      	subs	r4, #2
 8000312:	4463      	add	r3, ip
 8000314:	1a59      	subs	r1, r3, r1
 8000316:	fa1f f38e 	uxth.w	r3, lr
 800031a:	fbb1 f0f7 	udiv	r0, r1, r7
 800031e:	fb07 1110 	mls	r1, r7, r0, r1
 8000322:	ea43 4301 	orr.w	r3, r3, r1, lsl #16
 8000326:	fb00 f606 	mul.w	r6, r0, r6
 800032a:	429e      	cmp	r6, r3
 800032c:	d90a      	bls.n	8000344 <__udivmoddi4+0x94>
 800032e:	eb1c 0303 	adds.w	r3, ip, r3
 8000332:	f100 31ff 	add.w	r1, r0, #4294967295
 8000336:	f080 80fc 	bcs.w	8000532 <__udivmoddi4+0x282>
 800033a:	429e      	cmp	r6, r3
 800033c:	f240 80f9 	bls.w	8000532 <__udivmoddi4+0x282>
 8000340:	4463      	add	r3, ip
 8000342:	3802      	subs	r0, #2
 8000344:	1b9b      	subs	r3, r3, r6
 8000346:	ea40 4004 	orr.w	r0, r0, r4, lsl #16
 800034a:	2100      	movs	r1, #0
 800034c:	b11d      	cbz	r5, 8000356 <__udivmoddi4+0xa6>
 800034e:	40d3      	lsrs	r3, r2
 8000350:	2200      	movs	r2, #0
 8000352:	e9c5 3200 	strd	r3, r2, [r5]
 8000356:	e8bd 87f0 	ldmia.w	sp!, {r4, r5, r6, r7, r8, r9, sl, pc}
 800035a:	428b      	cmp	r3, r1
 800035c:	d905      	bls.n	800036a <__udivmoddi4+0xba>
 800035e:	b10d      	cbz	r5, 8000364 <__udivmoddi4+0xb4>
 8000360:	e9c5 0100 	strd	r0, r1, [r5]
 8000364:	2100      	movs	r1, #0
 8000366:	4608      	mov	r0, r1
 8000368:	e7f5      	b.n	8000356 <__udivmoddi4+0xa6>
 800036a:	fab3 f183 	clz	r1, r3
 800036e:	2900      	cmp	r1, #0
 8000370:	d146      	bne.n	8000400 <__udivmoddi4+0x150>
 8000372:	42a3      	cmp	r3, r4
 8000374:	d302      	bcc.n	800037c <__udivmoddi4+0xcc>
 8000376:	4290      	cmp	r0, r2
 8000378:	f0c0 80f0 	bcc.w	800055c <__udivmoddi4+0x2ac>
 800037c:	1a86      	subs	r6, r0, r2
 800037e:	eb64 0303 	sbc.w	r3, r4, r3
 8000382:	2001      	movs	r0, #1
 8000384:	2d00      	cmp	r5, #0
 8000386:	d0e6      	beq.n	8000356 <__udivmoddi4+0xa6>
 8000388:	e9c5 6300 	strd	r6, r3, [r5]
 800038c:	e7e3      	b.n	8000356 <__udivmoddi4+0xa6>
 800038e:	2a00      	cmp	r2, #0
 8000390:	f040 8090 	bne.w	80004b4 <__udivmoddi4+0x204>
 8000394:	eba1 040c 	sub.w	r4, r1, ip
 8000398:	ea4f 481c 	mov.w	r8, ip, lsr #16
 800039c:	fa1f f78c 	uxth.w	r7, ip
 80003a0:	2101      	movs	r1, #1
 80003a2:	fbb4 f6f8 	udiv	r6, r4, r8
 80003a6:	ea4f 431e 	mov.w	r3, lr, lsr #16
 80003aa:	fb08 4416 	mls	r4, r8, r6, r4
 80003ae:	ea43 4304 	orr.w	r3, r3, r4, lsl #16
 80003b2:	fb07 f006 	mul.w	r0, r7, r6
 80003b6:	4298      	cmp	r0, r3
 80003b8:	d908      	bls.n	80003cc <__udivmoddi4+0x11c>
 80003ba:	eb1c 0303 	adds.w	r3, ip, r3
 80003be:	f106 34ff 	add.w	r4, r6, #4294967295
 80003c2:	d202      	bcs.n	80003ca <__udivmoddi4+0x11a>
 80003c4:	4298      	cmp	r0, r3
 80003c6:	f200 80cd 	bhi.w	8000564 <__udivmoddi4+0x2b4>
 80003ca:	4626      	mov	r6, r4
 80003cc:	1a1c      	subs	r4, r3, r0
 80003ce:	fa1f f38e 	uxth.w	r3, lr
 80003d2:	fbb4 f0f8 	udiv	r0, r4, r8
 80003d6:	fb08 4410 	mls	r4, r8, r0, r4
 80003da:	ea43 4304 	orr.w	r3, r3, r4, lsl #16
 80003de:	fb00 f707 	mul.w	r7, r0, r7
 80003e2:	429f      	cmp	r7, r3
 80003e4:	d908      	bls.n	80003f8 <__udivmoddi4+0x148>
 80003e6:	eb1c 0303 	adds.w	r3, ip, r3
 80003ea:	f100 34ff 	add.w	r4, r0, #4294967295
 80003ee:	d202      	bcs.n	80003f6 <__udivmoddi4+0x146>
 80003f0:	429f      	cmp	r7, r3
 80003f2:	f200 80b0 	bhi.w	8000556 <__udivmoddi4+0x2a6>
 80003f6:	4620      	mov	r0, r4
 80003f8:	1bdb      	subs	r3, r3, r7
 80003fa:	ea40 4006 	orr.w	r0, r0, r6, lsl #16
 80003fe:	e7a5      	b.n	800034c <__udivmoddi4+0x9c>
 8000400:	f1c1 0620 	rsb	r6, r1, #32
 8000404:	408b      	lsls	r3, r1
 8000406:	fa22 f706 	lsr.w	r7, r2, r6
 800040a:	431f      	orrs	r7, r3
 800040c:	fa20 fc06 	lsr.w	ip, r0, r6
 8000410:	fa04 f301 	lsl.w	r3, r4, r1
 8000414:	ea43 030c 	orr.w	r3, r3, ip
 8000418:	40f4      	lsrs	r4, r6
 800041a:	fa00 f801 	lsl.w	r8, r0, r1
 800041e:	0c38      	lsrs	r0, r7, #16
 8000420:	ea4f 4913 	mov.w	r9, r3, lsr #16
 8000424:	fbb4 fef0 	udiv	lr, r4, r0
 8000428:	fa1f fc87 	uxth.w	ip, r7
 800042c:	fb00 441e 	mls	r4, r0, lr, r4
 8000430:	ea49 4404 	orr.w	r4, r9, r4, lsl #16
 8000434:	fb0e f90c 	mul.w	r9, lr, ip
 8000438:	45a1      	cmp	r9, r4
 800043a:	fa02 f201 	lsl.w	r2, r2, r1
 800043e:	d90a      	bls.n	8000456 <__udivmoddi4+0x1a6>
 8000440:	193c      	adds	r4, r7, r4
 8000442:	f10e 3aff 	add.w	sl, lr, #4294967295
 8000446:	f080 8084 	bcs.w	8000552 <__udivmoddi4+0x2a2>
 800044a:	45a1      	cmp	r9, r4
 800044c:	f240 8081 	bls.w	8000552 <__udivmoddi4+0x2a2>
 8000450:	f1ae 0e02 	sub.w	lr, lr, #2
 8000454:	443c      	add	r4, r7
 8000456:	eba4 0409 	sub.w	r4, r4, r9
 800045a:	fa1f f983 	uxth.w	r9, r3
 800045e:	fbb4 f3f0 	udiv	r3, r4, r0
 8000462:	fb00 4413 	mls	r4, r0, r3, r4
 8000466:	ea49 4404 	orr.w	r4, r9, r4, lsl #16
 800046a:	fb03 fc0c 	mul.w	ip, r3, ip
 800046e:	45a4      	cmp	ip, r4
 8000470:	d907      	bls.n	8000482 <__udivmoddi4+0x1d2>
 8000472:	193c      	adds	r4, r7, r4
 8000474:	f103 30ff 	add.w	r0, r3, #4294967295
 8000478:	d267      	bcs.n	800054a <__udivmoddi4+0x29a>
 800047a:	45a4      	cmp	ip, r4
 800047c:	d965      	bls.n	800054a <__udivmoddi4+0x29a>
 800047e:	3b02      	subs	r3, #2
 8000480:	443c      	add	r4, r7
 8000482:	ea43 400e 	orr.w	r0, r3, lr, lsl #16
 8000486:	fba0 9302 	umull	r9, r3, r0, r2
 800048a:	eba4 040c 	sub.w	r4, r4, ip
 800048e:	429c      	cmp	r4, r3
 8000490:	46ce      	mov	lr, r9
 8000492:	469c      	mov	ip, r3
 8000494:	d351      	bcc.n	800053a <__udivmoddi4+0x28a>
 8000496:	d04e      	beq.n	8000536 <__udivmoddi4+0x286>
 8000498:	b155      	cbz	r5, 80004b0 <__udivmoddi4+0x200>
 800049a:	ebb8 030e 	subs.w	r3, r8, lr
 800049e:	eb64 040c 	sbc.w	r4, r4, ip
 80004a2:	fa04 f606 	lsl.w	r6, r4, r6
 80004a6:	40cb      	lsrs	r3, r1
 80004a8:	431e      	orrs	r6, r3
 80004aa:	40cc      	lsrs	r4, r1
 80004ac:	e9c5 6400 	strd	r6, r4, [r5]
 80004b0:	2100      	movs	r1, #0
 80004b2:	e750      	b.n	8000356 <__udivmoddi4+0xa6>
 80004b4:	f1c2 0320 	rsb	r3, r2, #32
 80004b8:	fa20 f103 	lsr.w	r1, r0, r3
 80004bc:	fa0c fc02 	lsl.w	ip, ip, r2
 80004c0:	fa24 f303 	lsr.w	r3, r4, r3
 80004c4:	4094      	lsls	r4, r2
 80004c6:	430c      	orrs	r4, r1
 80004c8:	ea4f 481c 	mov.w	r8, ip, lsr #16
 80004cc:	fa00 fe02 	lsl.w	lr, r0, r2
 80004d0:	fa1f f78c 	uxth.w	r7, ip
 80004d4:	fbb3 f0f8 	udiv	r0, r3, r8
 80004d8:	fb08 3110 	mls	r1, r8, r0, r3
 80004dc:	0c23      	lsrs	r3, r4, #16
 80004de:	ea43 4301 	orr.w	r3, r3, r1, lsl #16
 80004e2:	fb00 f107 	mul.w	r1, r0, r7
 80004e6:	4299      	cmp	r1, r3
 80004e8:	d908      	bls.n	80004fc <__udivmoddi4+0x24c>
 80004ea:	eb1c 0303 	adds.w	r3, ip, r3
 80004ee:	f100 36ff 	add.w	r6, r0, #4294967295
 80004f2:	d22c      	bcs.n	800054e <__udivmoddi4+0x29e>
 80004f4:	4299      	cmp	r1, r3
 80004f6:	d92a      	bls.n	800054e <__udivmoddi4+0x29e>
 80004f8:	3802      	subs	r0, #2
 80004fa:	4463      	add	r3, ip
 80004fc:	1a5b      	subs	r3, r3, r1
 80004fe:	b2a4      	uxth	r4, r4
 8000500:	fbb3 f1f8 	udiv	r1, r3, r8
 8000504:	fb08 3311 	mls	r3, r8, r1, r3
 8000508:	ea44 4403 	orr.w	r4, r4, r3, lsl #16
 800050c:	fb01 f307 	mul.w	r3, r1, r7
 8000510:	42a3      	cmp	r3, r4
 8000512:	d908      	bls.n	8000526 <__udivmoddi4+0x276>
 8000514:	eb1c 0404 	adds.w	r4, ip, r4
 8000518:	f101 36ff 	add.w	r6, r1, #4294967295
 800051c:	d213      	bcs.n	8000546 <__udivmoddi4+0x296>
 800051e:	42a3      	cmp	r3, r4
 8000520:	d911      	bls.n	8000546 <__udivmoddi4+0x296>
 8000522:	3902      	subs	r1, #2
 8000524:	4464      	add	r4, ip
 8000526:	1ae4      	subs	r4, r4, r3
 8000528:	ea41 4100 	orr.w	r1, r1, r0, lsl #16
 800052c:	e739      	b.n	80003a2 <__udivmoddi4+0xf2>
 800052e:	4604      	mov	r4, r0
 8000530:	e6f0      	b.n	8000314 <__udivmoddi4+0x64>
 8000532:	4608      	mov	r0, r1
 8000534:	e706      	b.n	8000344 <__udivmoddi4+0x94>
 8000536:	45c8      	cmp	r8, r9
 8000538:	d2ae      	bcs.n	8000498 <__udivmoddi4+0x1e8>
 800053a:	ebb9 0e02 	subs.w	lr, r9, r2
 800053e:	eb63 0c07 	sbc.w	ip, r3, r7
 8000542:	3801      	subs	r0, #1
 8000544:	e7a8      	b.n	8000498 <__udivmoddi4+0x1e8>
 8000546:	4631      	mov	r1, r6
 8000548:	e7ed      	b.n	8000526 <__udivmoddi4+0x276>
 800054a:	4603      	mov	r3, r0
 800054c:	e799      	b.n	8000482 <__udivmoddi4+0x1d2>
 800054e:	4630      	mov	r0, r6
 8000550:	e7d4      	b.n	80004fc <__udivmoddi4+0x24c>
 8000552:	46d6      	mov	lr, sl
 8000554:	e77f      	b.n	8000456 <__udivmoddi4+0x1a6>
 8000556:	4463      	add	r3, ip
 8000558:	3802      	subs	r0, #2
 800055a:	e74d      	b.n	80003f8 <__udivmoddi4+0x148>
 800055c:	4606      	mov	r6, r0
 800055e:	4623      	mov	r3, r4
 8000560:	4608      	mov	r0, r1
 8000562:	e70f      	b.n	8000384 <__udivmoddi4+0xd4>
 8000564:	3e02      	subs	r6, #2
 8000566:	4463      	add	r3, ip
 8000568:	e730      	b.n	80003cc <__udivmoddi4+0x11c>
 800056a:	bf00      	nop

0800056c <__aeabi_idiv0>:
 800056c:	4770      	bx	lr
 800056e:	bf00      	nop

08000570 <write_MCP23017>:
#include "main.h"
extern SPI_HandleTypeDef hspi3;
extern LED_Driver_t led_driver;

void write_MCP23017(uint8_t registre, uint8_t value)
{
 8000570:	b580      	push	{r7, lr}
 8000572:	b084      	sub	sp, #16
 8000574:	af00      	add	r7, sp, #0
 8000576:	4603      	mov	r3, r0
 8000578:	460a      	mov	r2, r1
 800057a:	71fb      	strb	r3, [r7, #7]
 800057c:	4613      	mov	r3, r2
 800057e:	71bb      	strb	r3, [r7, #6]
	uint8_t commande[3];
	commande[0]=0x40; //
 8000580:	2340      	movs	r3, #64	@ 0x40
 8000582:	733b      	strb	r3, [r7, #12]
	commande[1]=registre;
 8000584:	79fb      	ldrb	r3, [r7, #7]
 8000586:	737b      	strb	r3, [r7, #13]
	commande[2]=value;
 8000588:	79bb      	ldrb	r3, [r7, #6]
 800058a:	73bb      	strb	r3, [r7, #14]

	HAL_GPIO_WritePin(GPIOA, VU_nRESET_Pin, GPIO_PIN_SET);
 800058c:	2201      	movs	r2, #1
 800058e:	2101      	movs	r1, #1
 8000590:	f04f 4090 	mov.w	r0, #1207959552	@ 0x48000000
 8000594:	f001 fb82 	bl	8001c9c <HAL_GPIO_WritePin>
	HAL_GPIO_WritePin(GPIOB, VU_nCS_Pin, GPIO_PIN_RESET); //SC=0 pour l'envoie
 8000598:	2200      	movs	r2, #0
 800059a:	2180      	movs	r1, #128	@ 0x80
 800059c:	480b      	ldr	r0, [pc, #44]	@ (80005cc <write_MCP23017+0x5c>)
 800059e:	f001 fb7d 	bl	8001c9c <HAL_GPIO_WritePin>
	HAL_SPI_Transmit(&hspi3, commande, 3, HAL_MAX_DELAY);
 80005a2:	f107 010c 	add.w	r1, r7, #12
 80005a6:	f04f 33ff 	mov.w	r3, #4294967295
 80005aa:	2203      	movs	r2, #3
 80005ac:	4808      	ldr	r0, [pc, #32]	@ (80005d0 <write_MCP23017+0x60>)
 80005ae:	f002 ff82 	bl	80034b6 <HAL_SPI_Transmit>
	HAL_Delay(10);
 80005b2:	200a      	movs	r0, #10
 80005b4:	f001 f842 	bl	800163c <HAL_Delay>
	HAL_GPIO_WritePin(GPIOB,VU_nCS_Pin, GPIO_PIN_SET);
 80005b8:	2201      	movs	r2, #1
 80005ba:	2180      	movs	r1, #128	@ 0x80
 80005bc:	4803      	ldr	r0, [pc, #12]	@ (80005cc <write_MCP23017+0x5c>)
 80005be:	f001 fb6d 	bl	8001c9c <HAL_GPIO_WritePin>



}
 80005c2:	bf00      	nop
 80005c4:	3710      	adds	r7, #16
 80005c6:	46bd      	mov	sp, r7
 80005c8:	bd80      	pop	{r7, pc}
 80005ca:	bf00      	nop
 80005cc:	48000400 	.word	0x48000400
 80005d0:	200006a0 	.word	0x200006a0

080005d4 <read_MCP23S17>:

uint8_t read_MCP23S17(uint8_t reg) {
 80005d4:	b580      	push	{r7, lr}
 80005d6:	b086      	sub	sp, #24
 80005d8:	af02      	add	r7, sp, #8
 80005da:	4603      	mov	r3, r0
 80005dc:	71fb      	strb	r3, [r7, #7]
	uint8_t data[3];

	data[0] = 0x41;
 80005de:	2341      	movs	r3, #65	@ 0x41
 80005e0:	733b      	strb	r3, [r7, #12]
	data[1] = reg;
 80005e2:	79fb      	ldrb	r3, [r7, #7]
 80005e4:	737b      	strb	r3, [r7, #13]
	data[2] = 0x00;
 80005e6:	2300      	movs	r3, #0
 80005e8:	73bb      	strb	r3, [r7, #14]

	HAL_GPIO_WritePin(GPIOB, VU_nCS_Pin, GPIO_PIN_RESET);
 80005ea:	2200      	movs	r2, #0
 80005ec:	2180      	movs	r1, #128	@ 0x80
 80005ee:	480c      	ldr	r0, [pc, #48]	@ (8000620 <read_MCP23S17+0x4c>)
 80005f0:	f001 fb54 	bl	8001c9c <HAL_GPIO_WritePin>
	HAL_SPI_TransmitReceive(&hspi3, data, data, 3, HAL_MAX_DELAY);
 80005f4:	f107 020c 	add.w	r2, r7, #12
 80005f8:	f107 010c 	add.w	r1, r7, #12
 80005fc:	f04f 33ff 	mov.w	r3, #4294967295
 8000600:	9300      	str	r3, [sp, #0]
 8000602:	2303      	movs	r3, #3
 8000604:	4807      	ldr	r0, [pc, #28]	@ (8000624 <read_MCP23S17+0x50>)
 8000606:	f003 f8cc 	bl	80037a2 <HAL_SPI_TransmitReceive>
	HAL_GPIO_WritePin(GPIOB, VU_nCS_Pin, GPIO_PIN_SET);
 800060a:	2201      	movs	r2, #1
 800060c:	2180      	movs	r1, #128	@ 0x80
 800060e:	4804      	ldr	r0, [pc, #16]	@ (8000620 <read_MCP23S17+0x4c>)
 8000610:	f001 fb44 	bl	8001c9c <HAL_GPIO_WritePin>

	return data[2];
 8000614:	7bbb      	ldrb	r3, [r7, #14]
}
 8000616:	4618      	mov	r0, r3
 8000618:	3710      	adds	r7, #16
 800061a:	46bd      	mov	sp, r7
 800061c:	bd80      	pop	{r7, pc}
 800061e:	bf00      	nop
 8000620:	48000400 	.word	0x48000400
 8000624:	200006a0 	.word	0x200006a0

08000628 <init_MCP23017>:

void init_MCP23017(void)
{
 8000628:	b580      	push	{r7, lr}
 800062a:	af00      	add	r7, sp, #0
	write_MCP23017(0x00,0x00); // les oins A en sortie
 800062c:	2100      	movs	r1, #0
 800062e:	2000      	movs	r0, #0
 8000630:	f7ff ff9e 	bl	8000570 <write_MCP23017>
	write_MCP23017(0x01,0x00); // les pins B en sortie
 8000634:	2100      	movs	r1, #0
 8000636:	2001      	movs	r0, #1
 8000638:	f7ff ff9a 	bl	8000570 <write_MCP23017>
	write_MCP23017(0x12,0xFF);
 800063c:	21ff      	movs	r1, #255	@ 0xff
 800063e:	2012      	movs	r0, #18
 8000640:	f7ff ff96 	bl	8000570 <write_MCP23017>
	write_MCP23017(0x13,0x0FF);
 8000644:	21ff      	movs	r1, #255	@ 0xff
 8000646:	2013      	movs	r0, #19
 8000648:	f7ff ff92 	bl	8000570 <write_MCP23017>

}
 800064c:	bf00      	nop
 800064e:	bd80      	pop	{r7, pc}

08000650 <Blink_LEDs>:
void Blink_LEDs(void) {
 8000650:	b580      	push	{r7, lr}
 8000652:	af00      	add	r7, sp, #0
	while (1) {
		write_MCP23017(0x13, 0xFF);
 8000654:	21ff      	movs	r1, #255	@ 0xff
 8000656:	2013      	movs	r0, #19
 8000658:	f7ff ff8a 	bl	8000570 <write_MCP23017>
		write_MCP23017(0x12, 0xFF);
 800065c:	21ff      	movs	r1, #255	@ 0xff
 800065e:	2012      	movs	r0, #18
 8000660:	f7ff ff86 	bl	8000570 <write_MCP23017>
		HAL_Delay(300);
 8000664:	f44f 7096 	mov.w	r0, #300	@ 0x12c
 8000668:	f000 ffe8 	bl	800163c <HAL_Delay>
		write_MCP23017(0x13, 0x00);
 800066c:	2100      	movs	r1, #0
 800066e:	2013      	movs	r0, #19
 8000670:	f7ff ff7e 	bl	8000570 <write_MCP23017>
		write_MCP23017(0x12, 0x00);
 8000674:	2100      	movs	r1, #0
 8000676:	2012      	movs	r0, #18
 8000678:	f7ff ff7a 	bl	8000570 <write_MCP23017>
		HAL_Delay(300);
 800067c:	f44f 7096 	mov.w	r0, #300	@ 0x12c
 8000680:	f000 ffdc 	bl	800163c <HAL_Delay>
		write_MCP23017(0x13, 0xFF);
 8000684:	bf00      	nop
 8000686:	e7e5      	b.n	8000654 <Blink_LEDs+0x4>

08000688 <LED_Chenillard>:
	}
}
void LED_Chenillard(void) {
 8000688:	b580      	push	{r7, lr}
 800068a:	b082      	sub	sp, #8
 800068c:	af00      	add	r7, sp, #0
	for (uint8_t i = 0; i < 8; i++) {
 800068e:	2300      	movs	r3, #0
 8000690:	71fb      	strb	r3, [r7, #7]
 8000692:	e018      	b.n	80006c6 <LED_Chenillard+0x3e>
		write_MCP23017(0x13, (1 << i));
 8000694:	79fb      	ldrb	r3, [r7, #7]
 8000696:	2201      	movs	r2, #1
 8000698:	fa02 f303 	lsl.w	r3, r2, r3
 800069c:	b2db      	uxtb	r3, r3
 800069e:	4619      	mov	r1, r3
 80006a0:	2013      	movs	r0, #19
 80006a2:	f7ff ff65 	bl	8000570 <write_MCP23017>
		write_MCP23017(0x12, (1 << i));
 80006a6:	79fb      	ldrb	r3, [r7, #7]
 80006a8:	2201      	movs	r2, #1
 80006aa:	fa02 f303 	lsl.w	r3, r2, r3
 80006ae:	b2db      	uxtb	r3, r3
 80006b0:	4619      	mov	r1, r3
 80006b2:	2012      	movs	r0, #18
 80006b4:	f7ff ff5c 	bl	8000570 <write_MCP23017>
		HAL_Delay(300);
 80006b8:	f44f 7096 	mov.w	r0, #300	@ 0x12c
 80006bc:	f000 ffbe 	bl	800163c <HAL_Delay>
	for (uint8_t i = 0; i < 8; i++) {
 80006c0:	79fb      	ldrb	r3, [r7, #7]
 80006c2:	3301      	adds	r3, #1
 80006c4:	71fb      	strb	r3, [r7, #7]
 80006c6:	79fb      	ldrb	r3, [r7, #7]
 80006c8:	2b07      	cmp	r3, #7
 80006ca:	d9e3      	bls.n	8000694 <LED_Chenillard+0xc>
	}

}
 80006cc:	bf00      	nop
 80006ce:	bf00      	nop
 80006d0:	3708      	adds	r7, #8
 80006d2:	46bd      	mov	sp, r7
 80006d4:	bd80      	pop	{r7, pc}
	...

080006d8 <LED_Driver_Init>:

void LED_Driver_Init(LED_Driver_t *driver) {
 80006d8:	b580      	push	{r7, lr}
 80006da:	b082      	sub	sp, #8
 80006dc:	af00      	add	r7, sp, #0
 80006de:	6078      	str	r0, [r7, #4]

driver->init = init_MCP23017;
 80006e0:	687b      	ldr	r3, [r7, #4]
 80006e2:	4a0a      	ldr	r2, [pc, #40]	@ (800070c <LED_Driver_Init+0x34>)
 80006e4:	601a      	str	r2, [r3, #0]
driver->write = write_MCP23017;
 80006e6:	687b      	ldr	r3, [r7, #4]
 80006e8:	4a09      	ldr	r2, [pc, #36]	@ (8000710 <LED_Driver_Init+0x38>)
 80006ea:	605a      	str	r2, [r3, #4]
driver->read = read_MCP23S17;
 80006ec:	687b      	ldr	r3, [r7, #4]
 80006ee:	4a09      	ldr	r2, [pc, #36]	@ (8000714 <LED_Driver_Init+0x3c>)
 80006f0:	615a      	str	r2, [r3, #20]
driver->chenillard = LED_Chenillard;
 80006f2:	687b      	ldr	r3, [r7, #4]
 80006f4:	4a08      	ldr	r2, [pc, #32]	@ (8000718 <LED_Driver_Init+0x40>)
 80006f6:	60da      	str	r2, [r3, #12]
driver->blink_all = Blink_LEDs;
 80006f8:	687b      	ldr	r3, [r7, #4]
 80006fa:	4a08      	ldr	r2, [pc, #32]	@ (800071c <LED_Driver_Init+0x44>)
 80006fc:	611a      	str	r2, [r3, #16]
driver->init();
 80006fe:	687b      	ldr	r3, [r7, #4]
 8000700:	681b      	ldr	r3, [r3, #0]
 8000702:	4798      	blx	r3
}
 8000704:	bf00      	nop
 8000706:	3708      	adds	r7, #8
 8000708:	46bd      	mov	sp, r7
 800070a:	bd80      	pop	{r7, pc}
 800070c:	08000629 	.word	0x08000629
 8000710:	08000571 	.word	0x08000571
 8000714:	080005d5 	.word	0x080005d5
 8000718:	08000689 	.word	0x08000689
 800071c:	08000651 	.word	0x08000651

08000720 <shell_control_led>:

int shell_control_led(h_shell_t *h_shell, int argc, char **argv) {
 8000720:	b5b0      	push	{r4, r5, r7, lr}
 8000722:	b08a      	sub	sp, #40	@ 0x28
 8000724:	af02      	add	r7, sp, #8
 8000726:	60f8      	str	r0, [r7, #12]
 8000728:	60b9      	str	r1, [r7, #8]
 800072a:	607a      	str	r2, [r7, #4]

	if (argc != 4) {
 800072c:	68bb      	ldr	r3, [r7, #8]
 800072e:	2b04      	cmp	r3, #4
 8000730:	d01b      	beq.n	800076a <shell_control_led+0x4a>
		snprintf(h_shell->print_buffer, BUFFER_SIZE, "Usage: l <port> <pin> <state>\r\n");
 8000732:	68fb      	ldr	r3, [r7, #12]
 8000734:	f503 7341 	add.w	r3, r3, #772	@ 0x304
 8000738:	4a5a      	ldr	r2, [pc, #360]	@ (80008a4 <shell_control_led+0x184>)
 800073a:	2128      	movs	r1, #40	@ 0x28
 800073c:	4618      	mov	r0, r3
 800073e:	f006 fc91 	bl	8007064 <sniprintf>
		h_shell->drv.transmit(h_shell->print_buffer, strlen(h_shell->print_buffer));
 8000742:	68fb      	ldr	r3, [r7, #12]
 8000744:	f8d3 4354 	ldr.w	r4, [r3, #852]	@ 0x354
 8000748:	68fb      	ldr	r3, [r7, #12]
 800074a:	f503 7541 	add.w	r5, r3, #772	@ 0x304
 800074e:	68fb      	ldr	r3, [r7, #12]
 8000750:	f503 7341 	add.w	r3, r3, #772	@ 0x304
 8000754:	4618      	mov	r0, r3
 8000756:	f7ff fd3b 	bl	80001d0 <strlen>
 800075a:	4603      	mov	r3, r0
 800075c:	b29b      	uxth	r3, r3
 800075e:	4619      	mov	r1, r3
 8000760:	4628      	mov	r0, r5
 8000762:	47a0      	blx	r4
		return -1;
 8000764:	f04f 33ff 	mov.w	r3, #4294967295
 8000768:	e098      	b.n	800089c <shell_control_led+0x17c>
	}


	char port = argv[1][0];
 800076a:	687b      	ldr	r3, [r7, #4]
 800076c:	3304      	adds	r3, #4
 800076e:	681b      	ldr	r3, [r3, #0]
 8000770:	781b      	ldrb	r3, [r3, #0]
 8000772:	77bb      	strb	r3, [r7, #30]
	int pin = atoi(argv[2]);
 8000774:	687b      	ldr	r3, [r7, #4]
 8000776:	3308      	adds	r3, #8
 8000778:	681b      	ldr	r3, [r3, #0]
 800077a:	4618      	mov	r0, r3
 800077c:	f006 faca 	bl	8006d14 <atoi>
 8000780:	61b8      	str	r0, [r7, #24]
	int state = atoi(argv[3]);
 8000782:	687b      	ldr	r3, [r7, #4]
 8000784:	330c      	adds	r3, #12
 8000786:	681b      	ldr	r3, [r3, #0]
 8000788:	4618      	mov	r0, r3
 800078a:	f006 fac3 	bl	8006d14 <atoi>
 800078e:	6178      	str	r0, [r7, #20]


	if ((port != 'A' && port != 'B') || pin < 0 || pin > 7 || (state != 0 && state != 1)) {
 8000790:	7fbb      	ldrb	r3, [r7, #30]
 8000792:	2b41      	cmp	r3, #65	@ 0x41
 8000794:	d002      	beq.n	800079c <shell_control_led+0x7c>
 8000796:	7fbb      	ldrb	r3, [r7, #30]
 8000798:	2b42      	cmp	r3, #66	@ 0x42
 800079a:	d10b      	bne.n	80007b4 <shell_control_led+0x94>
 800079c:	69bb      	ldr	r3, [r7, #24]
 800079e:	2b00      	cmp	r3, #0
 80007a0:	db08      	blt.n	80007b4 <shell_control_led+0x94>
 80007a2:	69bb      	ldr	r3, [r7, #24]
 80007a4:	2b07      	cmp	r3, #7
 80007a6:	dc05      	bgt.n	80007b4 <shell_control_led+0x94>
 80007a8:	697b      	ldr	r3, [r7, #20]
 80007aa:	2b00      	cmp	r3, #0
 80007ac:	d01e      	beq.n	80007ec <shell_control_led+0xcc>
 80007ae:	697b      	ldr	r3, [r7, #20]
 80007b0:	2b01      	cmp	r3, #1
 80007b2:	d01b      	beq.n	80007ec <shell_control_led+0xcc>
		snprintf(h_shell->print_buffer, BUFFER_SIZE, "Invalid arguments\r\n");
 80007b4:	68fb      	ldr	r3, [r7, #12]
 80007b6:	f503 7341 	add.w	r3, r3, #772	@ 0x304
 80007ba:	4a3b      	ldr	r2, [pc, #236]	@ (80008a8 <shell_control_led+0x188>)
 80007bc:	2128      	movs	r1, #40	@ 0x28
 80007be:	4618      	mov	r0, r3
 80007c0:	f006 fc50 	bl	8007064 <sniprintf>
		h_shell->drv.transmit(h_shell->print_buffer, strlen(h_shell->print_buffer));
 80007c4:	68fb      	ldr	r3, [r7, #12]
 80007c6:	f8d3 4354 	ldr.w	r4, [r3, #852]	@ 0x354
 80007ca:	68fb      	ldr	r3, [r7, #12]
 80007cc:	f503 7541 	add.w	r5, r3, #772	@ 0x304
 80007d0:	68fb      	ldr	r3, [r7, #12]
 80007d2:	f503 7341 	add.w	r3, r3, #772	@ 0x304
 80007d6:	4618      	mov	r0, r3
 80007d8:	f7ff fcfa 	bl	80001d0 <strlen>
 80007dc:	4603      	mov	r3, r0
 80007de:	b29b      	uxth	r3, r3
 80007e0:	4619      	mov	r1, r3
 80007e2:	4628      	mov	r0, r5
 80007e4:	47a0      	blx	r4
		return -1;
 80007e6:	f04f 33ff 	mov.w	r3, #4294967295
 80007ea:	e057      	b.n	800089c <shell_control_led+0x17c>
	}


	uint8_t reg = (port == 'A') ? 0x13 : 0x12;
 80007ec:	7fbb      	ldrb	r3, [r7, #30]
 80007ee:	2b41      	cmp	r3, #65	@ 0x41
 80007f0:	d101      	bne.n	80007f6 <shell_control_led+0xd6>
 80007f2:	2313      	movs	r3, #19
 80007f4:	e000      	b.n	80007f8 <shell_control_led+0xd8>
 80007f6:	2312      	movs	r3, #18
 80007f8:	74fb      	strb	r3, [r7, #19]
	uint8_t current_state = 0;
 80007fa:	2300      	movs	r3, #0
 80007fc:	77fb      	strb	r3, [r7, #31]


	if (led_driver.read) {
 80007fe:	4b2b      	ldr	r3, [pc, #172]	@ (80008ac <shell_control_led+0x18c>)
 8000800:	695b      	ldr	r3, [r3, #20]
 8000802:	2b00      	cmp	r3, #0
 8000804:	d006      	beq.n	8000814 <shell_control_led+0xf4>
		current_state = led_driver.read(reg);
 8000806:	4b29      	ldr	r3, [pc, #164]	@ (80008ac <shell_control_led+0x18c>)
 8000808:	695b      	ldr	r3, [r3, #20]
 800080a:	7cfa      	ldrb	r2, [r7, #19]
 800080c:	4610      	mov	r0, r2
 800080e:	4798      	blx	r3
 8000810:	4603      	mov	r3, r0
 8000812:	77fb      	strb	r3, [r7, #31]
	}


	if (state == 1) {
 8000814:	697b      	ldr	r3, [r7, #20]
 8000816:	2b01      	cmp	r3, #1
 8000818:	d10c      	bne.n	8000834 <shell_control_led+0x114>
		current_state &= ~(1 << pin);
 800081a:	2201      	movs	r2, #1
 800081c:	69bb      	ldr	r3, [r7, #24]
 800081e:	fa02 f303 	lsl.w	r3, r2, r3
 8000822:	b25b      	sxtb	r3, r3
 8000824:	43db      	mvns	r3, r3
 8000826:	b25a      	sxtb	r2, r3
 8000828:	f997 301f 	ldrsb.w	r3, [r7, #31]
 800082c:	4013      	ands	r3, r2
 800082e:	b25b      	sxtb	r3, r3
 8000830:	77fb      	strb	r3, [r7, #31]
 8000832:	e009      	b.n	8000848 <shell_control_led+0x128>
	} else {
		current_state |= (1 << pin);
 8000834:	2201      	movs	r2, #1
 8000836:	69bb      	ldr	r3, [r7, #24]
 8000838:	fa02 f303 	lsl.w	r3, r2, r3
 800083c:	b25a      	sxtb	r2, r3
 800083e:	f997 301f 	ldrsb.w	r3, [r7, #31]
 8000842:	4313      	orrs	r3, r2
 8000844:	b25b      	sxtb	r3, r3
 8000846:	77fb      	strb	r3, [r7, #31]
	}

	led_driver.write(reg, current_state);
 8000848:	4b18      	ldr	r3, [pc, #96]	@ (80008ac <shell_control_led+0x18c>)
 800084a:	685b      	ldr	r3, [r3, #4]
 800084c:	7ff9      	ldrb	r1, [r7, #31]
 800084e:	7cfa      	ldrb	r2, [r7, #19]
 8000850:	4610      	mov	r0, r2
 8000852:	4798      	blx	r3


	snprintf(h_shell->print_buffer, BUFFER_SIZE, "LED %c%d %s\r\n", port, pin, state ? "ON" : "OFF");
 8000854:	68fb      	ldr	r3, [r7, #12]
 8000856:	f503 7041 	add.w	r0, r3, #772	@ 0x304
 800085a:	7fba      	ldrb	r2, [r7, #30]
 800085c:	697b      	ldr	r3, [r7, #20]
 800085e:	2b00      	cmp	r3, #0
 8000860:	d001      	beq.n	8000866 <shell_control_led+0x146>
 8000862:	4b13      	ldr	r3, [pc, #76]	@ (80008b0 <shell_control_led+0x190>)
 8000864:	e000      	b.n	8000868 <shell_control_led+0x148>
 8000866:	4b13      	ldr	r3, [pc, #76]	@ (80008b4 <shell_control_led+0x194>)
 8000868:	9301      	str	r3, [sp, #4]
 800086a:	69bb      	ldr	r3, [r7, #24]
 800086c:	9300      	str	r3, [sp, #0]
 800086e:	4613      	mov	r3, r2
 8000870:	4a11      	ldr	r2, [pc, #68]	@ (80008b8 <shell_control_led+0x198>)
 8000872:	2128      	movs	r1, #40	@ 0x28
 8000874:	f006 fbf6 	bl	8007064 <sniprintf>
	h_shell->drv.transmit(h_shell->print_buffer, strlen(h_shell->print_buffer));
 8000878:	68fb      	ldr	r3, [r7, #12]
 800087a:	f8d3 4354 	ldr.w	r4, [r3, #852]	@ 0x354
 800087e:	68fb      	ldr	r3, [r7, #12]
 8000880:	f503 7541 	add.w	r5, r3, #772	@ 0x304
 8000884:	68fb      	ldr	r3, [r7, #12]
 8000886:	f503 7341 	add.w	r3, r3, #772	@ 0x304
 800088a:	4618      	mov	r0, r3
 800088c:	f7ff fca0 	bl	80001d0 <strlen>
 8000890:	4603      	mov	r3, r0
 8000892:	b29b      	uxth	r3, r3
 8000894:	4619      	mov	r1, r3
 8000896:	4628      	mov	r0, r5
 8000898:	47a0      	blx	r4

	return 0;
 800089a:	2300      	movs	r3, #0
}
 800089c:	4618      	mov	r0, r3
 800089e:	3720      	adds	r7, #32
 80008a0:	46bd      	mov	sp, r7
 80008a2:	bdb0      	pop	{r4, r5, r7, pc}
 80008a4:	08007f30 	.word	0x08007f30
 80008a8:	08007f50 	.word	0x08007f50
 80008ac:	20000688 	.word	0x20000688
 80008b0:	08007f64 	.word	0x08007f64
 80008b4:	08007f68 	.word	0x08007f68
 80008b8:	08007f6c 	.word	0x08007f6c

080008bc <drv_uart2_receive>:
 80008bc:	b580      	push	{r7, lr}
 80008be:	b082      	sub	sp, #8
 80008c0:	af00      	add	r7, sp, #0
 80008c2:	6078      	str	r0, [r7, #4]
 80008c4:	460b      	mov	r3, r1
 80008c6:	807b      	strh	r3, [r7, #2]
 80008c8:	887a      	ldrh	r2, [r7, #2]
 80008ca:	f04f 33ff 	mov.w	r3, #4294967295
 80008ce:	6879      	ldr	r1, [r7, #4]
 80008d0:	4803      	ldr	r0, [pc, #12]	@ (80008e0 <drv_uart2_receive+0x24>)
 80008d2:	f003 fe86 	bl	80045e2 <HAL_UART_Receive>
 80008d6:	2300      	movs	r3, #0
 80008d8:	4618      	mov	r0, r3
 80008da:	3708      	adds	r7, #8
 80008dc:	46bd      	mov	sp, r7
 80008de:	bd80      	pop	{r7, pc}
 80008e0:	20000754 	.word	0x20000754

080008e4 <drv_uart2_transmit>:
 80008e4:	b580      	push	{r7, lr}
 80008e6:	b082      	sub	sp, #8
 80008e8:	af00      	add	r7, sp, #0
 80008ea:	6078      	str	r0, [r7, #4]
 80008ec:	460b      	mov	r3, r1
 80008ee:	807b      	strh	r3, [r7, #2]
 80008f0:	887a      	ldrh	r2, [r7, #2]
 80008f2:	f04f 33ff 	mov.w	r3, #4294967295
 80008f6:	6879      	ldr	r1, [r7, #4]
 80008f8:	4803      	ldr	r0, [pc, #12]	@ (8000908 <drv_uart2_transmit+0x24>)
 80008fa:	f003 fde9 	bl	80044d0 <HAL_UART_Transmit>
 80008fe:	2300      	movs	r3, #0
 8000900:	4618      	mov	r0, r3
 8000902:	3708      	adds	r7, #8
 8000904:	46bd      	mov	sp, r7
 8000906:	bd80      	pop	{r7, pc}
 8000908:	20000754 	.word	0x20000754

0800090c <vApplicationGetIdleTaskMemory>:
 800090c:	b480      	push	{r7}
 800090e:	b085      	sub	sp, #20
 8000910:	af00      	add	r7, sp, #0
 8000912:	60f8      	str	r0, [r7, #12]
 8000914:	60b9      	str	r1, [r7, #8]
 8000916:	607a      	str	r2, [r7, #4]
 8000918:	68fb      	ldr	r3, [r7, #12]
 800091a:	4a07      	ldr	r2, [pc, #28]	@ (8000938 <vApplicationGetIdleTaskMemory+0x2c>)
 800091c:	601a      	str	r2, [r3, #0]
 800091e:	68bb      	ldr	r3, [r7, #8]
 8000920:	4a06      	ldr	r2, [pc, #24]	@ (800093c <vApplicationGetIdleTaskMemory+0x30>)
 8000922:	601a      	str	r2, [r3, #0]
 8000924:	687b      	ldr	r3, [r7, #4]
 8000926:	2280      	movs	r2, #128	@ 0x80
 8000928:	601a      	str	r2, [r3, #0]
 800092a:	bf00      	nop
 800092c:	3714      	adds	r7, #20
 800092e:	46bd      	mov	sp, r7
 8000930:	f85d 7b04 	ldr.w	r7, [sp], #4
 8000934:	4770      	bx	lr
 8000936:	bf00      	nop
 8000938:	2000008c 	.word	0x2000008c
 800093c:	2000012c 	.word	0x2000012c

08000940 <MX_FREERTOS_Init>:
 8000940:	b5b0      	push	{r4, r5, r7, lr}
 8000942:	b088      	sub	sp, #32
 8000944:	af00      	add	r7, sp, #0
 8000946:	4b0a      	ldr	r3, [pc, #40]	@ (8000970 <MX_FREERTOS_Init+0x30>)
 8000948:	1d3c      	adds	r4, r7, #4
 800094a:	461d      	mov	r5, r3
 800094c:	cd0f      	ldmia	r5!, {r0, r1, r2, r3}
 800094e:	c40f      	stmia	r4!, {r0, r1, r2, r3}
 8000950:	e895 0007 	ldmia.w	r5, {r0, r1, r2}
 8000954:	e884 0007 	stmia.w	r4, {r0, r1, r2}
 8000958:	1d3b      	adds	r3, r7, #4
 800095a:	2100      	movs	r1, #0
 800095c:	4618      	mov	r0, r3
 800095e:	f004 ff6b 	bl	8005838 <osThreadCreate>
 8000962:	4603      	mov	r3, r0
 8000964:	4a03      	ldr	r2, [pc, #12]	@ (8000974 <MX_FREERTOS_Init+0x34>)
 8000966:	6013      	str	r3, [r2, #0]
 8000968:	bf00      	nop
 800096a:	3720      	adds	r7, #32
 800096c:	46bd      	mov	sp, r7
 800096e:	bdb0      	pop	{r4, r5, r7, pc}
 8000970:	08007f88 	.word	0x08007f88
 8000974:	20000088 	.word	0x20000088

08000978 <StartDefaultTask>:
 8000978:	b580      	push	{r7, lr}
 800097a:	b082      	sub	sp, #8
 800097c:	af00      	add	r7, sp, #0
 800097e:	6078      	str	r0, [r7, #4]
 8000980:	2001      	movs	r0, #1
 8000982:	f004 ffa5 	bl	80058d0 <osDelay>
 8000986:	e7fb      	b.n	8000980 <StartDefaultTask+0x8>

08000988 <MX_GPIO_Init>:
 8000988:	b580      	push	{r7, lr}
 800098a:	b08a      	sub	sp, #40	@ 0x28
 800098c:	af00      	add	r7, sp, #0
 800098e:	f107 0314 	add.w	r3, r7, #20
 8000992:	2200      	movs	r2, #0
 8000994:	601a      	str	r2, [r3, #0]
 8000996:	605a      	str	r2, [r3, #4]
 8000998:	609a      	str	r2, [r3, #8]
 800099a:	60da      	str	r2, [r3, #12]
 800099c:	611a      	str	r2, [r3, #16]
 800099e:	4b38      	ldr	r3, [pc, #224]	@ (8000a80 <MX_GPIO_Init+0xf8>)
 80009a0:	6cdb      	ldr	r3, [r3, #76]	@ 0x4c
 80009a2:	4a37      	ldr	r2, [pc, #220]	@ (8000a80 <MX_GPIO_Init+0xf8>)
 80009a4:	f043 0304 	orr.w	r3, r3, #4
 80009a8:	64d3      	str	r3, [r2, #76]	@ 0x4c
 80009aa:	4b35      	ldr	r3, [pc, #212]	@ (8000a80 <MX_GPIO_Init+0xf8>)
 80009ac:	6cdb      	ldr	r3, [r3, #76]	@ 0x4c
 80009ae:	f003 0304 	and.w	r3, r3, #4
 80009b2:	613b      	str	r3, [r7, #16]
 80009b4:	693b      	ldr	r3, [r7, #16]
 80009b6:	4b32      	ldr	r3, [pc, #200]	@ (8000a80 <MX_GPIO_Init+0xf8>)
 80009b8:	6cdb      	ldr	r3, [r3, #76]	@ 0x4c
 80009ba:	4a31      	ldr	r2, [pc, #196]	@ (8000a80 <MX_GPIO_Init+0xf8>)
 80009bc:	f043 0380 	orr.w	r3, r3, #128	@ 0x80
 80009c0:	64d3      	str	r3, [r2, #76]	@ 0x4c
 80009c2:	4b2f      	ldr	r3, [pc, #188]	@ (8000a80 <MX_GPIO_Init+0xf8>)
 80009c4:	6cdb      	ldr	r3, [r3, #76]	@ 0x4c
 80009c6:	f003 0380 	and.w	r3, r3, #128	@ 0x80
 80009ca:	60fb      	str	r3, [r7, #12]
 80009cc:	68fb      	ldr	r3, [r7, #12]
 80009ce:	4b2c      	ldr	r3, [pc, #176]	@ (8000a80 <MX_GPIO_Init+0xf8>)
 80009d0:	6cdb      	ldr	r3, [r3, #76]	@ 0x4c
 80009d2:	4a2b      	ldr	r2, [pc, #172]	@ (8000a80 <MX_GPIO_Init+0xf8>)
 80009d4:	f043 0301 	orr.w	r3, r3, #1
 80009d8:	64d3      	str	r3, [r2, #76]	@ 0x4c
 80009da:	4b29      	ldr	r3, [pc, #164]	@ (8000a80 <MX_GPIO_Init+0xf8>)
 80009dc:	6cdb      	ldr	r3, [r3, #76]	@ 0x4c
 80009de:	f003 0301 	and.w	r3, r3, #1
 80009e2:	60bb      	str	r3, [r7, #8]
 80009e4:	68bb      	ldr	r3, [r7, #8]
 80009e6:	4b26      	ldr	r3, [pc, #152]	@ (8000a80 <MX_GPIO_Init+0xf8>)
 80009e8:	6cdb      	ldr	r3, [r3, #76]	@ 0x4c
 80009ea:	4a25      	ldr	r2, [pc, #148]	@ (8000a80 <MX_GPIO_Init+0xf8>)
 80009ec:	f043 0302 	orr.w	r3, r3, #2
 80009f0:	64d3      	str	r3, [r2, #76]	@ 0x4c
 80009f2:	4b23      	ldr	r3, [pc, #140]	@ (8000a80 <MX_GPIO_Init+0xf8>)
 80009f4:	6cdb      	ldr	r3, [r3, #76]	@ 0x4c
 80009f6:	f003 0302 	and.w	r3, r3, #2
 80009fa:	607b      	str	r3, [r7, #4]
 80009fc:	687b      	ldr	r3, [r7, #4]
 80009fe:	2201      	movs	r2, #1
 8000a00:	2101      	movs	r1, #1
 8000a02:	f04f 4090 	mov.w	r0, #1207959552	@ 0x48000000
 8000a06:	f001 f949 	bl	8001c9c <HAL_GPIO_WritePin>
 8000a0a:	2200      	movs	r2, #0
 8000a0c:	2120      	movs	r1, #32
 8000a0e:	f04f 4090 	mov.w	r0, #1207959552	@ 0x48000000
 8000a12:	f001 f943 	bl	8001c9c <HAL_GPIO_WritePin>
 8000a16:	2201      	movs	r2, #1
 8000a18:	2180      	movs	r1, #128	@ 0x80
 8000a1a:	481a      	ldr	r0, [pc, #104]	@ (8000a84 <MX_GPIO_Init+0xfc>)
 8000a1c:	f001 f93e 	bl	8001c9c <HAL_GPIO_WritePin>
 8000a20:	f44f 5300 	mov.w	r3, #8192	@ 0x2000
 8000a24:	617b      	str	r3, [r7, #20]
 8000a26:	f44f 1304 	mov.w	r3, #2162688	@ 0x210000
 8000a2a:	61bb      	str	r3, [r7, #24]
 8000a2c:	2300      	movs	r3, #0
 8000a2e:	61fb      	str	r3, [r7, #28]
 8000a30:	f107 0314 	add.w	r3, r7, #20
 8000a34:	4619      	mov	r1, r3
 8000a36:	4814      	ldr	r0, [pc, #80]	@ (8000a88 <MX_GPIO_Init+0x100>)
 8000a38:	f000 ff86 	bl	8001948 <HAL_GPIO_Init>
 8000a3c:	2321      	movs	r3, #33	@ 0x21
 8000a3e:	617b      	str	r3, [r7, #20]
 8000a40:	2301      	movs	r3, #1
 8000a42:	61bb      	str	r3, [r7, #24]
 8000a44:	2300      	movs	r3, #0
 8000a46:	61fb      	str	r3, [r7, #28]
 8000a48:	2300      	movs	r3, #0
 8000a4a:	623b      	str	r3, [r7, #32]
 8000a4c:	f107 0314 	add.w	r3, r7, #20
 8000a50:	4619      	mov	r1, r3
 8000a52:	f04f 4090 	mov.w	r0, #1207959552	@ 0x48000000
 8000a56:	f000 ff77 	bl	8001948 <HAL_GPIO_Init>
 8000a5a:	2380      	movs	r3, #128	@ 0x80
 8000a5c:	617b      	str	r3, [r7, #20]
 8000a5e:	2301      	movs	r3, #1
 8000a60:	61bb      	str	r3, [r7, #24]
 8000a62:	2300      	movs	r3, #0
 8000a64:	61fb      	str	r3, [r7, #28]
 8000a66:	2300      	movs	r3, #0
 8000a68:	623b      	str	r3, [r7, #32]
 8000a6a:	f107 0314 	add.w	r3, r7, #20
 8000a6e:	4619      	mov	r1, r3
 8000a70:	4804      	ldr	r0, [pc, #16]	@ (8000a84 <MX_GPIO_Init+0xfc>)
 8000a72:	f000 ff69 	bl	8001948 <HAL_GPIO_Init>
 8000a76:	bf00      	nop
 8000a78:	3728      	adds	r7, #40	@ 0x28
 8000a7a:	46bd      	mov	sp, r7
 8000a7c:	bd80      	pop	{r7, pc}
 8000a7e:	bf00      	nop
 8000a80:	40021000 	.word	0x40021000
 8000a84:	48000400 	.word	0x48000400
 8000a88:	48000800 	.word	0x48000800

08000a8c <__io_putchar>:
/* USER CODE END PFP */

/* Private user code ---------------------------------------------------------*/
/* USER CODE BEGIN 0 */
int __io_putchar(int chr)
{
 8000a8c:	b580      	push	{r7, lr}
 8000a8e:	b082      	sub	sp, #8
 8000a90:	af00      	add	r7, sp, #0
 8000a92:	6078      	str	r0, [r7, #4]
	HAL_UART_Transmit(&huart2, (uint8_t*) &chr, 1, HAL_MAX_DELAY);
 8000a94:	1d39      	adds	r1, r7, #4
 8000a96:	f04f 33ff 	mov.w	r3, #4294967295
 8000a9a:	2201      	movs	r2, #1
 8000a9c:	4803      	ldr	r0, [pc, #12]	@ (8000aac <__io_putchar+0x20>)
 8000a9e:	f003 fd17 	bl	80044d0 <HAL_UART_Transmit>
	return chr;
 8000aa2:	687b      	ldr	r3, [r7, #4]
}
 8000aa4:	4618      	mov	r0, r3
 8000aa6:	3708      	adds	r7, #8
 8000aa8:	46bd      	mov	sp, r7
 8000aaa:	bd80      	pop	{r7, pc}
 8000aac:	20000754 	.word	0x20000754

08000ab0 <init_shell>:

	return 0;
}*/

void init_shell(void *unused)
{
 8000ab0:	b590      	push	{r4, r7, lr}
 8000ab2:	b085      	sub	sp, #20
 8000ab4:	af00      	add	r7, sp, #0
 8000ab6:	6078      	str	r0, [r7, #4]
	h_shell.drv.receive = drv_uart2_receive;
 8000ab8:	4b10      	ldr	r3, [pc, #64]	@ (8000afc <init_shell+0x4c>)
 8000aba:	4a11      	ldr	r2, [pc, #68]	@ (8000b00 <init_shell+0x50>)
 8000abc:	f8c3 2358 	str.w	r2, [r3, #856]	@ 0x358
	h_shell.drv.transmit = drv_uart2_transmit;
 8000ac0:	4b0e      	ldr	r3, [pc, #56]	@ (8000afc <init_shell+0x4c>)
 8000ac2:	4a10      	ldr	r2, [pc, #64]	@ (8000b04 <init_shell+0x54>)
 8000ac4:	f8c3 2354 	str.w	r2, [r3, #852]	@ 0x354

	shell_init(&h_shell);
 8000ac8:	480c      	ldr	r0, [pc, #48]	@ (8000afc <init_shell+0x4c>)
 8000aca:	f000 f92f 	bl	8000d2c <shell_init>
	shell_add(&h_shell, 'l', shell_control_led, "Control LEDs: l <port> <pin> <state>");
 8000ace:	4b0e      	ldr	r3, [pc, #56]	@ (8000b08 <init_shell+0x58>)
 8000ad0:	4a0e      	ldr	r2, [pc, #56]	@ (8000b0c <init_shell+0x5c>)
 8000ad2:	216c      	movs	r1, #108	@ 0x6c
 8000ad4:	4809      	ldr	r0, [pc, #36]	@ (8000afc <init_shell+0x4c>)
 8000ad6:	f000 f955 	bl	8000d84 <shell_add>

	const char *startup_msg = "\r\nType commands:\r\n";
 8000ada:	4b0d      	ldr	r3, [pc, #52]	@ (8000b10 <init_shell+0x60>)
 8000adc:	60fb      	str	r3, [r7, #12]
	h_shell.drv.transmit(startup_msg, strlen(startup_msg));
 8000ade:	4b07      	ldr	r3, [pc, #28]	@ (8000afc <init_shell+0x4c>)
 8000ae0:	f8d3 4354 	ldr.w	r4, [r3, #852]	@ 0x354
 8000ae4:	68f8      	ldr	r0, [r7, #12]
 8000ae6:	f7ff fb73 	bl	80001d0 <strlen>
 8000aea:	4603      	mov	r3, r0
 8000aec:	b29b      	uxth	r3, r3
 8000aee:	4619      	mov	r1, r3
 8000af0:	68f8      	ldr	r0, [r7, #12]
 8000af2:	47a0      	blx	r4
}
 8000af4:	bf00      	nop
 8000af6:	3714      	adds	r7, #20
 8000af8:	46bd      	mov	sp, r7
 8000afa:	bd90      	pop	{r4, r7, pc}
 8000afc:	2000032c 	.word	0x2000032c
 8000b00:	080008bd 	.word	0x080008bd
 8000b04:	080008e5 	.word	0x080008e5
 8000b08:	08007fa4 	.word	0x08007fa4
 8000b0c:	08000721 	.word	0x08000721
 8000b10:	08007fcc 	.word	0x08007fcc

08000b14 <Task_control_Led>:
void Task_control_Led(void *argument)
{
 8000b14:	b580      	push	{r7, lr}
 8000b16:	b082      	sub	sp, #8
 8000b18:	af00      	add	r7, sp, #0
 8000b1a:	6078      	str	r0, [r7, #4]

	LED_Driver_Init(&led_driver);
 8000b1c:	4806      	ldr	r0, [pc, #24]	@ (8000b38 <Task_control_Led+0x24>)
 8000b1e:	f7ff fddb 	bl	80006d8 <LED_Driver_Init>
	init_shell(NULL);
 8000b22:	2000      	movs	r0, #0
 8000b24:	f7ff ffc4 	bl	8000ab0 <init_shell>
	shell_run(&h_shell);
 8000b28:	4804      	ldr	r0, [pc, #16]	@ (8000b3c <Task_control_Led+0x28>)
 8000b2a:	f000 f9d7 	bl	8000edc <shell_run>
}
 8000b2e:	bf00      	nop
 8000b30:	3708      	adds	r7, #8
 8000b32:	46bd      	mov	sp, r7
 8000b34:	bd80      	pop	{r7, pc}
 8000b36:	bf00      	nop
 8000b38:	20000688 	.word	0x20000688
 8000b3c:	2000032c 	.word	0x2000032c

08000b40 <Task_Chenillard>:


void Task_Chenillard(void *unused)
{
 8000b40:	b580      	push	{r7, lr}
 8000b42:	b082      	sub	sp, #8
 8000b44:	af00      	add	r7, sp, #0
 8000b46:	6078      	str	r0, [r7, #4]

	LED_Driver_Init(&led_driver);
 8000b48:	4804      	ldr	r0, [pc, #16]	@ (8000b5c <Task_Chenillard+0x1c>)
 8000b4a:	f7ff fdc5 	bl	80006d8 <LED_Driver_Init>
	printf("\r\n Chenillard dans une task\r\n");
 8000b4e:	4804      	ldr	r0, [pc, #16]	@ (8000b60 <Task_Chenillard+0x20>)
 8000b50:	f006 fa80 	bl	8007054 <puts>
	while(1){
		led_driver.chenillard();
 8000b54:	4b01      	ldr	r3, [pc, #4]	@ (8000b5c <Task_Chenillard+0x1c>)
 8000b56:	68db      	ldr	r3, [r3, #12]
 8000b58:	4798      	blx	r3
 8000b5a:	e7fb      	b.n	8000b54 <Task_Chenillard+0x14>
 8000b5c:	20000688 	.word	0x20000688
 8000b60:	08007fe0 	.word	0x08007fe0

08000b64 <main>:
/**
 * @brief The application entry point.
 * @retval int
 */
int main(void)
{
 8000b64:	b580      	push	{r7, lr}
 8000b66:	b088      	sub	sp, #32
 8000b68:	af02      	add	r7, sp, #8
	/* USER CODE END 1 */

	/* MCU Configuration--------------------------------------------------------*/

	/* Reset of all peripherals, Initializes the Flash interface and the Systick. */
	HAL_Init();
 8000b6a:	f000 fd27 	bl	80015bc <HAL_Init>
	/* USER CODE BEGIN Init */

	/* USER CODE END Init */

	/* Configure the system clock */
	SystemClock_Config();
 8000b6e:	f000 f833 	bl	8000bd8 <SystemClock_Config>
	/* USER CODE BEGIN SysInit */

	/* USER CODE END SysInit */

	/* Initialize all configured peripherals */
	MX_GPIO_Init();
 8000b72:	f7ff ff09 	bl	8000988 <MX_GPIO_Init>
	MX_USART2_UART_Init();
 8000b76:	f000 fc63 	bl	8001440 <MX_USART2_UART_Init>
	MX_SPI3_Init();
 8000b7a:	f000 fa39 	bl	8000ff0 <MX_SPI3_Init>
{
Error_Handler();
}*/


	xTaskCreate(Task_Chenillard,"Task_Chenillard", 256, NULL, 1, NULL);
 8000b7e:	2300      	movs	r3, #0
 8000b80:	9301      	str	r3, [sp, #4]
 8000b82:	2301      	movs	r3, #1
 8000b84:	9300      	str	r3, [sp, #0]
 8000b86:	2300      	movs	r3, #0
 8000b88:	f44f 7280 	mov.w	r2, #256	@ 0x100
 8000b8c:	490e      	ldr	r1, [pc, #56]	@ (8000bc8 <main+0x64>)
 8000b8e:	480f      	ldr	r0, [pc, #60]	@ (8000bcc <main+0x68>)
 8000b90:	f004 ffc6 	bl	8005b20 <xTaskCreate>
	xTaskCreate(Task_control_Led,"Task_control_led", 256, NULL, 2, NULL);
 8000b94:	2300      	movs	r3, #0
 8000b96:	9301      	str	r3, [sp, #4]
 8000b98:	2302      	movs	r3, #2
 8000b9a:	9300      	str	r3, [sp, #0]
 8000b9c:	2300      	movs	r3, #0
 8000b9e:	f44f 7280 	mov.w	r2, #256	@ 0x100
 8000ba2:	490b      	ldr	r1, [pc, #44]	@ (8000bd0 <main+0x6c>)
 8000ba4:	480b      	ldr	r0, [pc, #44]	@ (8000bd4 <main+0x70>)
 8000ba6:	f004 ffbb 	bl	8005b20 <xTaskCreate>
	vTaskStartScheduler();
 8000baa:	f005 f93f 	bl	8005e2c <vTaskStartScheduler>
    h_shell.drv.transmit = drv_uart2_transmit;

    shell_init(&h_shell);
    shell_add(&h_shell, 'l', fonction, "loggle LEDs");
    shell_run(&h_shell);*/
	init_MCP23017();
 8000bae:	f7ff fd3b 	bl	8000628 <init_MCP23017>
	LED_Driver_t led_driver;
	LED_Driver_Init(&led_driver);
 8000bb2:	463b      	mov	r3, r7
 8000bb4:	4618      	mov	r0, r3
 8000bb6:	f7ff fd8f 	bl	80006d8 <LED_Driver_Init>


	/* USER CODE END 2 */

	/* Call init function for freertos objects (in cmsis_os2.c) */
	MX_FREERTOS_Init();
 8000bba:	f7ff fec1 	bl	8000940 <MX_FREERTOS_Init>

	/* Start scheduler */
	osKernelStart();
 8000bbe:	f004 fe34 	bl	800582a <osKernelStart>
		/* USER CODE BEGIN 3 */

		//Blink_LEDs();
		//LED_Chenillard();

		led_driver.blink_all();
 8000bc2:	693b      	ldr	r3, [r7, #16]
 8000bc4:	4798      	blx	r3
 8000bc6:	e7fc      	b.n	8000bc2 <main+0x5e>
 8000bc8:	08008000 	.word	0x08008000
 8000bcc:	08000b41 	.word	0x08000b41
 8000bd0:	08008010 	.word	0x08008010
 8000bd4:	08000b15 	.word	0x08000b15

08000bd8 <SystemClock_Config>:
/**
 * @brief System Clock Configuration
 * @retval None
 */
void SystemClock_Config(void)
{
 8000bd8:	b580      	push	{r7, lr}
 8000bda:	b096      	sub	sp, #88	@ 0x58
 8000bdc:	af00      	add	r7, sp, #0
	RCC_OscInitTypeDef RCC_OscInitStruct = {0};
 8000bde:	f107 0314 	add.w	r3, r7, #20
 8000be2:	2244      	movs	r2, #68	@ 0x44
 8000be4:	2100      	movs	r1, #0
 8000be6:	4618      	mov	r0, r3
 8000be8:	f006 fb48 	bl	800727c <memset>
	RCC_ClkInitTypeDef RCC_ClkInitStruct = {0};
 8000bec:	463b      	mov	r3, r7
 8000bee:	2200      	movs	r2, #0
 8000bf0:	601a      	str	r2, [r3, #0]
 8000bf2:	605a      	str	r2, [r3, #4]
 8000bf4:	609a      	str	r2, [r3, #8]
 8000bf6:	60da      	str	r2, [r3, #12]
 8000bf8:	611a      	str	r2, [r3, #16]

	/** Configure the main internal regulator output voltage
	 */
	if (HAL_PWREx_ControlVoltageScaling(PWR_REGULATOR_VOLTAGE_SCALE1) != HAL_OK)
 8000bfa:	f44f 7000 	mov.w	r0, #512	@ 0x200
 8000bfe:	f001 f873 	bl	8001ce8 <HAL_PWREx_ControlVoltageScaling>
 8000c02:	4603      	mov	r3, r0
 8000c04:	2b00      	cmp	r3, #0
 8000c06:	d001      	beq.n	8000c0c <SystemClock_Config+0x34>
	{
		Error_Handler();
 8000c08:	f000 f84a 	bl	8000ca0 <Error_Handler>
	}

	/** Initializes the RCC Oscillators according to the specified parameters
	 * in the RCC_OscInitTypeDef structure.
	 */
	RCC_OscInitStruct.OscillatorType = RCC_OSCILLATORTYPE_HSI;
 8000c0c:	2302      	movs	r3, #2
 8000c0e:	617b      	str	r3, [r7, #20]
	RCC_OscInitStruct.HSIState = RCC_HSI_ON;
 8000c10:	f44f 7380 	mov.w	r3, #256	@ 0x100
 8000c14:	623b      	str	r3, [r7, #32]
	RCC_OscInitStruct.HSICalibrationValue = RCC_HSICALIBRATION_DEFAULT;
 8000c16:	2310      	movs	r3, #16
 8000c18:	627b      	str	r3, [r7, #36]	@ 0x24
	RCC_OscInitStruct.PLL.PLLState = RCC_PLL_ON;
 8000c1a:	2302      	movs	r3, #2
 8000c1c:	63fb      	str	r3, [r7, #60]	@ 0x3c
	RCC_OscInitStruct.PLL.PLLSource = RCC_PLLSOURCE_HSI;
 8000c1e:	2302      	movs	r3, #2
 8000c20:	643b      	str	r3, [r7, #64]	@ 0x40
	RCC_OscInitStruct.PLL.PLLM = 1;
 8000c22:	2301      	movs	r3, #1
 8000c24:	647b      	str	r3, [r7, #68]	@ 0x44
	RCC_OscInitStruct.PLL.PLLN = 10;
 8000c26:	230a      	movs	r3, #10
 8000c28:	64bb      	str	r3, [r7, #72]	@ 0x48
	RCC_OscInitStruct.PLL.PLLP = RCC_PLLP_DIV7;
 8000c2a:	2307      	movs	r3, #7
 8000c2c:	64fb      	str	r3, [r7, #76]	@ 0x4c
	RCC_OscInitStruct.PLL.PLLQ = RCC_PLLQ_DIV2;
 8000c2e:	2302      	movs	r3, #2
 8000c30:	653b      	str	r3, [r7, #80]	@ 0x50
	RCC_OscInitStruct.PLL.PLLR = RCC_PLLR_DIV2;
 8000c32:	2302      	movs	r3, #2
 8000c34:	657b      	str	r3, [r7, #84]	@ 0x54
	if (HAL_RCC_OscConfig(&RCC_OscInitStruct) != HAL_OK)
 8000c36:	f107 0314 	add.w	r3, r7, #20
 8000c3a:	4618      	mov	r0, r3
 8000c3c:	f001 f8aa 	bl	8001d94 <HAL_RCC_OscConfig>
 8000c40:	4603      	mov	r3, r0
 8000c42:	2b00      	cmp	r3, #0
 8000c44:	d001      	beq.n	8000c4a <SystemClock_Config+0x72>
	{
		Error_Handler();
 8000c46:	f000 f82b 	bl	8000ca0 <Error_Handler>
	}

	/** Initializes the CPU, AHB and APB buses clocks
	 */
	RCC_ClkInitStruct.ClockType = RCC_CLOCKTYPE_HCLK|RCC_CLOCKTYPE_SYSCLK
 8000c4a:	230f      	movs	r3, #15
 8000c4c:	603b      	str	r3, [r7, #0]
			|RCC_CLOCKTYPE_PCLK1|RCC_CLOCKTYPE_PCLK2;
	RCC_ClkInitStruct.SYSCLKSource = RCC_SYSCLKSOURCE_PLLCLK;
 8000c4e:	2303      	movs	r3, #3
 8000c50:	607b      	str	r3, [r7, #4]
	RCC_ClkInitStruct.AHBCLKDivider = RCC_SYSCLK_DIV1;
 8000c52:	2300      	movs	r3, #0
 8000c54:	60bb      	str	r3, [r7, #8]
	RCC_ClkInitStruct.APB1CLKDivider = RCC_HCLK_DIV1;
 8000c56:	2300      	movs	r3, #0
 8000c58:	60fb      	str	r3, [r7, #12]
	RCC_ClkInitStruct.APB2CLKDivider = RCC_HCLK_DIV1;
 8000c5a:	2300      	movs	r3, #0
 8000c5c:	613b      	str	r3, [r7, #16]

	if (HAL_RCC_ClockConfig(&RCC_ClkInitStruct, FLASH_LATENCY_4) != HAL_OK)
 8000c5e:	463b      	mov	r3, r7
 8000c60:	2104      	movs	r1, #4
 8000c62:	4618      	mov	r0, r3
 8000c64:	f001 fc72 	bl	800254c <HAL_RCC_ClockConfig>
 8000c68:	4603      	mov	r3, r0
 8000c6a:	2b00      	cmp	r3, #0
 8000c6c:	d001      	beq.n	8000c72 <SystemClock_Config+0x9a>
	{
		Error_Handler();
 8000c6e:	f000 f817 	bl	8000ca0 <Error_Handler>
	}
}
 8000c72:	bf00      	nop
 8000c74:	3758      	adds	r7, #88	@ 0x58
 8000c76:	46bd      	mov	sp, r7
 8000c78:	bd80      	pop	{r7, pc}
	...

08000c7c <HAL_TIM_PeriodElapsedCallback>:
 * a global variable "uwTick" used as application time base.
 * @param htim : TIM handle
 * @retval None
 */
void HAL_TIM_PeriodElapsedCallback(TIM_HandleTypeDef *htim)
{
 8000c7c:	b580      	push	{r7, lr}
 8000c7e:	b082      	sub	sp, #8
 8000c80:	af00      	add	r7, sp, #0
 8000c82:	6078      	str	r0, [r7, #4]
	/* USER CODE BEGIN Callback 0 */

	/* USER CODE END Callback 0 */
	if (htim->Instance == TIM7) {
 8000c84:	687b      	ldr	r3, [r7, #4]
 8000c86:	681b      	ldr	r3, [r3, #0]
 8000c88:	4a04      	ldr	r2, [pc, #16]	@ (8000c9c <HAL_TIM_PeriodElapsedCallback+0x20>)
 8000c8a:	4293      	cmp	r3, r2
 8000c8c:	d101      	bne.n	8000c92 <HAL_TIM_PeriodElapsedCallback+0x16>
		HAL_IncTick();
 8000c8e:	f000 fcb5 	bl	80015fc <HAL_IncTick>
	}
	/* USER CODE BEGIN Callback 1 */

	/* USER CODE END Callback 1 */
}
 8000c92:	bf00      	nop
 8000c94:	3708      	adds	r7, #8
 8000c96:	46bd      	mov	sp, r7
 8000c98:	bd80      	pop	{r7, pc}
 8000c9a:	bf00      	nop
 8000c9c:	40001400 	.word	0x40001400

08000ca0 <Error_Handler>:
/**
 * @brief This function is executed in case of error occurrence.
 * @retval None
 */
void Error_Handler(void)
{
 8000ca0:	b480      	push	{r7}
 8000ca2:	af00      	add	r7, sp, #0
  \details Disables IRQ interrupts by setting the I-bit in the CPSR.
           Can only be executed in Privileged modes.
 */
__STATIC_FORCEINLINE void __disable_irq(void)
{
  __ASM volatile ("cpsid i" : : : "memory");
 8000ca4:	b672      	cpsid	i
}
 8000ca6:	bf00      	nop
	/* USER CODE BEGIN Error_Handler_Debug */
	/* User can add his own implementation to report the HAL error return state */
	__disable_irq();
	while (1)
 8000ca8:	bf00      	nop
 8000caa:	e7fd      	b.n	8000ca8 <Error_Handler+0x8>

08000cac <sh_help>:
 8000cac:	b590      	push	{r4, r7, lr}
 8000cae:	b089      	sub	sp, #36	@ 0x24
 8000cb0:	af02      	add	r7, sp, #8
 8000cb2:	60f8      	str	r0, [r7, #12]
 8000cb4:	60b9      	str	r1, [r7, #8]
 8000cb6:	607a      	str	r2, [r7, #4]
 8000cb8:	2300      	movs	r3, #0
 8000cba:	617b      	str	r3, [r7, #20]
 8000cbc:	e029      	b.n	8000d12 <sh_help+0x66>
 8000cbe:	68fb      	ldr	r3, [r7, #12]
 8000cc0:	f503 7041 	add.w	r0, r3, #772	@ 0x304
 8000cc4:	68f9      	ldr	r1, [r7, #12]
 8000cc6:	697a      	ldr	r2, [r7, #20]
 8000cc8:	4613      	mov	r3, r2
 8000cca:	005b      	lsls	r3, r3, #1
 8000ccc:	4413      	add	r3, r2
 8000cce:	009b      	lsls	r3, r3, #2
 8000cd0:	440b      	add	r3, r1
 8000cd2:	3304      	adds	r3, #4
 8000cd4:	781b      	ldrb	r3, [r3, #0]
 8000cd6:	461c      	mov	r4, r3
 8000cd8:	68f9      	ldr	r1, [r7, #12]
 8000cda:	697a      	ldr	r2, [r7, #20]
 8000cdc:	4613      	mov	r3, r2
 8000cde:	005b      	lsls	r3, r3, #1
 8000ce0:	4413      	add	r3, r2
 8000ce2:	009b      	lsls	r3, r3, #2
 8000ce4:	440b      	add	r3, r1
 8000ce6:	330c      	adds	r3, #12
 8000ce8:	681b      	ldr	r3, [r3, #0]
 8000cea:	9300      	str	r3, [sp, #0]
 8000cec:	4623      	mov	r3, r4
 8000cee:	4a0e      	ldr	r2, [pc, #56]	@ (8000d28 <sh_help+0x7c>)
 8000cf0:	2128      	movs	r1, #40	@ 0x28
 8000cf2:	f006 f9b7 	bl	8007064 <sniprintf>
 8000cf6:	6138      	str	r0, [r7, #16]
 8000cf8:	68fb      	ldr	r3, [r7, #12]
 8000cfa:	f8d3 3354 	ldr.w	r3, [r3, #852]	@ 0x354
 8000cfe:	68fa      	ldr	r2, [r7, #12]
 8000d00:	f502 7241 	add.w	r2, r2, #772	@ 0x304
 8000d04:	6939      	ldr	r1, [r7, #16]
 8000d06:	b289      	uxth	r1, r1
 8000d08:	4610      	mov	r0, r2
 8000d0a:	4798      	blx	r3
 8000d0c:	697b      	ldr	r3, [r7, #20]
 8000d0e:	3301      	adds	r3, #1
 8000d10:	617b      	str	r3, [r7, #20]
 8000d12:	68fb      	ldr	r3, [r7, #12]
 8000d14:	681b      	ldr	r3, [r3, #0]
 8000d16:	697a      	ldr	r2, [r7, #20]
 8000d18:	429a      	cmp	r2, r3
 8000d1a:	dbd0      	blt.n	8000cbe <sh_help+0x12>
 8000d1c:	2300      	movs	r3, #0
 8000d1e:	4618      	mov	r0, r3
 8000d20:	371c      	adds	r7, #28
 8000d22:	46bd      	mov	sp, r7
 8000d24:	bd90      	pop	{r4, r7, pc}
 8000d26:	bf00      	nop
 8000d28:	08008024 	.word	0x08008024

08000d2c <shell_init>:
 8000d2c:	b580      	push	{r7, lr}
 8000d2e:	b084      	sub	sp, #16
 8000d30:	af00      	add	r7, sp, #0
 8000d32:	6078      	str	r0, [r7, #4]
 8000d34:	2300      	movs	r3, #0
 8000d36:	60fb      	str	r3, [r7, #12]
 8000d38:	687b      	ldr	r3, [r7, #4]
 8000d3a:	2200      	movs	r2, #0
 8000d3c:	601a      	str	r2, [r3, #0]
 8000d3e:	687b      	ldr	r3, [r7, #4]
 8000d40:	f503 7341 	add.w	r3, r3, #772	@ 0x304
 8000d44:	4a0c      	ldr	r2, [pc, #48]	@ (8000d78 <shell_init+0x4c>)
 8000d46:	2128      	movs	r1, #40	@ 0x28
 8000d48:	4618      	mov	r0, r3
 8000d4a:	f006 f98b 	bl	8007064 <sniprintf>
 8000d4e:	60f8      	str	r0, [r7, #12]
 8000d50:	687b      	ldr	r3, [r7, #4]
 8000d52:	f8d3 3354 	ldr.w	r3, [r3, #852]	@ 0x354
 8000d56:	687a      	ldr	r2, [r7, #4]
 8000d58:	f502 7241 	add.w	r2, r2, #772	@ 0x304
 8000d5c:	68f9      	ldr	r1, [r7, #12]
 8000d5e:	b289      	uxth	r1, r1
 8000d60:	4610      	mov	r0, r2
 8000d62:	4798      	blx	r3
 8000d64:	4b05      	ldr	r3, [pc, #20]	@ (8000d7c <shell_init+0x50>)
 8000d66:	4a06      	ldr	r2, [pc, #24]	@ (8000d80 <shell_init+0x54>)
 8000d68:	2168      	movs	r1, #104	@ 0x68
 8000d6a:	6878      	ldr	r0, [r7, #4]
 8000d6c:	f000 f80a 	bl	8000d84 <shell_add>
 8000d70:	bf00      	nop
 8000d72:	3710      	adds	r7, #16
 8000d74:	46bd      	mov	sp, r7
 8000d76:	bd80      	pop	{r7, pc}
 8000d78:	08008030 	.word	0x08008030
 8000d7c:	08008058 	.word	0x08008058
 8000d80:	08000cad 	.word	0x08000cad

08000d84 <shell_add>:
 8000d84:	b480      	push	{r7}
 8000d86:	b085      	sub	sp, #20
 8000d88:	af00      	add	r7, sp, #0
 8000d8a:	60f8      	str	r0, [r7, #12]
 8000d8c:	607a      	str	r2, [r7, #4]
 8000d8e:	603b      	str	r3, [r7, #0]
 8000d90:	460b      	mov	r3, r1
 8000d92:	72fb      	strb	r3, [r7, #11]
 8000d94:	68fb      	ldr	r3, [r7, #12]
 8000d96:	681b      	ldr	r3, [r3, #0]
 8000d98:	2b3f      	cmp	r3, #63	@ 0x3f
 8000d9a:	dc27      	bgt.n	8000dec <shell_add+0x68>
 8000d9c:	68fb      	ldr	r3, [r7, #12]
 8000d9e:	681a      	ldr	r2, [r3, #0]
 8000da0:	68f9      	ldr	r1, [r7, #12]
 8000da2:	4613      	mov	r3, r2
 8000da4:	005b      	lsls	r3, r3, #1
 8000da6:	4413      	add	r3, r2
 8000da8:	009b      	lsls	r3, r3, #2
 8000daa:	440b      	add	r3, r1
 8000dac:	3304      	adds	r3, #4
 8000dae:	7afa      	ldrb	r2, [r7, #11]
 8000db0:	701a      	strb	r2, [r3, #0]
 8000db2:	68fb      	ldr	r3, [r7, #12]
 8000db4:	681a      	ldr	r2, [r3, #0]
 8000db6:	68f9      	ldr	r1, [r7, #12]
 8000db8:	4613      	mov	r3, r2
 8000dba:	005b      	lsls	r3, r3, #1
 8000dbc:	4413      	add	r3, r2
 8000dbe:	009b      	lsls	r3, r3, #2
 8000dc0:	440b      	add	r3, r1
 8000dc2:	3308      	adds	r3, #8
 8000dc4:	687a      	ldr	r2, [r7, #4]
 8000dc6:	601a      	str	r2, [r3, #0]
 8000dc8:	68fb      	ldr	r3, [r7, #12]
 8000dca:	681a      	ldr	r2, [r3, #0]
 8000dcc:	68f9      	ldr	r1, [r7, #12]
 8000dce:	4613      	mov	r3, r2
 8000dd0:	005b      	lsls	r3, r3, #1
 8000dd2:	4413      	add	r3, r2
 8000dd4:	009b      	lsls	r3, r3, #2
 8000dd6:	440b      	add	r3, r1
 8000dd8:	330c      	adds	r3, #12
 8000dda:	683a      	ldr	r2, [r7, #0]
 8000ddc:	601a      	str	r2, [r3, #0]
 8000dde:	68fb      	ldr	r3, [r7, #12]
 8000de0:	681b      	ldr	r3, [r3, #0]
 8000de2:	1c5a      	adds	r2, r3, #1
 8000de4:	68fb      	ldr	r3, [r7, #12]
 8000de6:	601a      	str	r2, [r3, #0]
 8000de8:	2300      	movs	r3, #0
 8000dea:	e001      	b.n	8000df0 <shell_add+0x6c>
 8000dec:	f04f 33ff 	mov.w	r3, #4294967295
 8000df0:	4618      	mov	r0, r3
 8000df2:	3714      	adds	r7, #20
 8000df4:	46bd      	mov	sp, r7
 8000df6:	f85d 7b04 	ldr.w	r7, [sp], #4
 8000dfa:	4770      	bx	lr

08000dfc <shell_exec>:
 8000dfc:	b580      	push	{r7, lr}
 8000dfe:	b090      	sub	sp, #64	@ 0x40
 8000e00:	af00      	add	r7, sp, #0
 8000e02:	6078      	str	r0, [r7, #4]
 8000e04:	6039      	str	r1, [r7, #0]
 8000e06:	683b      	ldr	r3, [r7, #0]
 8000e08:	781b      	ldrb	r3, [r3, #0]
 8000e0a:	f887 3033 	strb.w	r3, [r7, #51]	@ 0x33
 8000e0e:	2300      	movs	r3, #0
 8000e10:	63fb      	str	r3, [r7, #60]	@ 0x3c
 8000e12:	e041      	b.n	8000e98 <shell_exec+0x9c>
 8000e14:	6879      	ldr	r1, [r7, #4]
 8000e16:	6bfa      	ldr	r2, [r7, #60]	@ 0x3c
 8000e18:	4613      	mov	r3, r2
 8000e1a:	005b      	lsls	r3, r3, #1
 8000e1c:	4413      	add	r3, r2
 8000e1e:	009b      	lsls	r3, r3, #2
 8000e20:	440b      	add	r3, r1
 8000e22:	3304      	adds	r3, #4
 8000e24:	781b      	ldrb	r3, [r3, #0]
 8000e26:	f897 2033 	ldrb.w	r2, [r7, #51]	@ 0x33
 8000e2a:	429a      	cmp	r2, r3
 8000e2c:	d131      	bne.n	8000e92 <shell_exec+0x96>
 8000e2e:	2301      	movs	r3, #1
 8000e30:	63bb      	str	r3, [r7, #56]	@ 0x38
 8000e32:	683b      	ldr	r3, [r7, #0]
 8000e34:	60fb      	str	r3, [r7, #12]
 8000e36:	683b      	ldr	r3, [r7, #0]
 8000e38:	637b      	str	r3, [r7, #52]	@ 0x34
 8000e3a:	e013      	b.n	8000e64 <shell_exec+0x68>
 8000e3c:	6b7b      	ldr	r3, [r7, #52]	@ 0x34
 8000e3e:	781b      	ldrb	r3, [r3, #0]
 8000e40:	2b20      	cmp	r3, #32
 8000e42:	d10c      	bne.n	8000e5e <shell_exec+0x62>
 8000e44:	6b7b      	ldr	r3, [r7, #52]	@ 0x34
 8000e46:	2200      	movs	r2, #0
 8000e48:	701a      	strb	r2, [r3, #0]
 8000e4a:	6bbb      	ldr	r3, [r7, #56]	@ 0x38
 8000e4c:	1c5a      	adds	r2, r3, #1
 8000e4e:	63ba      	str	r2, [r7, #56]	@ 0x38
 8000e50:	6b7a      	ldr	r2, [r7, #52]	@ 0x34
 8000e52:	3201      	adds	r2, #1
 8000e54:	009b      	lsls	r3, r3, #2
 8000e56:	3340      	adds	r3, #64	@ 0x40
 8000e58:	443b      	add	r3, r7
 8000e5a:	f843 2c34 	str.w	r2, [r3, #-52]
 8000e5e:	6b7b      	ldr	r3, [r7, #52]	@ 0x34
 8000e60:	3301      	adds	r3, #1
 8000e62:	637b      	str	r3, [r7, #52]	@ 0x34
 8000e64:	6b7b      	ldr	r3, [r7, #52]	@ 0x34
 8000e66:	781b      	ldrb	r3, [r3, #0]
 8000e68:	2b00      	cmp	r3, #0
 8000e6a:	d002      	beq.n	8000e72 <shell_exec+0x76>
 8000e6c:	6bbb      	ldr	r3, [r7, #56]	@ 0x38
 8000e6e:	2b07      	cmp	r3, #7
 8000e70:	dde4      	ble.n	8000e3c <shell_exec+0x40>
 8000e72:	6879      	ldr	r1, [r7, #4]
 8000e74:	6bfa      	ldr	r2, [r7, #60]	@ 0x3c
 8000e76:	4613      	mov	r3, r2
 8000e78:	005b      	lsls	r3, r3, #1
 8000e7a:	4413      	add	r3, r2
 8000e7c:	009b      	lsls	r3, r3, #2
 8000e7e:	440b      	add	r3, r1
 8000e80:	3308      	adds	r3, #8
 8000e82:	681b      	ldr	r3, [r3, #0]
 8000e84:	f107 020c 	add.w	r2, r7, #12
 8000e88:	6bb9      	ldr	r1, [r7, #56]	@ 0x38
 8000e8a:	6878      	ldr	r0, [r7, #4]
 8000e8c:	4798      	blx	r3
 8000e8e:	4603      	mov	r3, r0
 8000e90:	e01d      	b.n	8000ece <shell_exec+0xd2>
 8000e92:	6bfb      	ldr	r3, [r7, #60]	@ 0x3c
 8000e94:	3301      	adds	r3, #1
 8000e96:	63fb      	str	r3, [r7, #60]	@ 0x3c
 8000e98:	687b      	ldr	r3, [r7, #4]
 8000e9a:	681b      	ldr	r3, [r3, #0]
 8000e9c:	6bfa      	ldr	r2, [r7, #60]	@ 0x3c
 8000e9e:	429a      	cmp	r2, r3
 8000ea0:	dbb8      	blt.n	8000e14 <shell_exec+0x18>
 8000ea2:	687b      	ldr	r3, [r7, #4]
 8000ea4:	f503 7041 	add.w	r0, r3, #772	@ 0x304
 8000ea8:	f897 3033 	ldrb.w	r3, [r7, #51]	@ 0x33
 8000eac:	4a0a      	ldr	r2, [pc, #40]	@ (8000ed8 <shell_exec+0xdc>)
 8000eae:	2128      	movs	r1, #40	@ 0x28
 8000eb0:	f006 f8d8 	bl	8007064 <sniprintf>
 8000eb4:	62f8      	str	r0, [r7, #44]	@ 0x2c
 8000eb6:	687b      	ldr	r3, [r7, #4]
 8000eb8:	f8d3 3354 	ldr.w	r3, [r3, #852]	@ 0x354
 8000ebc:	687a      	ldr	r2, [r7, #4]
 8000ebe:	f502 7241 	add.w	r2, r2, #772	@ 0x304
 8000ec2:	6af9      	ldr	r1, [r7, #44]	@ 0x2c
 8000ec4:	b289      	uxth	r1, r1
 8000ec6:	4610      	mov	r0, r2
 8000ec8:	4798      	blx	r3
 8000eca:	f04f 33ff 	mov.w	r3, #4294967295
 8000ece:	4618      	mov	r0, r3
 8000ed0:	3740      	adds	r7, #64	@ 0x40
 8000ed2:	46bd      	mov	sp, r7
 8000ed4:	bd80      	pop	{r7, pc}
 8000ed6:	bf00      	nop
 8000ed8:	08008060 	.word	0x08008060

08000edc <shell_run>:
 8000edc:	b580      	push	{r7, lr}
 8000ede:	b086      	sub	sp, #24
 8000ee0:	af00      	add	r7, sp, #0
 8000ee2:	6078      	str	r0, [r7, #4]
 8000ee4:	2300      	movs	r3, #0
 8000ee6:	617b      	str	r3, [r7, #20]
 8000ee8:	2300      	movs	r3, #0
 8000eea:	613b      	str	r3, [r7, #16]
 8000eec:	687b      	ldr	r3, [r7, #4]
 8000eee:	f8d3 3354 	ldr.w	r3, [r3, #852]	@ 0x354
 8000ef2:	2102      	movs	r1, #2
 8000ef4:	483a      	ldr	r0, [pc, #232]	@ (8000fe0 <shell_run+0x104>)
 8000ef6:	4798      	blx	r3
 8000ef8:	2301      	movs	r3, #1
 8000efa:	617b      	str	r3, [r7, #20]
 8000efc:	e064      	b.n	8000fc8 <shell_run+0xec>
 8000efe:	687b      	ldr	r3, [r7, #4]
 8000f00:	f8d3 3358 	ldr.w	r3, [r3, #856]	@ 0x358
 8000f04:	f107 020b 	add.w	r2, r7, #11
 8000f08:	2101      	movs	r1, #1
 8000f0a:	4610      	mov	r0, r2
 8000f0c:	4798      	blx	r3
 8000f0e:	7afb      	ldrb	r3, [r7, #11]
 8000f10:	2b08      	cmp	r3, #8
 8000f12:	d036      	beq.n	8000f82 <shell_run+0xa6>
 8000f14:	2b0d      	cmp	r3, #13
 8000f16:	d141      	bne.n	8000f9c <shell_run+0xc0>
 8000f18:	687b      	ldr	r3, [r7, #4]
 8000f1a:	f503 7341 	add.w	r3, r3, #772	@ 0x304
 8000f1e:	4a31      	ldr	r2, [pc, #196]	@ (8000fe4 <shell_run+0x108>)
 8000f20:	2128      	movs	r1, #40	@ 0x28
 8000f22:	4618      	mov	r0, r3
 8000f24:	f006 f89e 	bl	8007064 <sniprintf>
 8000f28:	60f8      	str	r0, [r7, #12]
 8000f2a:	687b      	ldr	r3, [r7, #4]
 8000f2c:	f8d3 3354 	ldr.w	r3, [r3, #852]	@ 0x354
 8000f30:	687a      	ldr	r2, [r7, #4]
 8000f32:	f502 7241 	add.w	r2, r2, #772	@ 0x304
 8000f36:	68f9      	ldr	r1, [r7, #12]
 8000f38:	b289      	uxth	r1, r1
 8000f3a:	4610      	mov	r0, r2
 8000f3c:	4798      	blx	r3
 8000f3e:	693b      	ldr	r3, [r7, #16]
 8000f40:	1c5a      	adds	r2, r3, #1
 8000f42:	613a      	str	r2, [r7, #16]
 8000f44:	687a      	ldr	r2, [r7, #4]
 8000f46:	4413      	add	r3, r2
 8000f48:	2200      	movs	r2, #0
 8000f4a:	f883 232c 	strb.w	r2, [r3, #812]	@ 0x32c
 8000f4e:	687b      	ldr	r3, [r7, #4]
 8000f50:	f503 7041 	add.w	r0, r3, #772	@ 0x304
 8000f54:	687b      	ldr	r3, [r7, #4]
 8000f56:	f503 734b 	add.w	r3, r3, #812	@ 0x32c
 8000f5a:	4a23      	ldr	r2, [pc, #140]	@ (8000fe8 <shell_run+0x10c>)
 8000f5c:	2128      	movs	r1, #40	@ 0x28
 8000f5e:	f006 f881 	bl	8007064 <sniprintf>
 8000f62:	60f8      	str	r0, [r7, #12]
 8000f64:	687b      	ldr	r3, [r7, #4]
 8000f66:	f8d3 3354 	ldr.w	r3, [r3, #852]	@ 0x354
 8000f6a:	687a      	ldr	r2, [r7, #4]
 8000f6c:	f502 7241 	add.w	r2, r2, #772	@ 0x304
 8000f70:	68f9      	ldr	r1, [r7, #12]
 8000f72:	b289      	uxth	r1, r1
 8000f74:	4610      	mov	r0, r2
 8000f76:	4798      	blx	r3
 8000f78:	2300      	movs	r3, #0
 8000f7a:	617b      	str	r3, [r7, #20]
 8000f7c:	2300      	movs	r3, #0
 8000f7e:	613b      	str	r3, [r7, #16]
 8000f80:	e022      	b.n	8000fc8 <shell_run+0xec>
 8000f82:	693b      	ldr	r3, [r7, #16]
 8000f84:	2b00      	cmp	r3, #0
 8000f86:	dd1e      	ble.n	8000fc6 <shell_run+0xea>
 8000f88:	693b      	ldr	r3, [r7, #16]
 8000f8a:	3b01      	subs	r3, #1
 8000f8c:	613b      	str	r3, [r7, #16]
 8000f8e:	687b      	ldr	r3, [r7, #4]
 8000f90:	f8d3 3354 	ldr.w	r3, [r3, #852]	@ 0x354
 8000f94:	2103      	movs	r1, #3
 8000f96:	4815      	ldr	r0, [pc, #84]	@ (8000fec <shell_run+0x110>)
 8000f98:	4798      	blx	r3
 8000f9a:	e014      	b.n	8000fc6 <shell_run+0xea>
 8000f9c:	693b      	ldr	r3, [r7, #16]
 8000f9e:	2b27      	cmp	r3, #39	@ 0x27
 8000fa0:	dc12      	bgt.n	8000fc8 <shell_run+0xec>
 8000fa2:	687b      	ldr	r3, [r7, #4]
 8000fa4:	f8d3 3354 	ldr.w	r3, [r3, #852]	@ 0x354
 8000fa8:	f107 020b 	add.w	r2, r7, #11
 8000fac:	2101      	movs	r1, #1
 8000fae:	4610      	mov	r0, r2
 8000fb0:	4798      	blx	r3
 8000fb2:	693b      	ldr	r3, [r7, #16]
 8000fb4:	1c5a      	adds	r2, r3, #1
 8000fb6:	613a      	str	r2, [r7, #16]
 8000fb8:	7af9      	ldrb	r1, [r7, #11]
 8000fba:	687a      	ldr	r2, [r7, #4]
 8000fbc:	4413      	add	r3, r2
 8000fbe:	460a      	mov	r2, r1
 8000fc0:	f883 232c 	strb.w	r2, [r3, #812]	@ 0x32c
 8000fc4:	e000      	b.n	8000fc8 <shell_run+0xec>
 8000fc6:	bf00      	nop
 8000fc8:	697b      	ldr	r3, [r7, #20]
 8000fca:	2b00      	cmp	r3, #0
 8000fcc:	d197      	bne.n	8000efe <shell_run+0x22>
 8000fce:	687b      	ldr	r3, [r7, #4]
 8000fd0:	f503 734b 	add.w	r3, r3, #812	@ 0x32c
 8000fd4:	4619      	mov	r1, r3
 8000fd6:	6878      	ldr	r0, [r7, #4]
 8000fd8:	f7ff ff10 	bl	8000dfc <shell_exec>
 8000fdc:	e786      	b.n	8000eec <shell_run+0x10>
 8000fde:	bf00      	nop
 8000fe0:	08008090 	.word	0x08008090
 8000fe4:	08008078 	.word	0x08008078
 8000fe8:	0800807c 	.word	0x0800807c
 8000fec:	0800808c 	.word	0x0800808c

08000ff0 <MX_SPI3_Init>:
 8000ff0:	b580      	push	{r7, lr}
 8000ff2:	af00      	add	r7, sp, #0
 8000ff4:	4b1b      	ldr	r3, [pc, #108]	@ (8001064 <MX_SPI3_Init+0x74>)
 8000ff6:	4a1c      	ldr	r2, [pc, #112]	@ (8001068 <MX_SPI3_Init+0x78>)
 8000ff8:	601a      	str	r2, [r3, #0]
 8000ffa:	4b1a      	ldr	r3, [pc, #104]	@ (8001064 <MX_SPI3_Init+0x74>)
 8000ffc:	f44f 7282 	mov.w	r2, #260	@ 0x104
 8001000:	605a      	str	r2, [r3, #4]
 8001002:	4b18      	ldr	r3, [pc, #96]	@ (8001064 <MX_SPI3_Init+0x74>)
 8001004:	2200      	movs	r2, #0
 8001006:	609a      	str	r2, [r3, #8]
 8001008:	4b16      	ldr	r3, [pc, #88]	@ (8001064 <MX_SPI3_Init+0x74>)
 800100a:	f44f 62e0 	mov.w	r2, #1792	@ 0x700
 800100e:	60da      	str	r2, [r3, #12]
 8001010:	4b14      	ldr	r3, [pc, #80]	@ (8001064 <MX_SPI3_Init+0x74>)
 8001012:	2200      	movs	r2, #0
 8001014:	611a      	str	r2, [r3, #16]
 8001016:	4b13      	ldr	r3, [pc, #76]	@ (8001064 <MX_SPI3_Init+0x74>)
 8001018:	2200      	movs	r2, #0
 800101a:	615a      	str	r2, [r3, #20]
 800101c:	4b11      	ldr	r3, [pc, #68]	@ (8001064 <MX_SPI3_Init+0x74>)
 800101e:	f44f 7200 	mov.w	r2, #512	@ 0x200
 8001022:	619a      	str	r2, [r3, #24]
 8001024:	4b0f      	ldr	r3, [pc, #60]	@ (8001064 <MX_SPI3_Init+0x74>)
 8001026:	2200      	movs	r2, #0
 8001028:	61da      	str	r2, [r3, #28]
 800102a:	4b0e      	ldr	r3, [pc, #56]	@ (8001064 <MX_SPI3_Init+0x74>)
 800102c:	2200      	movs	r2, #0
 800102e:	621a      	str	r2, [r3, #32]
 8001030:	4b0c      	ldr	r3, [pc, #48]	@ (8001064 <MX_SPI3_Init+0x74>)
 8001032:	2200      	movs	r2, #0
 8001034:	625a      	str	r2, [r3, #36]	@ 0x24
 8001036:	4b0b      	ldr	r3, [pc, #44]	@ (8001064 <MX_SPI3_Init+0x74>)
 8001038:	2200      	movs	r2, #0
 800103a:	629a      	str	r2, [r3, #40]	@ 0x28
 800103c:	4b09      	ldr	r3, [pc, #36]	@ (8001064 <MX_SPI3_Init+0x74>)
 800103e:	2207      	movs	r2, #7
 8001040:	62da      	str	r2, [r3, #44]	@ 0x2c
 8001042:	4b08      	ldr	r3, [pc, #32]	@ (8001064 <MX_SPI3_Init+0x74>)
 8001044:	2200      	movs	r2, #0
 8001046:	631a      	str	r2, [r3, #48]	@ 0x30
 8001048:	4b06      	ldr	r3, [pc, #24]	@ (8001064 <MX_SPI3_Init+0x74>)
 800104a:	2208      	movs	r2, #8
 800104c:	635a      	str	r2, [r3, #52]	@ 0x34
 800104e:	4805      	ldr	r0, [pc, #20]	@ (8001064 <MX_SPI3_Init+0x74>)
 8001050:	f002 f98e 	bl	8003370 <HAL_SPI_Init>
 8001054:	4603      	mov	r3, r0
 8001056:	2b00      	cmp	r3, #0
 8001058:	d001      	beq.n	800105e <MX_SPI3_Init+0x6e>
 800105a:	f7ff fe21 	bl	8000ca0 <Error_Handler>
 800105e:	bf00      	nop
 8001060:	bd80      	pop	{r7, pc}
 8001062:	bf00      	nop
 8001064:	200006a0 	.word	0x200006a0
 8001068:	40003c00 	.word	0x40003c00

0800106c <HAL_SPI_MspInit>:
 800106c:	b580      	push	{r7, lr}
 800106e:	b08a      	sub	sp, #40	@ 0x28
 8001070:	af00      	add	r7, sp, #0
 8001072:	6078      	str	r0, [r7, #4]
 8001074:	f107 0314 	add.w	r3, r7, #20
 8001078:	2200      	movs	r2, #0
 800107a:	601a      	str	r2, [r3, #0]
 800107c:	605a      	str	r2, [r3, #4]
 800107e:	609a      	str	r2, [r3, #8]
 8001080:	60da      	str	r2, [r3, #12]
 8001082:	611a      	str	r2, [r3, #16]
 8001084:	687b      	ldr	r3, [r7, #4]
 8001086:	681b      	ldr	r3, [r3, #0]
 8001088:	4a25      	ldr	r2, [pc, #148]	@ (8001120 <HAL_SPI_MspInit+0xb4>)
 800108a:	4293      	cmp	r3, r2
 800108c:	d144      	bne.n	8001118 <HAL_SPI_MspInit+0xac>
 800108e:	4b25      	ldr	r3, [pc, #148]	@ (8001124 <HAL_SPI_MspInit+0xb8>)
 8001090:	6d9b      	ldr	r3, [r3, #88]	@ 0x58
 8001092:	4a24      	ldr	r2, [pc, #144]	@ (8001124 <HAL_SPI_MspInit+0xb8>)
 8001094:	f443 4300 	orr.w	r3, r3, #32768	@ 0x8000
 8001098:	6593      	str	r3, [r2, #88]	@ 0x58
 800109a:	4b22      	ldr	r3, [pc, #136]	@ (8001124 <HAL_SPI_MspInit+0xb8>)
 800109c:	6d9b      	ldr	r3, [r3, #88]	@ 0x58
 800109e:	f403 4300 	and.w	r3, r3, #32768	@ 0x8000
 80010a2:	613b      	str	r3, [r7, #16]
 80010a4:	693b      	ldr	r3, [r7, #16]
 80010a6:	4b1f      	ldr	r3, [pc, #124]	@ (8001124 <HAL_SPI_MspInit+0xb8>)
 80010a8:	6cdb      	ldr	r3, [r3, #76]	@ 0x4c
 80010aa:	4a1e      	ldr	r2, [pc, #120]	@ (8001124 <HAL_SPI_MspInit+0xb8>)
 80010ac:	f043 0304 	orr.w	r3, r3, #4
 80010b0:	64d3      	str	r3, [r2, #76]	@ 0x4c
 80010b2:	4b1c      	ldr	r3, [pc, #112]	@ (8001124 <HAL_SPI_MspInit+0xb8>)
 80010b4:	6cdb      	ldr	r3, [r3, #76]	@ 0x4c
 80010b6:	f003 0304 	and.w	r3, r3, #4
 80010ba:	60fb      	str	r3, [r7, #12]
 80010bc:	68fb      	ldr	r3, [r7, #12]
 80010be:	4b19      	ldr	r3, [pc, #100]	@ (8001124 <HAL_SPI_MspInit+0xb8>)
 80010c0:	6cdb      	ldr	r3, [r3, #76]	@ 0x4c
 80010c2:	4a18      	ldr	r2, [pc, #96]	@ (8001124 <HAL_SPI_MspInit+0xb8>)
 80010c4:	f043 0302 	orr.w	r3, r3, #2
 80010c8:	64d3      	str	r3, [r2, #76]	@ 0x4c
 80010ca:	4b16      	ldr	r3, [pc, #88]	@ (8001124 <HAL_SPI_MspInit+0xb8>)
 80010cc:	6cdb      	ldr	r3, [r3, #76]	@ 0x4c
 80010ce:	f003 0302 	and.w	r3, r3, #2
 80010d2:	60bb      	str	r3, [r7, #8]
 80010d4:	68bb      	ldr	r3, [r7, #8]
 80010d6:	f44f 6340 	mov.w	r3, #3072	@ 0xc00
 80010da:	617b      	str	r3, [r7, #20]
 80010dc:	2302      	movs	r3, #2
 80010de:	61bb      	str	r3, [r7, #24]
 80010e0:	2300      	movs	r3, #0
 80010e2:	61fb      	str	r3, [r7, #28]
 80010e4:	2303      	movs	r3, #3
 80010e6:	623b      	str	r3, [r7, #32]
 80010e8:	2306      	movs	r3, #6
 80010ea:	627b      	str	r3, [r7, #36]	@ 0x24
 80010ec:	f107 0314 	add.w	r3, r7, #20
 80010f0:	4619      	mov	r1, r3
 80010f2:	480d      	ldr	r0, [pc, #52]	@ (8001128 <HAL_SPI_MspInit+0xbc>)
 80010f4:	f000 fc28 	bl	8001948 <HAL_GPIO_Init>
 80010f8:	2320      	movs	r3, #32
 80010fa:	617b      	str	r3, [r7, #20]
 80010fc:	2302      	movs	r3, #2
 80010fe:	61bb      	str	r3, [r7, #24]
 8001100:	2300      	movs	r3, #0
 8001102:	61fb      	str	r3, [r7, #28]
 8001104:	2303      	movs	r3, #3
 8001106:	623b      	str	r3, [r7, #32]
 8001108:	2306      	movs	r3, #6
 800110a:	627b      	str	r3, [r7, #36]	@ 0x24
 800110c:	f107 0314 	add.w	r3, r7, #20
 8001110:	4619      	mov	r1, r3
 8001112:	4806      	ldr	r0, [pc, #24]	@ (800112c <HAL_SPI_MspInit+0xc0>)
 8001114:	f000 fc18 	bl	8001948 <HAL_GPIO_Init>
 8001118:	bf00      	nop
 800111a:	3728      	adds	r7, #40	@ 0x28
 800111c:	46bd      	mov	sp, r7
 800111e:	bd80      	pop	{r7, pc}
 8001120:	40003c00 	.word	0x40003c00
 8001124:	40021000 	.word	0x40021000
 8001128:	48000800 	.word	0x48000800
 800112c:	48000400 	.word	0x48000400

08001130 <HAL_MspInit>:
 8001130:	b580      	push	{r7, lr}
 8001132:	b082      	sub	sp, #8
 8001134:	af00      	add	r7, sp, #0
 8001136:	4b11      	ldr	r3, [pc, #68]	@ (800117c <HAL_MspInit+0x4c>)
 8001138:	6e1b      	ldr	r3, [r3, #96]	@ 0x60
 800113a:	4a10      	ldr	r2, [pc, #64]	@ (800117c <HAL_MspInit+0x4c>)
 800113c:	f043 0301 	orr.w	r3, r3, #1
 8001140:	6613      	str	r3, [r2, #96]	@ 0x60
 8001142:	4b0e      	ldr	r3, [pc, #56]	@ (800117c <HAL_MspInit+0x4c>)
 8001144:	6e1b      	ldr	r3, [r3, #96]	@ 0x60
 8001146:	f003 0301 	and.w	r3, r3, #1
 800114a:	607b      	str	r3, [r7, #4]
 800114c:	687b      	ldr	r3, [r7, #4]
 800114e:	4b0b      	ldr	r3, [pc, #44]	@ (800117c <HAL_MspInit+0x4c>)
 8001150:	6d9b      	ldr	r3, [r3, #88]	@ 0x58
 8001152:	4a0a      	ldr	r2, [pc, #40]	@ (800117c <HAL_MspInit+0x4c>)
 8001154:	f043 5380 	orr.w	r3, r3, #268435456	@ 0x10000000
 8001158:	6593      	str	r3, [r2, #88]	@ 0x58
 800115a:	4b08      	ldr	r3, [pc, #32]	@ (800117c <HAL_MspInit+0x4c>)
 800115c:	6d9b      	ldr	r3, [r3, #88]	@ 0x58
 800115e:	f003 5380 	and.w	r3, r3, #268435456	@ 0x10000000
 8001162:	603b      	str	r3, [r7, #0]
 8001164:	683b      	ldr	r3, [r7, #0]
 8001166:	2200      	movs	r2, #0
 8001168:	210f      	movs	r1, #15
 800116a:	f06f 0001 	mvn.w	r0, #1
 800116e:	f000 fb41 	bl	80017f4 <HAL_NVIC_SetPriority>
 8001172:	bf00      	nop
 8001174:	3708      	adds	r7, #8
 8001176:	46bd      	mov	sp, r7
 8001178:	bd80      	pop	{r7, pc}
 800117a:	bf00      	nop
 800117c:	40021000 	.word	0x40021000

08001180 <HAL_InitTick>:
 8001180:	b580      	push	{r7, lr}
 8001182:	b08e      	sub	sp, #56	@ 0x38
 8001184:	af00      	add	r7, sp, #0
 8001186:	6078      	str	r0, [r7, #4]
 8001188:	2300      	movs	r3, #0
 800118a:	f887 3033 	strb.w	r3, [r7, #51]	@ 0x33
 800118e:	4b34      	ldr	r3, [pc, #208]	@ (8001260 <HAL_InitTick+0xe0>)
 8001190:	6d9b      	ldr	r3, [r3, #88]	@ 0x58
 8001192:	4a33      	ldr	r2, [pc, #204]	@ (8001260 <HAL_InitTick+0xe0>)
 8001194:	f043 0320 	orr.w	r3, r3, #32
 8001198:	6593      	str	r3, [r2, #88]	@ 0x58
 800119a:	4b31      	ldr	r3, [pc, #196]	@ (8001260 <HAL_InitTick+0xe0>)
 800119c:	6d9b      	ldr	r3, [r3, #88]	@ 0x58
 800119e:	f003 0320 	and.w	r3, r3, #32
 80011a2:	60fb      	str	r3, [r7, #12]
 80011a4:	68fb      	ldr	r3, [r7, #12]
 80011a6:	f107 0210 	add.w	r2, r7, #16
 80011aa:	f107 0314 	add.w	r3, r7, #20
 80011ae:	4611      	mov	r1, r2
 80011b0:	4618      	mov	r0, r3
 80011b2:	f001 fb8f 	bl	80028d4 <HAL_RCC_GetClockConfig>
 80011b6:	6a3b      	ldr	r3, [r7, #32]
 80011b8:	62fb      	str	r3, [r7, #44]	@ 0x2c
 80011ba:	6afb      	ldr	r3, [r7, #44]	@ 0x2c
 80011bc:	2b00      	cmp	r3, #0
 80011be:	d103      	bne.n	80011c8 <HAL_InitTick+0x48>
 80011c0:	f001 fb5c 	bl	800287c <HAL_RCC_GetPCLK1Freq>
 80011c4:	6378      	str	r0, [r7, #52]	@ 0x34
 80011c6:	e004      	b.n	80011d2 <HAL_InitTick+0x52>
 80011c8:	f001 fb58 	bl	800287c <HAL_RCC_GetPCLK1Freq>
 80011cc:	4603      	mov	r3, r0
 80011ce:	005b      	lsls	r3, r3, #1
 80011d0:	637b      	str	r3, [r7, #52]	@ 0x34
 80011d2:	6b7b      	ldr	r3, [r7, #52]	@ 0x34
 80011d4:	4a23      	ldr	r2, [pc, #140]	@ (8001264 <HAL_InitTick+0xe4>)
 80011d6:	fba2 2303 	umull	r2, r3, r2, r3
 80011da:	0c9b      	lsrs	r3, r3, #18
 80011dc:	3b01      	subs	r3, #1
 80011de:	62bb      	str	r3, [r7, #40]	@ 0x28
 80011e0:	4b21      	ldr	r3, [pc, #132]	@ (8001268 <HAL_InitTick+0xe8>)
 80011e2:	4a22      	ldr	r2, [pc, #136]	@ (800126c <HAL_InitTick+0xec>)
 80011e4:	601a      	str	r2, [r3, #0]
 80011e6:	4b20      	ldr	r3, [pc, #128]	@ (8001268 <HAL_InitTick+0xe8>)
 80011e8:	f240 32e7 	movw	r2, #999	@ 0x3e7
 80011ec:	60da      	str	r2, [r3, #12]
 80011ee:	4a1e      	ldr	r2, [pc, #120]	@ (8001268 <HAL_InitTick+0xe8>)
 80011f0:	6abb      	ldr	r3, [r7, #40]	@ 0x28
 80011f2:	6053      	str	r3, [r2, #4]
 80011f4:	4b1c      	ldr	r3, [pc, #112]	@ (8001268 <HAL_InitTick+0xe8>)
 80011f6:	2200      	movs	r2, #0
 80011f8:	611a      	str	r2, [r3, #16]
 80011fa:	4b1b      	ldr	r3, [pc, #108]	@ (8001268 <HAL_InitTick+0xe8>)
 80011fc:	2200      	movs	r2, #0
 80011fe:	609a      	str	r2, [r3, #8]
 8001200:	4b19      	ldr	r3, [pc, #100]	@ (8001268 <HAL_InitTick+0xe8>)
 8001202:	2200      	movs	r2, #0
 8001204:	619a      	str	r2, [r3, #24]
 8001206:	4818      	ldr	r0, [pc, #96]	@ (8001268 <HAL_InitTick+0xe8>)
 8001208:	f002 fe4e 	bl	8003ea8 <HAL_TIM_Base_Init>
 800120c:	4603      	mov	r3, r0
 800120e:	f887 3033 	strb.w	r3, [r7, #51]	@ 0x33
 8001212:	f897 3033 	ldrb.w	r3, [r7, #51]	@ 0x33
 8001216:	2b00      	cmp	r3, #0
 8001218:	d11b      	bne.n	8001252 <HAL_InitTick+0xd2>
 800121a:	4813      	ldr	r0, [pc, #76]	@ (8001268 <HAL_InitTick+0xe8>)
 800121c:	f002 fea6 	bl	8003f6c <HAL_TIM_Base_Start_IT>
 8001220:	4603      	mov	r3, r0
 8001222:	f887 3033 	strb.w	r3, [r7, #51]	@ 0x33
 8001226:	f897 3033 	ldrb.w	r3, [r7, #51]	@ 0x33
 800122a:	2b00      	cmp	r3, #0
 800122c:	d111      	bne.n	8001252 <HAL_InitTick+0xd2>
 800122e:	2037      	movs	r0, #55	@ 0x37
 8001230:	f000 fafc 	bl	800182c <HAL_NVIC_EnableIRQ>
 8001234:	687b      	ldr	r3, [r7, #4]
 8001236:	2b0f      	cmp	r3, #15
 8001238:	d808      	bhi.n	800124c <HAL_InitTick+0xcc>
 800123a:	2200      	movs	r2, #0
 800123c:	6879      	ldr	r1, [r7, #4]
 800123e:	2037      	movs	r0, #55	@ 0x37
 8001240:	f000 fad8 	bl	80017f4 <HAL_NVIC_SetPriority>
 8001244:	4a0a      	ldr	r2, [pc, #40]	@ (8001270 <HAL_InitTick+0xf0>)
 8001246:	687b      	ldr	r3, [r7, #4]
 8001248:	6013      	str	r3, [r2, #0]
 800124a:	e002      	b.n	8001252 <HAL_InitTick+0xd2>
 800124c:	2301      	movs	r3, #1
 800124e:	f887 3033 	strb.w	r3, [r7, #51]	@ 0x33
 8001252:	f897 3033 	ldrb.w	r3, [r7, #51]	@ 0x33
 8001256:	4618      	mov	r0, r3
 8001258:	3738      	adds	r7, #56	@ 0x38
 800125a:	46bd      	mov	sp, r7
 800125c:	bd80      	pop	{r7, pc}
 800125e:	bf00      	nop
 8001260:	40021000 	.word	0x40021000
 8001264:	431bde83 	.word	0x431bde83
 8001268:	20000704 	.word	0x20000704
 800126c:	40001400 	.word	0x40001400
 8001270:	20000004 	.word	0x20000004

08001274 <NMI_Handler>:
 8001274:	b480      	push	{r7}
 8001276:	af00      	add	r7, sp, #0
 8001278:	bf00      	nop
 800127a:	e7fd      	b.n	8001278 <NMI_Handler+0x4>

0800127c <HardFault_Handler>:
 800127c:	b480      	push	{r7}
 800127e:	af00      	add	r7, sp, #0
 8001280:	bf00      	nop
 8001282:	e7fd      	b.n	8001280 <HardFault_Handler+0x4>

08001284 <MemManage_Handler>:
 8001284:	b480      	push	{r7}
 8001286:	af00      	add	r7, sp, #0
 8001288:	bf00      	nop
 800128a:	e7fd      	b.n	8001288 <MemManage_Handler+0x4>

0800128c <BusFault_Handler>:
 800128c:	b480      	push	{r7}
 800128e:	af00      	add	r7, sp, #0
 8001290:	bf00      	nop
 8001292:	e7fd      	b.n	8001290 <BusFault_Handler+0x4>

08001294 <UsageFault_Handler>:
 8001294:	b480      	push	{r7}
 8001296:	af00      	add	r7, sp, #0
 8001298:	bf00      	nop
 800129a:	e7fd      	b.n	8001298 <UsageFault_Handler+0x4>

0800129c <DebugMon_Handler>:
 800129c:	b480      	push	{r7}
 800129e:	af00      	add	r7, sp, #0
 80012a0:	bf00      	nop
 80012a2:	46bd      	mov	sp, r7
 80012a4:	f85d 7b04 	ldr.w	r7, [sp], #4
 80012a8:	4770      	bx	lr
	...

080012ac <USART2_IRQHandler>:
 80012ac:	b580      	push	{r7, lr}
 80012ae:	af00      	add	r7, sp, #0
 80012b0:	4802      	ldr	r0, [pc, #8]	@ (80012bc <USART2_IRQHandler+0x10>)
 80012b2:	f003 fa5f 	bl	8004774 <HAL_UART_IRQHandler>
 80012b6:	bf00      	nop
 80012b8:	bd80      	pop	{r7, pc}
 80012ba:	bf00      	nop
 80012bc:	20000754 	.word	0x20000754

080012c0 <TIM7_IRQHandler>:
 80012c0:	b580      	push	{r7, lr}
 80012c2:	af00      	add	r7, sp, #0
 80012c4:	4802      	ldr	r0, [pc, #8]	@ (80012d0 <TIM7_IRQHandler+0x10>)
 80012c6:	f002 fec1 	bl	800404c <HAL_TIM_IRQHandler>
 80012ca:	bf00      	nop
 80012cc:	bd80      	pop	{r7, pc}
 80012ce:	bf00      	nop
 80012d0:	20000704 	.word	0x20000704

080012d4 <_read>:
 80012d4:	b580      	push	{r7, lr}
 80012d6:	b086      	sub	sp, #24
 80012d8:	af00      	add	r7, sp, #0
 80012da:	60f8      	str	r0, [r7, #12]
 80012dc:	60b9      	str	r1, [r7, #8]
 80012de:	607a      	str	r2, [r7, #4]
 80012e0:	2300      	movs	r3, #0
 80012e2:	617b      	str	r3, [r7, #20]
 80012e4:	e00a      	b.n	80012fc <_read+0x28>
 80012e6:	f3af 8000 	nop.w
 80012ea:	4601      	mov	r1, r0
 80012ec:	68bb      	ldr	r3, [r7, #8]
 80012ee:	1c5a      	adds	r2, r3, #1
 80012f0:	60ba      	str	r2, [r7, #8]
 80012f2:	b2ca      	uxtb	r2, r1
 80012f4:	701a      	strb	r2, [r3, #0]
 80012f6:	697b      	ldr	r3, [r7, #20]
 80012f8:	3301      	adds	r3, #1
 80012fa:	617b      	str	r3, [r7, #20]
 80012fc:	697a      	ldr	r2, [r7, #20]
 80012fe:	687b      	ldr	r3, [r7, #4]
 8001300:	429a      	cmp	r2, r3
 8001302:	dbf0      	blt.n	80012e6 <_read+0x12>
 8001304:	687b      	ldr	r3, [r7, #4]
 8001306:	4618      	mov	r0, r3
 8001308:	3718      	adds	r7, #24
 800130a:	46bd      	mov	sp, r7
 800130c:	bd80      	pop	{r7, pc}

0800130e <_write>:
 800130e:	b580      	push	{r7, lr}
 8001310:	b086      	sub	sp, #24
 8001312:	af00      	add	r7, sp, #0
 8001314:	60f8      	str	r0, [r7, #12]
 8001316:	60b9      	str	r1, [r7, #8]
 8001318:	607a      	str	r2, [r7, #4]
 800131a:	2300      	movs	r3, #0
 800131c:	617b      	str	r3, [r7, #20]
 800131e:	e009      	b.n	8001334 <_write+0x26>
 8001320:	68bb      	ldr	r3, [r7, #8]
 8001322:	1c5a      	adds	r2, r3, #1
 8001324:	60ba      	str	r2, [r7, #8]
 8001326:	781b      	ldrb	r3, [r3, #0]
 8001328:	4618      	mov	r0, r3
 800132a:	f7ff fbaf 	bl	8000a8c <__io_putchar>
 800132e:	697b      	ldr	r3, [r7, #20]
 8001330:	3301      	adds	r3, #1
 8001332:	617b      	str	r3, [r7, #20]
 8001334:	697a      	ldr	r2, [r7, #20]
 8001336:	687b      	ldr	r3, [r7, #4]
 8001338:	429a      	cmp	r2, r3
 800133a:	dbf1      	blt.n	8001320 <_write+0x12>
 800133c:	687b      	ldr	r3, [r7, #4]
 800133e:	4618      	mov	r0, r3
 8001340:	3718      	adds	r7, #24
 8001342:	46bd      	mov	sp, r7
 8001344:	bd80      	pop	{r7, pc}

08001346 <_close>:
 8001346:	b480      	push	{r7}
 8001348:	b083      	sub	sp, #12
 800134a:	af00      	add	r7, sp, #0
 800134c:	6078      	str	r0, [r7, #4]
 800134e:	f04f 33ff 	mov.w	r3, #4294967295
 8001352:	4618      	mov	r0, r3
 8001354:	370c      	adds	r7, #12
 8001356:	46bd      	mov	sp, r7
 8001358:	f85d 7b04 	ldr.w	r7, [sp], #4
 800135c:	4770      	bx	lr

0800135e <_fstat>:
 800135e:	b480      	push	{r7}
 8001360:	b083      	sub	sp, #12
 8001362:	af00      	add	r7, sp, #0
 8001364:	6078      	str	r0, [r7, #4]
 8001366:	6039      	str	r1, [r7, #0]
 8001368:	683b      	ldr	r3, [r7, #0]
 800136a:	f44f 5200 	mov.w	r2, #8192	@ 0x2000
 800136e:	605a      	str	r2, [r3, #4]
 8001370:	2300      	movs	r3, #0
 8001372:	4618      	mov	r0, r3
 8001374:	370c      	adds	r7, #12
 8001376:	46bd      	mov	sp, r7
 8001378:	f85d 7b04 	ldr.w	r7, [sp], #4
 800137c:	4770      	bx	lr

0800137e <_isatty>:
 800137e:	b480      	push	{r7}
 8001380:	b083      	sub	sp, #12
 8001382:	af00      	add	r7, sp, #0
 8001384:	6078      	str	r0, [r7, #4]
 8001386:	2301      	movs	r3, #1
 8001388:	4618      	mov	r0, r3
 800138a:	370c      	adds	r7, #12
 800138c:	46bd      	mov	sp, r7
 800138e:	f85d 7b04 	ldr.w	r7, [sp], #4
 8001392:	4770      	bx	lr

08001394 <_lseek>:
 8001394:	b480      	push	{r7}
 8001396:	b085      	sub	sp, #20
 8001398:	af00      	add	r7, sp, #0
 800139a:	60f8      	str	r0, [r7, #12]
 800139c:	60b9      	str	r1, [r7, #8]
 800139e:	607a      	str	r2, [r7, #4]
 80013a0:	2300      	movs	r3, #0
 80013a2:	4618      	mov	r0, r3
 80013a4:	3714      	adds	r7, #20
 80013a6:	46bd      	mov	sp, r7
 80013a8:	f85d 7b04 	ldr.w	r7, [sp], #4
 80013ac:	4770      	bx	lr
	...

080013b0 <_sbrk>:
 80013b0:	b580      	push	{r7, lr}
 80013b2:	b086      	sub	sp, #24
 80013b4:	af00      	add	r7, sp, #0
 80013b6:	6078      	str	r0, [r7, #4]
 80013b8:	4a14      	ldr	r2, [pc, #80]	@ (800140c <_sbrk+0x5c>)
 80013ba:	4b15      	ldr	r3, [pc, #84]	@ (8001410 <_sbrk+0x60>)
 80013bc:	1ad3      	subs	r3, r2, r3
 80013be:	617b      	str	r3, [r7, #20]
 80013c0:	697b      	ldr	r3, [r7, #20]
 80013c2:	613b      	str	r3, [r7, #16]
 80013c4:	4b13      	ldr	r3, [pc, #76]	@ (8001414 <_sbrk+0x64>)
 80013c6:	681b      	ldr	r3, [r3, #0]
 80013c8:	2b00      	cmp	r3, #0
 80013ca:	d102      	bne.n	80013d2 <_sbrk+0x22>
 80013cc:	4b11      	ldr	r3, [pc, #68]	@ (8001414 <_sbrk+0x64>)
 80013ce:	4a12      	ldr	r2, [pc, #72]	@ (8001418 <_sbrk+0x68>)
 80013d0:	601a      	str	r2, [r3, #0]
 80013d2:	4b10      	ldr	r3, [pc, #64]	@ (8001414 <_sbrk+0x64>)
 80013d4:	681a      	ldr	r2, [r3, #0]
 80013d6:	687b      	ldr	r3, [r7, #4]
 80013d8:	4413      	add	r3, r2
 80013da:	693a      	ldr	r2, [r7, #16]
 80013dc:	429a      	cmp	r2, r3
 80013de:	d207      	bcs.n	80013f0 <_sbrk+0x40>
 80013e0:	f005 fff0 	bl	80073c4 <__errno>
 80013e4:	4603      	mov	r3, r0
 80013e6:	220c      	movs	r2, #12
 80013e8:	601a      	str	r2, [r3, #0]
 80013ea:	f04f 33ff 	mov.w	r3, #4294967295
 80013ee:	e009      	b.n	8001404 <_sbrk+0x54>
 80013f0:	4b08      	ldr	r3, [pc, #32]	@ (8001414 <_sbrk+0x64>)
 80013f2:	681b      	ldr	r3, [r3, #0]
 80013f4:	60fb      	str	r3, [r7, #12]
 80013f6:	4b07      	ldr	r3, [pc, #28]	@ (8001414 <_sbrk+0x64>)
 80013f8:	681a      	ldr	r2, [r3, #0]
 80013fa:	687b      	ldr	r3, [r7, #4]
 80013fc:	4413      	add	r3, r2
 80013fe:	4a05      	ldr	r2, [pc, #20]	@ (8001414 <_sbrk+0x64>)
 8001400:	6013      	str	r3, [r2, #0]
 8001402:	68fb      	ldr	r3, [r7, #12]
 8001404:	4618      	mov	r0, r3
 8001406:	3718      	adds	r7, #24
 8001408:	46bd      	mov	sp, r7
 800140a:	bd80      	pop	{r7, pc}
 800140c:	20018000 	.word	0x20018000
 8001410:	00000400 	.word	0x00000400
 8001414:	20000750 	.word	0x20000750
 8001418:	20001638 	.word	0x20001638

0800141c <SystemInit>:
 800141c:	b480      	push	{r7}
 800141e:	af00      	add	r7, sp, #0
 8001420:	4b06      	ldr	r3, [pc, #24]	@ (800143c <SystemInit+0x20>)
 8001422:	f8d3 3088 	ldr.w	r3, [r3, #136]	@ 0x88
 8001426:	4a05      	ldr	r2, [pc, #20]	@ (800143c <SystemInit+0x20>)
 8001428:	f443 0370 	orr.w	r3, r3, #15728640	@ 0xf00000
 800142c:	f8c2 3088 	str.w	r3, [r2, #136]	@ 0x88
 8001430:	bf00      	nop
 8001432:	46bd      	mov	sp, r7
 8001434:	f85d 7b04 	ldr.w	r7, [sp], #4
 8001438:	4770      	bx	lr
 800143a:	bf00      	nop
 800143c:	e000ed00 	.word	0xe000ed00

08001440 <MX_USART2_UART_Init>:
 8001440:	b580      	push	{r7, lr}
 8001442:	af00      	add	r7, sp, #0
 8001444:	4b14      	ldr	r3, [pc, #80]	@ (8001498 <MX_USART2_UART_Init+0x58>)
 8001446:	4a15      	ldr	r2, [pc, #84]	@ (800149c <MX_USART2_UART_Init+0x5c>)
 8001448:	601a      	str	r2, [r3, #0]
 800144a:	4b13      	ldr	r3, [pc, #76]	@ (8001498 <MX_USART2_UART_Init+0x58>)
 800144c:	f44f 32e1 	mov.w	r2, #115200	@ 0x1c200
 8001450:	605a      	str	r2, [r3, #4]
 8001452:	4b11      	ldr	r3, [pc, #68]	@ (8001498 <MX_USART2_UART_Init+0x58>)
 8001454:	2200      	movs	r2, #0
 8001456:	609a      	str	r2, [r3, #8]
 8001458:	4b0f      	ldr	r3, [pc, #60]	@ (8001498 <MX_USART2_UART_Init+0x58>)
 800145a:	2200      	movs	r2, #0
 800145c:	60da      	str	r2, [r3, #12]
 800145e:	4b0e      	ldr	r3, [pc, #56]	@ (8001498 <MX_USART2_UART_Init+0x58>)
 8001460:	2200      	movs	r2, #0
 8001462:	611a      	str	r2, [r3, #16]
 8001464:	4b0c      	ldr	r3, [pc, #48]	@ (8001498 <MX_USART2_UART_Init+0x58>)
 8001466:	220c      	movs	r2, #12
 8001468:	615a      	str	r2, [r3, #20]
 800146a:	4b0b      	ldr	r3, [pc, #44]	@ (8001498 <MX_USART2_UART_Init+0x58>)
 800146c:	2200      	movs	r2, #0
 800146e:	619a      	str	r2, [r3, #24]
 8001470:	4b09      	ldr	r3, [pc, #36]	@ (8001498 <MX_USART2_UART_Init+0x58>)
 8001472:	2200      	movs	r2, #0
 8001474:	61da      	str	r2, [r3, #28]
 8001476:	4b08      	ldr	r3, [pc, #32]	@ (8001498 <MX_USART2_UART_Init+0x58>)
 8001478:	2200      	movs	r2, #0
 800147a:	621a      	str	r2, [r3, #32]
 800147c:	4b06      	ldr	r3, [pc, #24]	@ (8001498 <MX_USART2_UART_Init+0x58>)
 800147e:	2200      	movs	r2, #0
 8001480:	625a      	str	r2, [r3, #36]	@ 0x24
 8001482:	4805      	ldr	r0, [pc, #20]	@ (8001498 <MX_USART2_UART_Init+0x58>)
 8001484:	f002 ffd6 	bl	8004434 <HAL_UART_Init>
 8001488:	4603      	mov	r3, r0
 800148a:	2b00      	cmp	r3, #0
 800148c:	d001      	beq.n	8001492 <MX_USART2_UART_Init+0x52>
 800148e:	f7ff fc07 	bl	8000ca0 <Error_Handler>
 8001492:	bf00      	nop
 8001494:	bd80      	pop	{r7, pc}
 8001496:	bf00      	nop
 8001498:	20000754 	.word	0x20000754
 800149c:	40004400 	.word	0x40004400

080014a0 <HAL_UART_MspInit>:
 80014a0:	b580      	push	{r7, lr}
 80014a2:	b0ac      	sub	sp, #176	@ 0xb0
 80014a4:	af00      	add	r7, sp, #0
 80014a6:	6078      	str	r0, [r7, #4]
 80014a8:	f107 039c 	add.w	r3, r7, #156	@ 0x9c
 80014ac:	2200      	movs	r2, #0
 80014ae:	601a      	str	r2, [r3, #0]
 80014b0:	605a      	str	r2, [r3, #4]
 80014b2:	609a      	str	r2, [r3, #8]
 80014b4:	60da      	str	r2, [r3, #12]
 80014b6:	611a      	str	r2, [r3, #16]
 80014b8:	f107 0314 	add.w	r3, r7, #20
 80014bc:	2288      	movs	r2, #136	@ 0x88
 80014be:	2100      	movs	r1, #0
 80014c0:	4618      	mov	r0, r3
 80014c2:	f005 fedb 	bl	800727c <memset>
 80014c6:	687b      	ldr	r3, [r7, #4]
 80014c8:	681b      	ldr	r3, [r3, #0]
 80014ca:	4a25      	ldr	r2, [pc, #148]	@ (8001560 <HAL_UART_MspInit+0xc0>)
 80014cc:	4293      	cmp	r3, r2
 80014ce:	d143      	bne.n	8001558 <HAL_UART_MspInit+0xb8>
 80014d0:	2302      	movs	r3, #2
 80014d2:	617b      	str	r3, [r7, #20]
 80014d4:	2300      	movs	r3, #0
 80014d6:	653b      	str	r3, [r7, #80]	@ 0x50
 80014d8:	f107 0314 	add.w	r3, r7, #20
 80014dc:	4618      	mov	r0, r3
 80014de:	f001 fa8b 	bl	80029f8 <HAL_RCCEx_PeriphCLKConfig>
 80014e2:	4603      	mov	r3, r0
 80014e4:	2b00      	cmp	r3, #0
 80014e6:	d001      	beq.n	80014ec <HAL_UART_MspInit+0x4c>
 80014e8:	f7ff fbda 	bl	8000ca0 <Error_Handler>
 80014ec:	4b1d      	ldr	r3, [pc, #116]	@ (8001564 <HAL_UART_MspInit+0xc4>)
 80014ee:	6d9b      	ldr	r3, [r3, #88]	@ 0x58
 80014f0:	4a1c      	ldr	r2, [pc, #112]	@ (8001564 <HAL_UART_MspInit+0xc4>)
 80014f2:	f443 3300 	orr.w	r3, r3, #131072	@ 0x20000
 80014f6:	6593      	str	r3, [r2, #88]	@ 0x58
 80014f8:	4b1a      	ldr	r3, [pc, #104]	@ (8001564 <HAL_UART_MspInit+0xc4>)
 80014fa:	6d9b      	ldr	r3, [r3, #88]	@ 0x58
 80014fc:	f403 3300 	and.w	r3, r3, #131072	@ 0x20000
 8001500:	613b      	str	r3, [r7, #16]
 8001502:	693b      	ldr	r3, [r7, #16]
 8001504:	4b17      	ldr	r3, [pc, #92]	@ (8001564 <HAL_UART_MspInit+0xc4>)
 8001506:	6cdb      	ldr	r3, [r3, #76]	@ 0x4c
 8001508:	4a16      	ldr	r2, [pc, #88]	@ (8001564 <HAL_UART_MspInit+0xc4>)
 800150a:	f043 0301 	orr.w	r3, r3, #1
 800150e:	64d3      	str	r3, [r2, #76]	@ 0x4c
 8001510:	4b14      	ldr	r3, [pc, #80]	@ (8001564 <HAL_UART_MspInit+0xc4>)
 8001512:	6cdb      	ldr	r3, [r3, #76]	@ 0x4c
 8001514:	f003 0301 	and.w	r3, r3, #1
 8001518:	60fb      	str	r3, [r7, #12]
 800151a:	68fb      	ldr	r3, [r7, #12]
 800151c:	230c      	movs	r3, #12
 800151e:	f8c7 309c 	str.w	r3, [r7, #156]	@ 0x9c
 8001522:	2302      	movs	r3, #2
 8001524:	f8c7 30a0 	str.w	r3, [r7, #160]	@ 0xa0
 8001528:	2300      	movs	r3, #0
 800152a:	f8c7 30a4 	str.w	r3, [r7, #164]	@ 0xa4
 800152e:	2303      	movs	r3, #3
 8001530:	f8c7 30a8 	str.w	r3, [r7, #168]	@ 0xa8
 8001534:	2307      	movs	r3, #7
 8001536:	f8c7 30ac 	str.w	r3, [r7, #172]	@ 0xac
 800153a:	f107 039c 	add.w	r3, r7, #156	@ 0x9c
 800153e:	4619      	mov	r1, r3
 8001540:	f04f 4090 	mov.w	r0, #1207959552	@ 0x48000000
 8001544:	f000 fa00 	bl	8001948 <HAL_GPIO_Init>
 8001548:	2200      	movs	r2, #0
 800154a:	2105      	movs	r1, #5
 800154c:	2026      	movs	r0, #38	@ 0x26
 800154e:	f000 f951 	bl	80017f4 <HAL_NVIC_SetPriority>
 8001552:	2026      	movs	r0, #38	@ 0x26
 8001554:	f000 f96a 	bl	800182c <HAL_NVIC_EnableIRQ>
 8001558:	bf00      	nop
 800155a:	37b0      	adds	r7, #176	@ 0xb0
 800155c:	46bd      	mov	sp, r7
 800155e:	bd80      	pop	{r7, pc}
 8001560:	40004400 	.word	0x40004400
 8001564:	40021000 	.word	0x40021000

08001568 <Reset_Handler>:
 8001568:	f8df d034 	ldr.w	sp, [pc, #52]	@ 80015a0 <LoopForever+0x2>
 800156c:	f7ff ff56 	bl	800141c <SystemInit>
 8001570:	480c      	ldr	r0, [pc, #48]	@ (80015a4 <LoopForever+0x6>)
 8001572:	490d      	ldr	r1, [pc, #52]	@ (80015a8 <LoopForever+0xa>)
 8001574:	4a0d      	ldr	r2, [pc, #52]	@ (80015ac <LoopForever+0xe>)
 8001576:	2300      	movs	r3, #0
 8001578:	e002      	b.n	8001580 <LoopCopyDataInit>

0800157a <CopyDataInit>:
 800157a:	58d4      	ldr	r4, [r2, r3]
 800157c:	50c4      	str	r4, [r0, r3]
 800157e:	3304      	adds	r3, #4

08001580 <LoopCopyDataInit>:
 8001580:	18c4      	adds	r4, r0, r3
 8001582:	428c      	cmp	r4, r1
 8001584:	d3f9      	bcc.n	800157a <CopyDataInit>
 8001586:	4a0a      	ldr	r2, [pc, #40]	@ (80015b0 <LoopForever+0x12>)
 8001588:	4c0a      	ldr	r4, [pc, #40]	@ (80015b4 <LoopForever+0x16>)
 800158a:	2300      	movs	r3, #0
 800158c:	e001      	b.n	8001592 <LoopFillZerobss>

0800158e <FillZerobss>:
 800158e:	6013      	str	r3, [r2, #0]
 8001590:	3204      	adds	r2, #4

08001592 <LoopFillZerobss>:
 8001592:	42a2      	cmp	r2, r4
 8001594:	d3fb      	bcc.n	800158e <FillZerobss>
 8001596:	f005 ff1b 	bl	80073d0 <__libc_init_array>
 800159a:	f7ff fae3 	bl	8000b64 <main>

0800159e <LoopForever>:
 800159e:	e7fe      	b.n	800159e <LoopForever>
 80015a0:	20018000 	.word	0x20018000
 80015a4:	20000000 	.word	0x20000000
 80015a8:	2000006c 	.word	0x2000006c
 80015ac:	08008220 	.word	0x08008220
 80015b0:	2000006c 	.word	0x2000006c
 80015b4:	20001638 	.word	0x20001638

080015b8 <ADC1_2_IRQHandler>:
 80015b8:	e7fe      	b.n	80015b8 <ADC1_2_IRQHandler>
	...

080015bc <HAL_Init>:
 80015bc:	b580      	push	{r7, lr}
 80015be:	b082      	sub	sp, #8
 80015c0:	af00      	add	r7, sp, #0
 80015c2:	2300      	movs	r3, #0
 80015c4:	71fb      	strb	r3, [r7, #7]
 80015c6:	4b0c      	ldr	r3, [pc, #48]	@ (80015f8 <HAL_Init+0x3c>)
 80015c8:	681b      	ldr	r3, [r3, #0]
 80015ca:	4a0b      	ldr	r2, [pc, #44]	@ (80015f8 <HAL_Init+0x3c>)
 80015cc:	f443 7380 	orr.w	r3, r3, #256	@ 0x100
 80015d0:	6013      	str	r3, [r2, #0]
 80015d2:	2003      	movs	r0, #3
 80015d4:	f000 f903 	bl	80017de <HAL_NVIC_SetPriorityGrouping>
 80015d8:	200f      	movs	r0, #15
 80015da:	f7ff fdd1 	bl	8001180 <HAL_InitTick>
 80015de:	4603      	mov	r3, r0
 80015e0:	2b00      	cmp	r3, #0
 80015e2:	d002      	beq.n	80015ea <HAL_Init+0x2e>
 80015e4:	2301      	movs	r3, #1
 80015e6:	71fb      	strb	r3, [r7, #7]
 80015e8:	e001      	b.n	80015ee <HAL_Init+0x32>
 80015ea:	f7ff fda1 	bl	8001130 <HAL_MspInit>
 80015ee:	79fb      	ldrb	r3, [r7, #7]
 80015f0:	4618      	mov	r0, r3
 80015f2:	3708      	adds	r7, #8
 80015f4:	46bd      	mov	sp, r7
 80015f6:	bd80      	pop	{r7, pc}
 80015f8:	40022000 	.word	0x40022000

080015fc <HAL_IncTick>:
 80015fc:	b480      	push	{r7}
 80015fe:	af00      	add	r7, sp, #0
 8001600:	4b06      	ldr	r3, [pc, #24]	@ (800161c <HAL_IncTick+0x20>)
 8001602:	781b      	ldrb	r3, [r3, #0]
 8001604:	461a      	mov	r2, r3
 8001606:	4b06      	ldr	r3, [pc, #24]	@ (8001620 <HAL_IncTick+0x24>)
 8001608:	681b      	ldr	r3, [r3, #0]
 800160a:	4413      	add	r3, r2
 800160c:	4a04      	ldr	r2, [pc, #16]	@ (8001620 <HAL_IncTick+0x24>)
 800160e:	6013      	str	r3, [r2, #0]
 8001610:	bf00      	nop
 8001612:	46bd      	mov	sp, r7
 8001614:	f85d 7b04 	ldr.w	r7, [sp], #4
 8001618:	4770      	bx	lr
 800161a:	bf00      	nop
 800161c:	20000008 	.word	0x20000008
 8001620:	200007dc 	.word	0x200007dc

08001624 <HAL_GetTick>:
 8001624:	b480      	push	{r7}
 8001626:	af00      	add	r7, sp, #0
 8001628:	4b03      	ldr	r3, [pc, #12]	@ (8001638 <HAL_GetTick+0x14>)
 800162a:	681b      	ldr	r3, [r3, #0]
 800162c:	4618      	mov	r0, r3
 800162e:	46bd      	mov	sp, r7
 8001630:	f85d 7b04 	ldr.w	r7, [sp], #4
 8001634:	4770      	bx	lr
 8001636:	bf00      	nop
 8001638:	200007dc 	.word	0x200007dc

0800163c <HAL_Delay>:
 800163c:	b580      	push	{r7, lr}
 800163e:	b084      	sub	sp, #16
 8001640:	af00      	add	r7, sp, #0
 8001642:	6078      	str	r0, [r7, #4]
 8001644:	f7ff ffee 	bl	8001624 <HAL_GetTick>
 8001648:	60b8      	str	r0, [r7, #8]
 800164a:	687b      	ldr	r3, [r7, #4]
 800164c:	60fb      	str	r3, [r7, #12]
 800164e:	68fb      	ldr	r3, [r7, #12]
 8001650:	f1b3 3fff 	cmp.w	r3, #4294967295
 8001654:	d005      	beq.n	8001662 <HAL_Delay+0x26>
 8001656:	4b0a      	ldr	r3, [pc, #40]	@ (8001680 <HAL_Delay+0x44>)
 8001658:	781b      	ldrb	r3, [r3, #0]
 800165a:	461a      	mov	r2, r3
 800165c:	68fb      	ldr	r3, [r7, #12]
 800165e:	4413      	add	r3, r2
 8001660:	60fb      	str	r3, [r7, #12]
 8001662:	bf00      	nop
 8001664:	f7ff ffde 	bl	8001624 <HAL_GetTick>
 8001668:	4602      	mov	r2, r0
 800166a:	68bb      	ldr	r3, [r7, #8]
 800166c:	1ad3      	subs	r3, r2, r3
 800166e:	68fa      	ldr	r2, [r7, #12]
 8001670:	429a      	cmp	r2, r3
 8001672:	d8f7      	bhi.n	8001664 <HAL_Delay+0x28>
 8001674:	bf00      	nop
 8001676:	bf00      	nop
 8001678:	3710      	adds	r7, #16
 800167a:	46bd      	mov	sp, r7
 800167c:	bd80      	pop	{r7, pc}
 800167e:	bf00      	nop
 8001680:	20000008 	.word	0x20000008

08001684 <__NVIC_SetPriorityGrouping>:
 8001684:	b480      	push	{r7}
 8001686:	b085      	sub	sp, #20
 8001688:	af00      	add	r7, sp, #0
 800168a:	6078      	str	r0, [r7, #4]
 800168c:	687b      	ldr	r3, [r7, #4]
 800168e:	f003 0307 	and.w	r3, r3, #7
 8001692:	60fb      	str	r3, [r7, #12]
 8001694:	4b0c      	ldr	r3, [pc, #48]	@ (80016c8 <__NVIC_SetPriorityGrouping+0x44>)
 8001696:	68db      	ldr	r3, [r3, #12]
 8001698:	60bb      	str	r3, [r7, #8]
 800169a:	68ba      	ldr	r2, [r7, #8]
 800169c:	f64f 03ff 	movw	r3, #63743	@ 0xf8ff
 80016a0:	4013      	ands	r3, r2
 80016a2:	60bb      	str	r3, [r7, #8]
 80016a4:	68fb      	ldr	r3, [r7, #12]
 80016a6:	021a      	lsls	r2, r3, #8
 80016a8:	68bb      	ldr	r3, [r7, #8]
 80016aa:	4313      	orrs	r3, r2
 80016ac:	f043 63bf 	orr.w	r3, r3, #100139008	@ 0x5f80000
 80016b0:	f443 3300 	orr.w	r3, r3, #131072	@ 0x20000
 80016b4:	60bb      	str	r3, [r7, #8]
 80016b6:	4a04      	ldr	r2, [pc, #16]	@ (80016c8 <__NVIC_SetPriorityGrouping+0x44>)
 80016b8:	68bb      	ldr	r3, [r7, #8]
 80016ba:	60d3      	str	r3, [r2, #12]
 80016bc:	bf00      	nop
 80016be:	3714      	adds	r7, #20
 80016c0:	46bd      	mov	sp, r7
 80016c2:	f85d 7b04 	ldr.w	r7, [sp], #4
 80016c6:	4770      	bx	lr
 80016c8:	e000ed00 	.word	0xe000ed00

080016cc <__NVIC_GetPriorityGrouping>:
 80016cc:	b480      	push	{r7}
 80016ce:	af00      	add	r7, sp, #0
 80016d0:	4b04      	ldr	r3, [pc, #16]	@ (80016e4 <__NVIC_GetPriorityGrouping+0x18>)
 80016d2:	68db      	ldr	r3, [r3, #12]
 80016d4:	0a1b      	lsrs	r3, r3, #8
 80016d6:	f003 0307 	and.w	r3, r3, #7
 80016da:	4618      	mov	r0, r3
 80016dc:	46bd      	mov	sp, r7
 80016de:	f85d 7b04 	ldr.w	r7, [sp], #4
 80016e2:	4770      	bx	lr
 80016e4:	e000ed00 	.word	0xe000ed00

080016e8 <__NVIC_EnableIRQ>:
 80016e8:	b480      	push	{r7}
 80016ea:	b083      	sub	sp, #12
 80016ec:	af00      	add	r7, sp, #0
 80016ee:	4603      	mov	r3, r0
 80016f0:	71fb      	strb	r3, [r7, #7]
 80016f2:	f997 3007 	ldrsb.w	r3, [r7, #7]
 80016f6:	2b00      	cmp	r3, #0
 80016f8:	db0b      	blt.n	8001712 <__NVIC_EnableIRQ+0x2a>
 80016fa:	79fb      	ldrb	r3, [r7, #7]
 80016fc:	f003 021f 	and.w	r2, r3, #31
 8001700:	4907      	ldr	r1, [pc, #28]	@ (8001720 <__NVIC_EnableIRQ+0x38>)
 8001702:	f997 3007 	ldrsb.w	r3, [r7, #7]
 8001706:	095b      	lsrs	r3, r3, #5
 8001708:	2001      	movs	r0, #1
 800170a:	fa00 f202 	lsl.w	r2, r0, r2
 800170e:	f841 2023 	str.w	r2, [r1, r3, lsl #2]
 8001712:	bf00      	nop
 8001714:	370c      	adds	r7, #12
 8001716:	46bd      	mov	sp, r7
 8001718:	f85d 7b04 	ldr.w	r7, [sp], #4
 800171c:	4770      	bx	lr
 800171e:	bf00      	nop
 8001720:	e000e100 	.word	0xe000e100

08001724 <__NVIC_SetPriority>:
 8001724:	b480      	push	{r7}
 8001726:	b083      	sub	sp, #12
 8001728:	af00      	add	r7, sp, #0
 800172a:	4603      	mov	r3, r0
 800172c:	6039      	str	r1, [r7, #0]
 800172e:	71fb      	strb	r3, [r7, #7]
 8001730:	f997 3007 	ldrsb.w	r3, [r7, #7]
 8001734:	2b00      	cmp	r3, #0
 8001736:	db0a      	blt.n	800174e <__NVIC_SetPriority+0x2a>
 8001738:	683b      	ldr	r3, [r7, #0]
 800173a:	b2da      	uxtb	r2, r3
 800173c:	490c      	ldr	r1, [pc, #48]	@ (8001770 <__NVIC_SetPriority+0x4c>)
 800173e:	f997 3007 	ldrsb.w	r3, [r7, #7]
 8001742:	0112      	lsls	r2, r2, #4
 8001744:	b2d2      	uxtb	r2, r2
 8001746:	440b      	add	r3, r1
 8001748:	f883 2300 	strb.w	r2, [r3, #768]	@ 0x300
 800174c:	e00a      	b.n	8001764 <__NVIC_SetPriority+0x40>
 800174e:	683b      	ldr	r3, [r7, #0]
 8001750:	b2da      	uxtb	r2, r3
 8001752:	4908      	ldr	r1, [pc, #32]	@ (8001774 <__NVIC_SetPriority+0x50>)
 8001754:	79fb      	ldrb	r3, [r7, #7]
 8001756:	f003 030f 	and.w	r3, r3, #15
 800175a:	3b04      	subs	r3, #4
 800175c:	0112      	lsls	r2, r2, #4
 800175e:	b2d2      	uxtb	r2, r2
 8001760:	440b      	add	r3, r1
 8001762:	761a      	strb	r2, [r3, #24]
 8001764:	bf00      	nop
 8001766:	370c      	adds	r7, #12
 8001768:	46bd      	mov	sp, r7
 800176a:	f85d 7b04 	ldr.w	r7, [sp], #4
 800176e:	4770      	bx	lr
 8001770:	e000e100 	.word	0xe000e100
 8001774:	e000ed00 	.word	0xe000ed00

08001778 <NVIC_EncodePriority>:
 8001778:	b480      	push	{r7}
 800177a:	b089      	sub	sp, #36	@ 0x24
 800177c:	af00      	add	r7, sp, #0
 800177e:	60f8      	str	r0, [r7, #12]
 8001780:	60b9      	str	r1, [r7, #8]
 8001782:	607a      	str	r2, [r7, #4]
 8001784:	68fb      	ldr	r3, [r7, #12]
 8001786:	f003 0307 	and.w	r3, r3, #7
 800178a:	61fb      	str	r3, [r7, #28]
 800178c:	69fb      	ldr	r3, [r7, #28]
 800178e:	f1c3 0307 	rsb	r3, r3, #7
 8001792:	2b04      	cmp	r3, #4
 8001794:	bf28      	it	cs
 8001796:	2304      	movcs	r3, #4
 8001798:	61bb      	str	r3, [r7, #24]
 800179a:	69fb      	ldr	r3, [r7, #28]
 800179c:	3304      	adds	r3, #4
 800179e:	2b06      	cmp	r3, #6
 80017a0:	d902      	bls.n	80017a8 <NVIC_EncodePriority+0x30>
 80017a2:	69fb      	ldr	r3, [r7, #28]
 80017a4:	3b03      	subs	r3, #3
 80017a6:	e000      	b.n	80017aa <NVIC_EncodePriority+0x32>
 80017a8:	2300      	movs	r3, #0
 80017aa:	617b      	str	r3, [r7, #20]
 80017ac:	f04f 32ff 	mov.w	r2, #4294967295
 80017b0:	69bb      	ldr	r3, [r7, #24]
 80017b2:	fa02 f303 	lsl.w	r3, r2, r3
 80017b6:	43da      	mvns	r2, r3
 80017b8:	68bb      	ldr	r3, [r7, #8]
 80017ba:	401a      	ands	r2, r3
 80017bc:	697b      	ldr	r3, [r7, #20]
 80017be:	409a      	lsls	r2, r3
 80017c0:	f04f 31ff 	mov.w	r1, #4294967295
 80017c4:	697b      	ldr	r3, [r7, #20]
 80017c6:	fa01 f303 	lsl.w	r3, r1, r3
 80017ca:	43d9      	mvns	r1, r3
 80017cc:	687b      	ldr	r3, [r7, #4]
 80017ce:	400b      	ands	r3, r1
 80017d0:	4313      	orrs	r3, r2
 80017d2:	4618      	mov	r0, r3
 80017d4:	3724      	adds	r7, #36	@ 0x24
 80017d6:	46bd      	mov	sp, r7
 80017d8:	f85d 7b04 	ldr.w	r7, [sp], #4
 80017dc:	4770      	bx	lr

080017de <HAL_NVIC_SetPriorityGrouping>:
 80017de:	b580      	push	{r7, lr}
 80017e0:	b082      	sub	sp, #8
 80017e2:	af00      	add	r7, sp, #0
 80017e4:	6078      	str	r0, [r7, #4]
 80017e6:	6878      	ldr	r0, [r7, #4]
 80017e8:	f7ff ff4c 	bl	8001684 <__NVIC_SetPriorityGrouping>
 80017ec:	bf00      	nop
 80017ee:	3708      	adds	r7, #8
 80017f0:	46bd      	mov	sp, r7
 80017f2:	bd80      	pop	{r7, pc}

080017f4 <HAL_NVIC_SetPriority>:
 80017f4:	b580      	push	{r7, lr}
 80017f6:	b086      	sub	sp, #24
 80017f8:	af00      	add	r7, sp, #0
 80017fa:	4603      	mov	r3, r0
 80017fc:	60b9      	str	r1, [r7, #8]
 80017fe:	607a      	str	r2, [r7, #4]
 8001800:	73fb      	strb	r3, [r7, #15]
 8001802:	2300      	movs	r3, #0
 8001804:	617b      	str	r3, [r7, #20]
 8001806:	f7ff ff61 	bl	80016cc <__NVIC_GetPriorityGrouping>
 800180a:	6178      	str	r0, [r7, #20]
 800180c:	687a      	ldr	r2, [r7, #4]
 800180e:	68b9      	ldr	r1, [r7, #8]
 8001810:	6978      	ldr	r0, [r7, #20]
 8001812:	f7ff ffb1 	bl	8001778 <NVIC_EncodePriority>
 8001816:	4602      	mov	r2, r0
 8001818:	f997 300f 	ldrsb.w	r3, [r7, #15]
 800181c:	4611      	mov	r1, r2
 800181e:	4618      	mov	r0, r3
 8001820:	f7ff ff80 	bl	8001724 <__NVIC_SetPriority>
 8001824:	bf00      	nop
 8001826:	3718      	adds	r7, #24
 8001828:	46bd      	mov	sp, r7
 800182a:	bd80      	pop	{r7, pc}

0800182c <HAL_NVIC_EnableIRQ>:
 800182c:	b580      	push	{r7, lr}
 800182e:	b082      	sub	sp, #8
 8001830:	af00      	add	r7, sp, #0
 8001832:	4603      	mov	r3, r0
 8001834:	71fb      	strb	r3, [r7, #7]
 8001836:	f997 3007 	ldrsb.w	r3, [r7, #7]
 800183a:	4618      	mov	r0, r3
 800183c:	f7ff ff54 	bl	80016e8 <__NVIC_EnableIRQ>
 8001840:	bf00      	nop
 8001842:	3708      	adds	r7, #8
 8001844:	46bd      	mov	sp, r7
 8001846:	bd80      	pop	{r7, pc}

08001848 <HAL_DMA_Abort>:
 8001848:	b480      	push	{r7}
 800184a:	b085      	sub	sp, #20
 800184c:	af00      	add	r7, sp, #0
 800184e:	6078      	str	r0, [r7, #4]
 8001850:	2300      	movs	r3, #0
 8001852:	73fb      	strb	r3, [r7, #15]
 8001854:	687b      	ldr	r3, [r7, #4]
 8001856:	f893 3025 	ldrb.w	r3, [r3, #37]	@ 0x25
 800185a:	b2db      	uxtb	r3, r3
 800185c:	2b02      	cmp	r3, #2
 800185e:	d008      	beq.n	8001872 <HAL_DMA_Abort+0x2a>
 8001860:	687b      	ldr	r3, [r7, #4]
 8001862:	2204      	movs	r2, #4
 8001864:	63da      	str	r2, [r3, #60]	@ 0x3c
 8001866:	687b      	ldr	r3, [r7, #4]
 8001868:	2200      	movs	r2, #0
 800186a:	f883 2024 	strb.w	r2, [r3, #36]	@ 0x24
 800186e:	2301      	movs	r3, #1
 8001870:	e022      	b.n	80018b8 <HAL_DMA_Abort+0x70>
 8001872:	687b      	ldr	r3, [r7, #4]
 8001874:	681b      	ldr	r3, [r3, #0]
 8001876:	681a      	ldr	r2, [r3, #0]
 8001878:	687b      	ldr	r3, [r7, #4]
 800187a:	681b      	ldr	r3, [r3, #0]
 800187c:	f022 020e 	bic.w	r2, r2, #14
 8001880:	601a      	str	r2, [r3, #0]
 8001882:	687b      	ldr	r3, [r7, #4]
 8001884:	681b      	ldr	r3, [r3, #0]
 8001886:	681a      	ldr	r2, [r3, #0]
 8001888:	687b      	ldr	r3, [r7, #4]
 800188a:	681b      	ldr	r3, [r3, #0]
 800188c:	f022 0201 	bic.w	r2, r2, #1
 8001890:	601a      	str	r2, [r3, #0]
 8001892:	687b      	ldr	r3, [r7, #4]
 8001894:	6c5b      	ldr	r3, [r3, #68]	@ 0x44
 8001896:	f003 021c 	and.w	r2, r3, #28
 800189a:	687b      	ldr	r3, [r7, #4]
 800189c:	6c1b      	ldr	r3, [r3, #64]	@ 0x40
 800189e:	2101      	movs	r1, #1
 80018a0:	fa01 f202 	lsl.w	r2, r1, r2
 80018a4:	605a      	str	r2, [r3, #4]
 80018a6:	687b      	ldr	r3, [r7, #4]
 80018a8:	2201      	movs	r2, #1
 80018aa:	f883 2025 	strb.w	r2, [r3, #37]	@ 0x25
 80018ae:	687b      	ldr	r3, [r7, #4]
 80018b0:	2200      	movs	r2, #0
 80018b2:	f883 2024 	strb.w	r2, [r3, #36]	@ 0x24
 80018b6:	7bfb      	ldrb	r3, [r7, #15]
 80018b8:	4618      	mov	r0, r3
 80018ba:	3714      	adds	r7, #20
 80018bc:	46bd      	mov	sp, r7
 80018be:	f85d 7b04 	ldr.w	r7, [sp], #4
 80018c2:	4770      	bx	lr

080018c4 <HAL_DMA_Abort_IT>:
 80018c4:	b580      	push	{r7, lr}
 80018c6:	b084      	sub	sp, #16
 80018c8:	af00      	add	r7, sp, #0
 80018ca:	6078      	str	r0, [r7, #4]
 80018cc:	2300      	movs	r3, #0
 80018ce:	73fb      	strb	r3, [r7, #15]
 80018d0:	687b      	ldr	r3, [r7, #4]
 80018d2:	f893 3025 	ldrb.w	r3, [r3, #37]	@ 0x25
 80018d6:	b2db      	uxtb	r3, r3
 80018d8:	2b02      	cmp	r3, #2
 80018da:	d005      	beq.n	80018e8 <HAL_DMA_Abort_IT+0x24>
 80018dc:	687b      	ldr	r3, [r7, #4]
 80018de:	2204      	movs	r2, #4
 80018e0:	63da      	str	r2, [r3, #60]	@ 0x3c
 80018e2:	2301      	movs	r3, #1
 80018e4:	73fb      	strb	r3, [r7, #15]
 80018e6:	e029      	b.n	800193c <HAL_DMA_Abort_IT+0x78>
 80018e8:	687b      	ldr	r3, [r7, #4]
 80018ea:	681b      	ldr	r3, [r3, #0]
 80018ec:	681a      	ldr	r2, [r3, #0]
 80018ee:	687b      	ldr	r3, [r7, #4]
 80018f0:	681b      	ldr	r3, [r3, #0]
 80018f2:	f022 020e 	bic.w	r2, r2, #14
 80018f6:	601a      	str	r2, [r3, #0]
 80018f8:	687b      	ldr	r3, [r7, #4]
 80018fa:	681b      	ldr	r3, [r3, #0]
 80018fc:	681a      	ldr	r2, [r3, #0]
 80018fe:	687b      	ldr	r3, [r7, #4]
 8001900:	681b      	ldr	r3, [r3, #0]
 8001902:	f022 0201 	bic.w	r2, r2, #1
 8001906:	601a      	str	r2, [r3, #0]
 8001908:	687b      	ldr	r3, [r7, #4]
 800190a:	6c5b      	ldr	r3, [r3, #68]	@ 0x44
 800190c:	f003 021c 	and.w	r2, r3, #28
 8001910:	687b      	ldr	r3, [r7, #4]
 8001912:	6c1b      	ldr	r3, [r3, #64]	@ 0x40
 8001914:	2101      	movs	r1, #1
 8001916:	fa01 f202 	lsl.w	r2, r1, r2
 800191a:	605a      	str	r2, [r3, #4]
 800191c:	687b      	ldr	r3, [r7, #4]
 800191e:	2201      	movs	r2, #1
 8001920:	f883 2025 	strb.w	r2, [r3, #37]	@ 0x25
 8001924:	687b      	ldr	r3, [r7, #4]
 8001926:	2200      	movs	r2, #0
 8001928:	f883 2024 	strb.w	r2, [r3, #36]	@ 0x24
 800192c:	687b      	ldr	r3, [r7, #4]
 800192e:	6b9b      	ldr	r3, [r3, #56]	@ 0x38
 8001930:	2b00      	cmp	r3, #0
 8001932:	d003      	beq.n	800193c <HAL_DMA_Abort_IT+0x78>
 8001934:	687b      	ldr	r3, [r7, #4]
 8001936:	6b9b      	ldr	r3, [r3, #56]	@ 0x38
 8001938:	6878      	ldr	r0, [r7, #4]
 800193a:	4798      	blx	r3
 800193c:	7bfb      	ldrb	r3, [r7, #15]
 800193e:	4618      	mov	r0, r3
 8001940:	3710      	adds	r7, #16
 8001942:	46bd      	mov	sp, r7
 8001944:	bd80      	pop	{r7, pc}
	...

08001948 <HAL_GPIO_Init>:
 8001948:	b480      	push	{r7}
 800194a:	b087      	sub	sp, #28
 800194c:	af00      	add	r7, sp, #0
 800194e:	6078      	str	r0, [r7, #4]
 8001950:	6039      	str	r1, [r7, #0]
 8001952:	2300      	movs	r3, #0
 8001954:	617b      	str	r3, [r7, #20]
 8001956:	e17f      	b.n	8001c58 <HAL_GPIO_Init+0x310>
 8001958:	683b      	ldr	r3, [r7, #0]
 800195a:	681a      	ldr	r2, [r3, #0]
 800195c:	2101      	movs	r1, #1
 800195e:	697b      	ldr	r3, [r7, #20]
 8001960:	fa01 f303 	lsl.w	r3, r1, r3
 8001964:	4013      	ands	r3, r2
 8001966:	60fb      	str	r3, [r7, #12]
 8001968:	68fb      	ldr	r3, [r7, #12]
 800196a:	2b00      	cmp	r3, #0
 800196c:	f000 8171 	beq.w	8001c52 <HAL_GPIO_Init+0x30a>
 8001970:	683b      	ldr	r3, [r7, #0]
 8001972:	685b      	ldr	r3, [r3, #4]
 8001974:	f003 0303 	and.w	r3, r3, #3
 8001978:	2b01      	cmp	r3, #1
 800197a:	d005      	beq.n	8001988 <HAL_GPIO_Init+0x40>
 800197c:	683b      	ldr	r3, [r7, #0]
 800197e:	685b      	ldr	r3, [r3, #4]
 8001980:	f003 0303 	and.w	r3, r3, #3
 8001984:	2b02      	cmp	r3, #2
 8001986:	d130      	bne.n	80019ea <HAL_GPIO_Init+0xa2>
 8001988:	687b      	ldr	r3, [r7, #4]
 800198a:	689b      	ldr	r3, [r3, #8]
 800198c:	613b      	str	r3, [r7, #16]
 800198e:	697b      	ldr	r3, [r7, #20]
 8001990:	005b      	lsls	r3, r3, #1
 8001992:	2203      	movs	r2, #3
 8001994:	fa02 f303 	lsl.w	r3, r2, r3
 8001998:	43db      	mvns	r3, r3
 800199a:	693a      	ldr	r2, [r7, #16]
 800199c:	4013      	ands	r3, r2
 800199e:	613b      	str	r3, [r7, #16]
 80019a0:	683b      	ldr	r3, [r7, #0]
 80019a2:	68da      	ldr	r2, [r3, #12]
 80019a4:	697b      	ldr	r3, [r7, #20]
 80019a6:	005b      	lsls	r3, r3, #1
 80019a8:	fa02 f303 	lsl.w	r3, r2, r3
 80019ac:	693a      	ldr	r2, [r7, #16]
 80019ae:	4313      	orrs	r3, r2
 80019b0:	613b      	str	r3, [r7, #16]
 80019b2:	687b      	ldr	r3, [r7, #4]
 80019b4:	693a      	ldr	r2, [r7, #16]
 80019b6:	609a      	str	r2, [r3, #8]
 80019b8:	687b      	ldr	r3, [r7, #4]
 80019ba:	685b      	ldr	r3, [r3, #4]
 80019bc:	613b      	str	r3, [r7, #16]
 80019be:	2201      	movs	r2, #1
 80019c0:	697b      	ldr	r3, [r7, #20]
 80019c2:	fa02 f303 	lsl.w	r3, r2, r3
 80019c6:	43db      	mvns	r3, r3
 80019c8:	693a      	ldr	r2, [r7, #16]
 80019ca:	4013      	ands	r3, r2
 80019cc:	613b      	str	r3, [r7, #16]
 80019ce:	683b      	ldr	r3, [r7, #0]
 80019d0:	685b      	ldr	r3, [r3, #4]
 80019d2:	091b      	lsrs	r3, r3, #4
 80019d4:	f003 0201 	and.w	r2, r3, #1
 80019d8:	697b      	ldr	r3, [r7, #20]
 80019da:	fa02 f303 	lsl.w	r3, r2, r3
 80019de:	693a      	ldr	r2, [r7, #16]
 80019e0:	4313      	orrs	r3, r2
 80019e2:	613b      	str	r3, [r7, #16]
 80019e4:	687b      	ldr	r3, [r7, #4]
 80019e6:	693a      	ldr	r2, [r7, #16]
 80019e8:	605a      	str	r2, [r3, #4]
 80019ea:	683b      	ldr	r3, [r7, #0]
 80019ec:	685b      	ldr	r3, [r3, #4]
 80019ee:	f003 0303 	and.w	r3, r3, #3
 80019f2:	2b03      	cmp	r3, #3
 80019f4:	d118      	bne.n	8001a28 <HAL_GPIO_Init+0xe0>
 80019f6:	687b      	ldr	r3, [r7, #4]
 80019f8:	6adb      	ldr	r3, [r3, #44]	@ 0x2c
 80019fa:	613b      	str	r3, [r7, #16]
 80019fc:	2201      	movs	r2, #1
 80019fe:	697b      	ldr	r3, [r7, #20]
 8001a00:	fa02 f303 	lsl.w	r3, r2, r3
 8001a04:	43db      	mvns	r3, r3
 8001a06:	693a      	ldr	r2, [r7, #16]
 8001a08:	4013      	ands	r3, r2
 8001a0a:	613b      	str	r3, [r7, #16]
 8001a0c:	683b      	ldr	r3, [r7, #0]
 8001a0e:	685b      	ldr	r3, [r3, #4]
 8001a10:	08db      	lsrs	r3, r3, #3
 8001a12:	f003 0201 	and.w	r2, r3, #1
 8001a16:	697b      	ldr	r3, [r7, #20]
 8001a18:	fa02 f303 	lsl.w	r3, r2, r3
 8001a1c:	693a      	ldr	r2, [r7, #16]
 8001a1e:	4313      	orrs	r3, r2
 8001a20:	613b      	str	r3, [r7, #16]
 8001a22:	687b      	ldr	r3, [r7, #4]
 8001a24:	693a      	ldr	r2, [r7, #16]
 8001a26:	62da      	str	r2, [r3, #44]	@ 0x2c
 8001a28:	683b      	ldr	r3, [r7, #0]
 8001a2a:	685b      	ldr	r3, [r3, #4]
 8001a2c:	f003 0303 	and.w	r3, r3, #3
 8001a30:	2b03      	cmp	r3, #3
 8001a32:	d017      	beq.n	8001a64 <HAL_GPIO_Init+0x11c>
 8001a34:	687b      	ldr	r3, [r7, #4]
 8001a36:	68db      	ldr	r3, [r3, #12]
 8001a38:	613b      	str	r3, [r7, #16]
 8001a3a:	697b      	ldr	r3, [r7, #20]
 8001a3c:	005b      	lsls	r3, r3, #1
 8001a3e:	2203      	movs	r2, #3
 8001a40:	fa02 f303 	lsl.w	r3, r2, r3
 8001a44:	43db      	mvns	r3, r3
 8001a46:	693a      	ldr	r2, [r7, #16]
 8001a48:	4013      	ands	r3, r2
 8001a4a:	613b      	str	r3, [r7, #16]
 8001a4c:	683b      	ldr	r3, [r7, #0]
 8001a4e:	689a      	ldr	r2, [r3, #8]
 8001a50:	697b      	ldr	r3, [r7, #20]
 8001a52:	005b      	lsls	r3, r3, #1
 8001a54:	fa02 f303 	lsl.w	r3, r2, r3
 8001a58:	693a      	ldr	r2, [r7, #16]
 8001a5a:	4313      	orrs	r3, r2
 8001a5c:	613b      	str	r3, [r7, #16]
 8001a5e:	687b      	ldr	r3, [r7, #4]
 8001a60:	693a      	ldr	r2, [r7, #16]
 8001a62:	60da      	str	r2, [r3, #12]
 8001a64:	683b      	ldr	r3, [r7, #0]
 8001a66:	685b      	ldr	r3, [r3, #4]
 8001a68:	f003 0303 	and.w	r3, r3, #3
 8001a6c:	2b02      	cmp	r3, #2
 8001a6e:	d123      	bne.n	8001ab8 <HAL_GPIO_Init+0x170>
 8001a70:	697b      	ldr	r3, [r7, #20]
 8001a72:	08da      	lsrs	r2, r3, #3
 8001a74:	687b      	ldr	r3, [r7, #4]
 8001a76:	3208      	adds	r2, #8
 8001a78:	f853 3022 	ldr.w	r3, [r3, r2, lsl #2]
 8001a7c:	613b      	str	r3, [r7, #16]
 8001a7e:	697b      	ldr	r3, [r7, #20]
 8001a80:	f003 0307 	and.w	r3, r3, #7
 8001a84:	009b      	lsls	r3, r3, #2
 8001a86:	220f      	movs	r2, #15
 8001a88:	fa02 f303 	lsl.w	r3, r2, r3
 8001a8c:	43db      	mvns	r3, r3
 8001a8e:	693a      	ldr	r2, [r7, #16]
 8001a90:	4013      	ands	r3, r2
 8001a92:	613b      	str	r3, [r7, #16]
 8001a94:	683b      	ldr	r3, [r7, #0]
 8001a96:	691a      	ldr	r2, [r3, #16]
 8001a98:	697b      	ldr	r3, [r7, #20]
 8001a9a:	f003 0307 	and.w	r3, r3, #7
 8001a9e:	009b      	lsls	r3, r3, #2
 8001aa0:	fa02 f303 	lsl.w	r3, r2, r3
 8001aa4:	693a      	ldr	r2, [r7, #16]
 8001aa6:	4313      	orrs	r3, r2
 8001aa8:	613b      	str	r3, [r7, #16]
 8001aaa:	697b      	ldr	r3, [r7, #20]
 8001aac:	08da      	lsrs	r2, r3, #3
 8001aae:	687b      	ldr	r3, [r7, #4]
 8001ab0:	3208      	adds	r2, #8
 8001ab2:	6939      	ldr	r1, [r7, #16]
 8001ab4:	f843 1022 	str.w	r1, [r3, r2, lsl #2]
 8001ab8:	687b      	ldr	r3, [r7, #4]
 8001aba:	681b      	ldr	r3, [r3, #0]
 8001abc:	613b      	str	r3, [r7, #16]
 8001abe:	697b      	ldr	r3, [r7, #20]
 8001ac0:	005b      	lsls	r3, r3, #1
 8001ac2:	2203      	movs	r2, #3
 8001ac4:	fa02 f303 	lsl.w	r3, r2, r3
 8001ac8:	43db      	mvns	r3, r3
 8001aca:	693a      	ldr	r2, [r7, #16]
 8001acc:	4013      	ands	r3, r2
 8001ace:	613b      	str	r3, [r7, #16]
 8001ad0:	683b      	ldr	r3, [r7, #0]
 8001ad2:	685b      	ldr	r3, [r3, #4]
 8001ad4:	f003 0203 	and.w	r2, r3, #3
 8001ad8:	697b      	ldr	r3, [r7, #20]
 8001ada:	005b      	lsls	r3, r3, #1
 8001adc:	fa02 f303 	lsl.w	r3, r2, r3
 8001ae0:	693a      	ldr	r2, [r7, #16]
 8001ae2:	4313      	orrs	r3, r2
 8001ae4:	613b      	str	r3, [r7, #16]
 8001ae6:	687b      	ldr	r3, [r7, #4]
 8001ae8:	693a      	ldr	r2, [r7, #16]
 8001aea:	601a      	str	r2, [r3, #0]
 8001aec:	683b      	ldr	r3, [r7, #0]
 8001aee:	685b      	ldr	r3, [r3, #4]
 8001af0:	f403 3340 	and.w	r3, r3, #196608	@ 0x30000
 8001af4:	2b00      	cmp	r3, #0
 8001af6:	f000 80ac 	beq.w	8001c52 <HAL_GPIO_Init+0x30a>
 8001afa:	4b5f      	ldr	r3, [pc, #380]	@ (8001c78 <HAL_GPIO_Init+0x330>)
 8001afc:	6e1b      	ldr	r3, [r3, #96]	@ 0x60
 8001afe:	4a5e      	ldr	r2, [pc, #376]	@ (8001c78 <HAL_GPIO_Init+0x330>)
 8001b00:	f043 0301 	orr.w	r3, r3, #1
 8001b04:	6613      	str	r3, [r2, #96]	@ 0x60
 8001b06:	4b5c      	ldr	r3, [pc, #368]	@ (8001c78 <HAL_GPIO_Init+0x330>)
 8001b08:	6e1b      	ldr	r3, [r3, #96]	@ 0x60
 8001b0a:	f003 0301 	and.w	r3, r3, #1
 8001b0e:	60bb      	str	r3, [r7, #8]
 8001b10:	68bb      	ldr	r3, [r7, #8]
 8001b12:	4a5a      	ldr	r2, [pc, #360]	@ (8001c7c <HAL_GPIO_Init+0x334>)
 8001b14:	697b      	ldr	r3, [r7, #20]
 8001b16:	089b      	lsrs	r3, r3, #2
 8001b18:	3302      	adds	r3, #2
 8001b1a:	f852 3023 	ldr.w	r3, [r2, r3, lsl #2]
 8001b1e:	613b      	str	r3, [r7, #16]
 8001b20:	697b      	ldr	r3, [r7, #20]
 8001b22:	f003 0303 	and.w	r3, r3, #3
 8001b26:	009b      	lsls	r3, r3, #2
 8001b28:	220f      	movs	r2, #15
 8001b2a:	fa02 f303 	lsl.w	r3, r2, r3
 8001b2e:	43db      	mvns	r3, r3
 8001b30:	693a      	ldr	r2, [r7, #16]
 8001b32:	4013      	ands	r3, r2
 8001b34:	613b      	str	r3, [r7, #16]
 8001b36:	687b      	ldr	r3, [r7, #4]
 8001b38:	f1b3 4f90 	cmp.w	r3, #1207959552	@ 0x48000000
 8001b3c:	d025      	beq.n	8001b8a <HAL_GPIO_Init+0x242>
 8001b3e:	687b      	ldr	r3, [r7, #4]
 8001b40:	4a4f      	ldr	r2, [pc, #316]	@ (8001c80 <HAL_GPIO_Init+0x338>)
 8001b42:	4293      	cmp	r3, r2
 8001b44:	d01f      	beq.n	8001b86 <HAL_GPIO_Init+0x23e>
 8001b46:	687b      	ldr	r3, [r7, #4]
 8001b48:	4a4e      	ldr	r2, [pc, #312]	@ (8001c84 <HAL_GPIO_Init+0x33c>)
 8001b4a:	4293      	cmp	r3, r2
 8001b4c:	d019      	beq.n	8001b82 <HAL_GPIO_Init+0x23a>
 8001b4e:	687b      	ldr	r3, [r7, #4]
 8001b50:	4a4d      	ldr	r2, [pc, #308]	@ (8001c88 <HAL_GPIO_Init+0x340>)
 8001b52:	4293      	cmp	r3, r2
 8001b54:	d013      	beq.n	8001b7e <HAL_GPIO_Init+0x236>
 8001b56:	687b      	ldr	r3, [r7, #4]
 8001b58:	4a4c      	ldr	r2, [pc, #304]	@ (8001c8c <HAL_GPIO_Init+0x344>)
 8001b5a:	4293      	cmp	r3, r2
 8001b5c:	d00d      	beq.n	8001b7a <HAL_GPIO_Init+0x232>
 8001b5e:	687b      	ldr	r3, [r7, #4]
 8001b60:	4a4b      	ldr	r2, [pc, #300]	@ (8001c90 <HAL_GPIO_Init+0x348>)
 8001b62:	4293      	cmp	r3, r2
 8001b64:	d007      	beq.n	8001b76 <HAL_GPIO_Init+0x22e>
 8001b66:	687b      	ldr	r3, [r7, #4]
 8001b68:	4a4a      	ldr	r2, [pc, #296]	@ (8001c94 <HAL_GPIO_Init+0x34c>)
 8001b6a:	4293      	cmp	r3, r2
 8001b6c:	d101      	bne.n	8001b72 <HAL_GPIO_Init+0x22a>
 8001b6e:	2306      	movs	r3, #6
 8001b70:	e00c      	b.n	8001b8c <HAL_GPIO_Init+0x244>
 8001b72:	2307      	movs	r3, #7
 8001b74:	e00a      	b.n	8001b8c <HAL_GPIO_Init+0x244>
 8001b76:	2305      	movs	r3, #5
 8001b78:	e008      	b.n	8001b8c <HAL_GPIO_Init+0x244>
 8001b7a:	2304      	movs	r3, #4
 8001b7c:	e006      	b.n	8001b8c <HAL_GPIO_Init+0x244>
 8001b7e:	2303      	movs	r3, #3
 8001b80:	e004      	b.n	8001b8c <HAL_GPIO_Init+0x244>
 8001b82:	2302      	movs	r3, #2
 8001b84:	e002      	b.n	8001b8c <HAL_GPIO_Init+0x244>
 8001b86:	2301      	movs	r3, #1
 8001b88:	e000      	b.n	8001b8c <HAL_GPIO_Init+0x244>
 8001b8a:	2300      	movs	r3, #0
 8001b8c:	697a      	ldr	r2, [r7, #20]
 8001b8e:	f002 0203 	and.w	r2, r2, #3
 8001b92:	0092      	lsls	r2, r2, #2
 8001b94:	4093      	lsls	r3, r2
 8001b96:	693a      	ldr	r2, [r7, #16]
 8001b98:	4313      	orrs	r3, r2
 8001b9a:	613b      	str	r3, [r7, #16]
 8001b9c:	4937      	ldr	r1, [pc, #220]	@ (8001c7c <HAL_GPIO_Init+0x334>)
 8001b9e:	697b      	ldr	r3, [r7, #20]
 8001ba0:	089b      	lsrs	r3, r3, #2
 8001ba2:	3302      	adds	r3, #2
 8001ba4:	693a      	ldr	r2, [r7, #16]
 8001ba6:	f841 2023 	str.w	r2, [r1, r3, lsl #2]
 8001baa:	4b3b      	ldr	r3, [pc, #236]	@ (8001c98 <HAL_GPIO_Init+0x350>)
 8001bac:	689b      	ldr	r3, [r3, #8]
 8001bae:	613b      	str	r3, [r7, #16]
 8001bb0:	68fb      	ldr	r3, [r7, #12]
 8001bb2:	43db      	mvns	r3, r3
 8001bb4:	693a      	ldr	r2, [r7, #16]
 8001bb6:	4013      	ands	r3, r2
 8001bb8:	613b      	str	r3, [r7, #16]
 8001bba:	683b      	ldr	r3, [r7, #0]
 8001bbc:	685b      	ldr	r3, [r3, #4]
 8001bbe:	f403 1380 	and.w	r3, r3, #1048576	@ 0x100000
 8001bc2:	2b00      	cmp	r3, #0
 8001bc4:	d003      	beq.n	8001bce <HAL_GPIO_Init+0x286>
 8001bc6:	693a      	ldr	r2, [r7, #16]
 8001bc8:	68fb      	ldr	r3, [r7, #12]
 8001bca:	4313      	orrs	r3, r2
 8001bcc:	613b      	str	r3, [r7, #16]
 8001bce:	4a32      	ldr	r2, [pc, #200]	@ (8001c98 <HAL_GPIO_Init+0x350>)
 8001bd0:	693b      	ldr	r3, [r7, #16]
 8001bd2:	6093      	str	r3, [r2, #8]
 8001bd4:	4b30      	ldr	r3, [pc, #192]	@ (8001c98 <HAL_GPIO_Init+0x350>)
 8001bd6:	68db      	ldr	r3, [r3, #12]
 8001bd8:	613b      	str	r3, [r7, #16]
 8001bda:	68fb      	ldr	r3, [r7, #12]
 8001bdc:	43db      	mvns	r3, r3
 8001bde:	693a      	ldr	r2, [r7, #16]
 8001be0:	4013      	ands	r3, r2
 8001be2:	613b      	str	r3, [r7, #16]
 8001be4:	683b      	ldr	r3, [r7, #0]
 8001be6:	685b      	ldr	r3, [r3, #4]
 8001be8:	f403 1300 	and.w	r3, r3, #2097152	@ 0x200000
 8001bec:	2b00      	cmp	r3, #0
 8001bee:	d003      	beq.n	8001bf8 <HAL_GPIO_Init+0x2b0>
 8001bf0:	693a      	ldr	r2, [r7, #16]
 8001bf2:	68fb      	ldr	r3, [r7, #12]
 8001bf4:	4313      	orrs	r3, r2
 8001bf6:	613b      	str	r3, [r7, #16]
 8001bf8:	4a27      	ldr	r2, [pc, #156]	@ (8001c98 <HAL_GPIO_Init+0x350>)
 8001bfa:	693b      	ldr	r3, [r7, #16]
 8001bfc:	60d3      	str	r3, [r2, #12]
 8001bfe:	4b26      	ldr	r3, [pc, #152]	@ (8001c98 <HAL_GPIO_Init+0x350>)
 8001c00:	685b      	ldr	r3, [r3, #4]
 8001c02:	613b      	str	r3, [r7, #16]
 8001c04:	68fb      	ldr	r3, [r7, #12]
 8001c06:	43db      	mvns	r3, r3
 8001c08:	693a      	ldr	r2, [r7, #16]
 8001c0a:	4013      	ands	r3, r2
 8001c0c:	613b      	str	r3, [r7, #16]
 8001c0e:	683b      	ldr	r3, [r7, #0]
 8001c10:	685b      	ldr	r3, [r3, #4]
 8001c12:	f403 3300 	and.w	r3, r3, #131072	@ 0x20000
 8001c16:	2b00      	cmp	r3, #0
 8001c18:	d003      	beq.n	8001c22 <HAL_GPIO_Init+0x2da>
 8001c1a:	693a      	ldr	r2, [r7, #16]
 8001c1c:	68fb      	ldr	r3, [r7, #12]
 8001c1e:	4313      	orrs	r3, r2
 8001c20:	613b      	str	r3, [r7, #16]
 8001c22:	4a1d      	ldr	r2, [pc, #116]	@ (8001c98 <HAL_GPIO_Init+0x350>)
 8001c24:	693b      	ldr	r3, [r7, #16]
 8001c26:	6053      	str	r3, [r2, #4]
 8001c28:	4b1b      	ldr	r3, [pc, #108]	@ (8001c98 <HAL_GPIO_Init+0x350>)
 8001c2a:	681b      	ldr	r3, [r3, #0]
 8001c2c:	613b      	str	r3, [r7, #16]
 8001c2e:	68fb      	ldr	r3, [r7, #12]
 8001c30:	43db      	mvns	r3, r3
 8001c32:	693a      	ldr	r2, [r7, #16]
 8001c34:	4013      	ands	r3, r2
 8001c36:	613b      	str	r3, [r7, #16]
 8001c38:	683b      	ldr	r3, [r7, #0]
 8001c3a:	685b      	ldr	r3, [r3, #4]
 8001c3c:	f403 3380 	and.w	r3, r3, #65536	@ 0x10000
 8001c40:	2b00      	cmp	r3, #0
 8001c42:	d003      	beq.n	8001c4c <HAL_GPIO_Init+0x304>
 8001c44:	693a      	ldr	r2, [r7, #16]
 8001c46:	68fb      	ldr	r3, [r7, #12]
 8001c48:	4313      	orrs	r3, r2
 8001c4a:	613b      	str	r3, [r7, #16]
 8001c4c:	4a12      	ldr	r2, [pc, #72]	@ (8001c98 <HAL_GPIO_Init+0x350>)
 8001c4e:	693b      	ldr	r3, [r7, #16]
 8001c50:	6013      	str	r3, [r2, #0]
 8001c52:	697b      	ldr	r3, [r7, #20]
 8001c54:	3301      	adds	r3, #1
 8001c56:	617b      	str	r3, [r7, #20]
 8001c58:	683b      	ldr	r3, [r7, #0]
 8001c5a:	681a      	ldr	r2, [r3, #0]
 8001c5c:	697b      	ldr	r3, [r7, #20]
 8001c5e:	fa22 f303 	lsr.w	r3, r2, r3
 8001c62:	2b00      	cmp	r3, #0
 8001c64:	f47f ae78 	bne.w	8001958 <HAL_GPIO_Init+0x10>
 8001c68:	bf00      	nop
 8001c6a:	bf00      	nop
 8001c6c:	371c      	adds	r7, #28
 8001c6e:	46bd      	mov	sp, r7
 8001c70:	f85d 7b04 	ldr.w	r7, [sp], #4
 8001c74:	4770      	bx	lr
 8001c76:	bf00      	nop
 8001c78:	40021000 	.word	0x40021000
 8001c7c:	40010000 	.word	0x40010000
 8001c80:	48000400 	.word	0x48000400
 8001c84:	48000800 	.word	0x48000800
 8001c88:	48000c00 	.word	0x48000c00
 8001c8c:	48001000 	.word	0x48001000
 8001c90:	48001400 	.word	0x48001400
 8001c94:	48001800 	.word	0x48001800
 8001c98:	40010400 	.word	0x40010400

08001c9c <HAL_GPIO_WritePin>:
 8001c9c:	b480      	push	{r7}
 8001c9e:	b083      	sub	sp, #12
 8001ca0:	af00      	add	r7, sp, #0
 8001ca2:	6078      	str	r0, [r7, #4]
 8001ca4:	460b      	mov	r3, r1
 8001ca6:	807b      	strh	r3, [r7, #2]
 8001ca8:	4613      	mov	r3, r2
 8001caa:	707b      	strb	r3, [r7, #1]
 8001cac:	787b      	ldrb	r3, [r7, #1]
 8001cae:	2b00      	cmp	r3, #0
 8001cb0:	d003      	beq.n	8001cba <HAL_GPIO_WritePin+0x1e>
 8001cb2:	887a      	ldrh	r2, [r7, #2]
 8001cb4:	687b      	ldr	r3, [r7, #4]
 8001cb6:	619a      	str	r2, [r3, #24]
 8001cb8:	e002      	b.n	8001cc0 <HAL_GPIO_WritePin+0x24>
 8001cba:	887a      	ldrh	r2, [r7, #2]
 8001cbc:	687b      	ldr	r3, [r7, #4]
 8001cbe:	629a      	str	r2, [r3, #40]	@ 0x28
 8001cc0:	bf00      	nop
 8001cc2:	370c      	adds	r7, #12
 8001cc4:	46bd      	mov	sp, r7
 8001cc6:	f85d 7b04 	ldr.w	r7, [sp], #4
 8001cca:	4770      	bx	lr

08001ccc <HAL_PWREx_GetVoltageRange>:
 8001ccc:	b480      	push	{r7}
 8001cce:	af00      	add	r7, sp, #0
 8001cd0:	4b04      	ldr	r3, [pc, #16]	@ (8001ce4 <HAL_PWREx_GetVoltageRange+0x18>)
 8001cd2:	681b      	ldr	r3, [r3, #0]
 8001cd4:	f403 63c0 	and.w	r3, r3, #1536	@ 0x600
 8001cd8:	4618      	mov	r0, r3
 8001cda:	46bd      	mov	sp, r7
 8001cdc:	f85d 7b04 	ldr.w	r7, [sp], #4
 8001ce0:	4770      	bx	lr
 8001ce2:	bf00      	nop
 8001ce4:	40007000 	.word	0x40007000

08001ce8 <HAL_PWREx_ControlVoltageScaling>:
 8001ce8:	b480      	push	{r7}
 8001cea:	b085      	sub	sp, #20
 8001cec:	af00      	add	r7, sp, #0
 8001cee:	6078      	str	r0, [r7, #4]
 8001cf0:	687b      	ldr	r3, [r7, #4]
 8001cf2:	f5b3 7f00 	cmp.w	r3, #512	@ 0x200
 8001cf6:	d130      	bne.n	8001d5a <HAL_PWREx_ControlVoltageScaling+0x72>
 8001cf8:	4b23      	ldr	r3, [pc, #140]	@ (8001d88 <HAL_PWREx_ControlVoltageScaling+0xa0>)
 8001cfa:	681b      	ldr	r3, [r3, #0]
 8001cfc:	f403 63c0 	and.w	r3, r3, #1536	@ 0x600
 8001d00:	f5b3 7f00 	cmp.w	r3, #512	@ 0x200
 8001d04:	d038      	beq.n	8001d78 <HAL_PWREx_ControlVoltageScaling+0x90>
 8001d06:	4b20      	ldr	r3, [pc, #128]	@ (8001d88 <HAL_PWREx_ControlVoltageScaling+0xa0>)
 8001d08:	681b      	ldr	r3, [r3, #0]
 8001d0a:	f423 63c0 	bic.w	r3, r3, #1536	@ 0x600
 8001d0e:	4a1e      	ldr	r2, [pc, #120]	@ (8001d88 <HAL_PWREx_ControlVoltageScaling+0xa0>)
 8001d10:	f443 7300 	orr.w	r3, r3, #512	@ 0x200
 8001d14:	6013      	str	r3, [r2, #0]
 8001d16:	4b1d      	ldr	r3, [pc, #116]	@ (8001d8c <HAL_PWREx_ControlVoltageScaling+0xa4>)
 8001d18:	681b      	ldr	r3, [r3, #0]
 8001d1a:	2232      	movs	r2, #50	@ 0x32
 8001d1c:	fb02 f303 	mul.w	r3, r2, r3
 8001d20:	4a1b      	ldr	r2, [pc, #108]	@ (8001d90 <HAL_PWREx_ControlVoltageScaling+0xa8>)
 8001d22:	fba2 2303 	umull	r2, r3, r2, r3
 8001d26:	0c9b      	lsrs	r3, r3, #18
 8001d28:	3301      	adds	r3, #1
 8001d2a:	60fb      	str	r3, [r7, #12]
 8001d2c:	e002      	b.n	8001d34 <HAL_PWREx_ControlVoltageScaling+0x4c>
 8001d2e:	68fb      	ldr	r3, [r7, #12]
 8001d30:	3b01      	subs	r3, #1
 8001d32:	60fb      	str	r3, [r7, #12]
 8001d34:	4b14      	ldr	r3, [pc, #80]	@ (8001d88 <HAL_PWREx_ControlVoltageScaling+0xa0>)
 8001d36:	695b      	ldr	r3, [r3, #20]
 8001d38:	f403 6380 	and.w	r3, r3, #1024	@ 0x400
 8001d3c:	f5b3 6f80 	cmp.w	r3, #1024	@ 0x400
 8001d40:	d102      	bne.n	8001d48 <HAL_PWREx_ControlVoltageScaling+0x60>
 8001d42:	68fb      	ldr	r3, [r7, #12]
 8001d44:	2b00      	cmp	r3, #0
 8001d46:	d1f2      	bne.n	8001d2e <HAL_PWREx_ControlVoltageScaling+0x46>
 8001d48:	4b0f      	ldr	r3, [pc, #60]	@ (8001d88 <HAL_PWREx_ControlVoltageScaling+0xa0>)
 8001d4a:	695b      	ldr	r3, [r3, #20]
 8001d4c:	f403 6380 	and.w	r3, r3, #1024	@ 0x400
 8001d50:	f5b3 6f80 	cmp.w	r3, #1024	@ 0x400
 8001d54:	d110      	bne.n	8001d78 <HAL_PWREx_ControlVoltageScaling+0x90>
 8001d56:	2303      	movs	r3, #3
 8001d58:	e00f      	b.n	8001d7a <HAL_PWREx_ControlVoltageScaling+0x92>
 8001d5a:	4b0b      	ldr	r3, [pc, #44]	@ (8001d88 <HAL_PWREx_ControlVoltageScaling+0xa0>)
 8001d5c:	681b      	ldr	r3, [r3, #0]
 8001d5e:	f403 63c0 	and.w	r3, r3, #1536	@ 0x600
 8001d62:	f5b3 6f80 	cmp.w	r3, #1024	@ 0x400
 8001d66:	d007      	beq.n	8001d78 <HAL_PWREx_ControlVoltageScaling+0x90>
 8001d68:	4b07      	ldr	r3, [pc, #28]	@ (8001d88 <HAL_PWREx_ControlVoltageScaling+0xa0>)
 8001d6a:	681b      	ldr	r3, [r3, #0]
 8001d6c:	f423 63c0 	bic.w	r3, r3, #1536	@ 0x600
 8001d70:	4a05      	ldr	r2, [pc, #20]	@ (8001d88 <HAL_PWREx_ControlVoltageScaling+0xa0>)
 8001d72:	f443 6380 	orr.w	r3, r3, #1024	@ 0x400
 8001d76:	6013      	str	r3, [r2, #0]
 8001d78:	2300      	movs	r3, #0
 8001d7a:	4618      	mov	r0, r3
 8001d7c:	3714      	adds	r7, #20
 8001d7e:	46bd      	mov	sp, r7
 8001d80:	f85d 7b04 	ldr.w	r7, [sp], #4
 8001d84:	4770      	bx	lr
 8001d86:	bf00      	nop
 8001d88:	40007000 	.word	0x40007000
 8001d8c:	20000000 	.word	0x20000000
 8001d90:	431bde83 	.word	0x431bde83

08001d94 <HAL_RCC_OscConfig>:
 8001d94:	b580      	push	{r7, lr}
 8001d96:	b088      	sub	sp, #32
 8001d98:	af00      	add	r7, sp, #0
 8001d9a:	6078      	str	r0, [r7, #4]
 8001d9c:	687b      	ldr	r3, [r7, #4]
 8001d9e:	2b00      	cmp	r3, #0
 8001da0:	d101      	bne.n	8001da6 <HAL_RCC_OscConfig+0x12>
 8001da2:	2301      	movs	r3, #1
 8001da4:	e3ca      	b.n	800253c <HAL_RCC_OscConfig+0x7a8>
 8001da6:	4b97      	ldr	r3, [pc, #604]	@ (8002004 <HAL_RCC_OscConfig+0x270>)
 8001da8:	689b      	ldr	r3, [r3, #8]
 8001daa:	f003 030c 	and.w	r3, r3, #12
 8001dae:	61bb      	str	r3, [r7, #24]
 8001db0:	4b94      	ldr	r3, [pc, #592]	@ (8002004 <HAL_RCC_OscConfig+0x270>)
 8001db2:	68db      	ldr	r3, [r3, #12]
 8001db4:	f003 0303 	and.w	r3, r3, #3
 8001db8:	617b      	str	r3, [r7, #20]
 8001dba:	687b      	ldr	r3, [r7, #4]
 8001dbc:	681b      	ldr	r3, [r3, #0]
 8001dbe:	f003 0310 	and.w	r3, r3, #16
 8001dc2:	2b00      	cmp	r3, #0
 8001dc4:	f000 80e4 	beq.w	8001f90 <HAL_RCC_OscConfig+0x1fc>
 8001dc8:	69bb      	ldr	r3, [r7, #24]
 8001dca:	2b00      	cmp	r3, #0
 8001dcc:	d007      	beq.n	8001dde <HAL_RCC_OscConfig+0x4a>
 8001dce:	69bb      	ldr	r3, [r7, #24]
 8001dd0:	2b0c      	cmp	r3, #12
 8001dd2:	f040 808b 	bne.w	8001eec <HAL_RCC_OscConfig+0x158>
 8001dd6:	697b      	ldr	r3, [r7, #20]
 8001dd8:	2b01      	cmp	r3, #1
 8001dda:	f040 8087 	bne.w	8001eec <HAL_RCC_OscConfig+0x158>
 8001dde:	4b89      	ldr	r3, [pc, #548]	@ (8002004 <HAL_RCC_OscConfig+0x270>)
 8001de0:	681b      	ldr	r3, [r3, #0]
 8001de2:	f003 0302 	and.w	r3, r3, #2
 8001de6:	2b00      	cmp	r3, #0
 8001de8:	d005      	beq.n	8001df6 <HAL_RCC_OscConfig+0x62>
 8001dea:	687b      	ldr	r3, [r7, #4]
 8001dec:	699b      	ldr	r3, [r3, #24]
 8001dee:	2b00      	cmp	r3, #0
 8001df0:	d101      	bne.n	8001df6 <HAL_RCC_OscConfig+0x62>
 8001df2:	2301      	movs	r3, #1
 8001df4:	e3a2      	b.n	800253c <HAL_RCC_OscConfig+0x7a8>
 8001df6:	687b      	ldr	r3, [r7, #4]
 8001df8:	6a1a      	ldr	r2, [r3, #32]
 8001dfa:	4b82      	ldr	r3, [pc, #520]	@ (8002004 <HAL_RCC_OscConfig+0x270>)
 8001dfc:	681b      	ldr	r3, [r3, #0]
 8001dfe:	f003 0308 	and.w	r3, r3, #8
 8001e02:	2b00      	cmp	r3, #0
 8001e04:	d004      	beq.n	8001e10 <HAL_RCC_OscConfig+0x7c>
 8001e06:	4b7f      	ldr	r3, [pc, #508]	@ (8002004 <HAL_RCC_OscConfig+0x270>)
 8001e08:	681b      	ldr	r3, [r3, #0]
 8001e0a:	f003 03f0 	and.w	r3, r3, #240	@ 0xf0
 8001e0e:	e005      	b.n	8001e1c <HAL_RCC_OscConfig+0x88>
 8001e10:	4b7c      	ldr	r3, [pc, #496]	@ (8002004 <HAL_RCC_OscConfig+0x270>)
 8001e12:	f8d3 3094 	ldr.w	r3, [r3, #148]	@ 0x94
 8001e16:	091b      	lsrs	r3, r3, #4
 8001e18:	f003 03f0 	and.w	r3, r3, #240	@ 0xf0
 8001e1c:	4293      	cmp	r3, r2
 8001e1e:	d223      	bcs.n	8001e68 <HAL_RCC_OscConfig+0xd4>
 8001e20:	687b      	ldr	r3, [r7, #4]
 8001e22:	6a1b      	ldr	r3, [r3, #32]
 8001e24:	4618      	mov	r0, r3
 8001e26:	f000 fd87 	bl	8002938 <RCC_SetFlashLatencyFromMSIRange>
 8001e2a:	4603      	mov	r3, r0
 8001e2c:	2b00      	cmp	r3, #0
 8001e2e:	d001      	beq.n	8001e34 <HAL_RCC_OscConfig+0xa0>
 8001e30:	2301      	movs	r3, #1
 8001e32:	e383      	b.n	800253c <HAL_RCC_OscConfig+0x7a8>
 8001e34:	4b73      	ldr	r3, [pc, #460]	@ (8002004 <HAL_RCC_OscConfig+0x270>)
 8001e36:	681b      	ldr	r3, [r3, #0]
 8001e38:	4a72      	ldr	r2, [pc, #456]	@ (8002004 <HAL_RCC_OscConfig+0x270>)
 8001e3a:	f043 0308 	orr.w	r3, r3, #8
 8001e3e:	6013      	str	r3, [r2, #0]
 8001e40:	4b70      	ldr	r3, [pc, #448]	@ (8002004 <HAL_RCC_OscConfig+0x270>)
 8001e42:	681b      	ldr	r3, [r3, #0]
 8001e44:	f023 02f0 	bic.w	r2, r3, #240	@ 0xf0
 8001e48:	687b      	ldr	r3, [r7, #4]
 8001e4a:	6a1b      	ldr	r3, [r3, #32]
 8001e4c:	496d      	ldr	r1, [pc, #436]	@ (8002004 <HAL_RCC_OscConfig+0x270>)
 8001e4e:	4313      	orrs	r3, r2
 8001e50:	600b      	str	r3, [r1, #0]
 8001e52:	4b6c      	ldr	r3, [pc, #432]	@ (8002004 <HAL_RCC_OscConfig+0x270>)
 8001e54:	685b      	ldr	r3, [r3, #4]
 8001e56:	f423 427f 	bic.w	r2, r3, #65280	@ 0xff00
 8001e5a:	687b      	ldr	r3, [r7, #4]
 8001e5c:	69db      	ldr	r3, [r3, #28]
 8001e5e:	021b      	lsls	r3, r3, #8
 8001e60:	4968      	ldr	r1, [pc, #416]	@ (8002004 <HAL_RCC_OscConfig+0x270>)
 8001e62:	4313      	orrs	r3, r2
 8001e64:	604b      	str	r3, [r1, #4]
 8001e66:	e025      	b.n	8001eb4 <HAL_RCC_OscConfig+0x120>
 8001e68:	4b66      	ldr	r3, [pc, #408]	@ (8002004 <HAL_RCC_OscConfig+0x270>)
 8001e6a:	681b      	ldr	r3, [r3, #0]
 8001e6c:	4a65      	ldr	r2, [pc, #404]	@ (8002004 <HAL_RCC_OscConfig+0x270>)
 8001e6e:	f043 0308 	orr.w	r3, r3, #8
 8001e72:	6013      	str	r3, [r2, #0]
 8001e74:	4b63      	ldr	r3, [pc, #396]	@ (8002004 <HAL_RCC_OscConfig+0x270>)
 8001e76:	681b      	ldr	r3, [r3, #0]
 8001e78:	f023 02f0 	bic.w	r2, r3, #240	@ 0xf0
 8001e7c:	687b      	ldr	r3, [r7, #4]
 8001e7e:	6a1b      	ldr	r3, [r3, #32]
 8001e80:	4960      	ldr	r1, [pc, #384]	@ (8002004 <HAL_RCC_OscConfig+0x270>)
 8001e82:	4313      	orrs	r3, r2
 8001e84:	600b      	str	r3, [r1, #0]
 8001e86:	4b5f      	ldr	r3, [pc, #380]	@ (8002004 <HAL_RCC_OscConfig+0x270>)
 8001e88:	685b      	ldr	r3, [r3, #4]
 8001e8a:	f423 427f 	bic.w	r2, r3, #65280	@ 0xff00
 8001e8e:	687b      	ldr	r3, [r7, #4]
 8001e90:	69db      	ldr	r3, [r3, #28]
 8001e92:	021b      	lsls	r3, r3, #8
 8001e94:	495b      	ldr	r1, [pc, #364]	@ (8002004 <HAL_RCC_OscConfig+0x270>)
 8001e96:	4313      	orrs	r3, r2
 8001e98:	604b      	str	r3, [r1, #4]
 8001e9a:	69bb      	ldr	r3, [r7, #24]
 8001e9c:	2b00      	cmp	r3, #0
 8001e9e:	d109      	bne.n	8001eb4 <HAL_RCC_OscConfig+0x120>
 8001ea0:	687b      	ldr	r3, [r7, #4]
 8001ea2:	6a1b      	ldr	r3, [r3, #32]
 8001ea4:	4618      	mov	r0, r3
 8001ea6:	f000 fd47 	bl	8002938 <RCC_SetFlashLatencyFromMSIRange>
 8001eaa:	4603      	mov	r3, r0
 8001eac:	2b00      	cmp	r3, #0
 8001eae:	d001      	beq.n	8001eb4 <HAL_RCC_OscConfig+0x120>
 8001eb0:	2301      	movs	r3, #1
 8001eb2:	e343      	b.n	800253c <HAL_RCC_OscConfig+0x7a8>
 8001eb4:	f000 fc4a 	bl	800274c <HAL_RCC_GetSysClockFreq>
 8001eb8:	4602      	mov	r2, r0
 8001eba:	4b52      	ldr	r3, [pc, #328]	@ (8002004 <HAL_RCC_OscConfig+0x270>)
 8001ebc:	689b      	ldr	r3, [r3, #8]
 8001ebe:	091b      	lsrs	r3, r3, #4
 8001ec0:	f003 030f 	and.w	r3, r3, #15
 8001ec4:	4950      	ldr	r1, [pc, #320]	@ (8002008 <HAL_RCC_OscConfig+0x274>)
 8001ec6:	5ccb      	ldrb	r3, [r1, r3]
 8001ec8:	f003 031f 	and.w	r3, r3, #31
 8001ecc:	fa22 f303 	lsr.w	r3, r2, r3
 8001ed0:	4a4e      	ldr	r2, [pc, #312]	@ (800200c <HAL_RCC_OscConfig+0x278>)
 8001ed2:	6013      	str	r3, [r2, #0]
 8001ed4:	4b4e      	ldr	r3, [pc, #312]	@ (8002010 <HAL_RCC_OscConfig+0x27c>)
 8001ed6:	681b      	ldr	r3, [r3, #0]
 8001ed8:	4618      	mov	r0, r3
 8001eda:	f7ff f951 	bl	8001180 <HAL_InitTick>
 8001ede:	4603      	mov	r3, r0
 8001ee0:	73fb      	strb	r3, [r7, #15]
 8001ee2:	7bfb      	ldrb	r3, [r7, #15]
 8001ee4:	2b00      	cmp	r3, #0
 8001ee6:	d052      	beq.n	8001f8e <HAL_RCC_OscConfig+0x1fa>
 8001ee8:	7bfb      	ldrb	r3, [r7, #15]
 8001eea:	e327      	b.n	800253c <HAL_RCC_OscConfig+0x7a8>
 8001eec:	687b      	ldr	r3, [r7, #4]
 8001eee:	699b      	ldr	r3, [r3, #24]
 8001ef0:	2b00      	cmp	r3, #0
 8001ef2:	d032      	beq.n	8001f5a <HAL_RCC_OscConfig+0x1c6>
 8001ef4:	4b43      	ldr	r3, [pc, #268]	@ (8002004 <HAL_RCC_OscConfig+0x270>)
 8001ef6:	681b      	ldr	r3, [r3, #0]
 8001ef8:	4a42      	ldr	r2, [pc, #264]	@ (8002004 <HAL_RCC_OscConfig+0x270>)
 8001efa:	f043 0301 	orr.w	r3, r3, #1
 8001efe:	6013      	str	r3, [r2, #0]
 8001f00:	f7ff fb90 	bl	8001624 <HAL_GetTick>
 8001f04:	6138      	str	r0, [r7, #16]
 8001f06:	e008      	b.n	8001f1a <HAL_RCC_OscConfig+0x186>
 8001f08:	f7ff fb8c 	bl	8001624 <HAL_GetTick>
 8001f0c:	4602      	mov	r2, r0
 8001f0e:	693b      	ldr	r3, [r7, #16]
 8001f10:	1ad3      	subs	r3, r2, r3
 8001f12:	2b02      	cmp	r3, #2
 8001f14:	d901      	bls.n	8001f1a <HAL_RCC_OscConfig+0x186>
 8001f16:	2303      	movs	r3, #3
 8001f18:	e310      	b.n	800253c <HAL_RCC_OscConfig+0x7a8>
 8001f1a:	4b3a      	ldr	r3, [pc, #232]	@ (8002004 <HAL_RCC_OscConfig+0x270>)
 8001f1c:	681b      	ldr	r3, [r3, #0]
 8001f1e:	f003 0302 	and.w	r3, r3, #2
 8001f22:	2b00      	cmp	r3, #0
 8001f24:	d0f0      	beq.n	8001f08 <HAL_RCC_OscConfig+0x174>
 8001f26:	4b37      	ldr	r3, [pc, #220]	@ (8002004 <HAL_RCC_OscConfig+0x270>)
 8001f28:	681b      	ldr	r3, [r3, #0]
 8001f2a:	4a36      	ldr	r2, [pc, #216]	@ (8002004 <HAL_RCC_OscConfig+0x270>)
 8001f2c:	f043 0308 	orr.w	r3, r3, #8
 8001f30:	6013      	str	r3, [r2, #0]
 8001f32:	4b34      	ldr	r3, [pc, #208]	@ (8002004 <HAL_RCC_OscConfig+0x270>)
 8001f34:	681b      	ldr	r3, [r3, #0]
 8001f36:	f023 02f0 	bic.w	r2, r3, #240	@ 0xf0
 8001f3a:	687b      	ldr	r3, [r7, #4]
 8001f3c:	6a1b      	ldr	r3, [r3, #32]
 8001f3e:	4931      	ldr	r1, [pc, #196]	@ (8002004 <HAL_RCC_OscConfig+0x270>)
 8001f40:	4313      	orrs	r3, r2
 8001f42:	600b      	str	r3, [r1, #0]
 8001f44:	4b2f      	ldr	r3, [pc, #188]	@ (8002004 <HAL_RCC_OscConfig+0x270>)
 8001f46:	685b      	ldr	r3, [r3, #4]
 8001f48:	f423 427f 	bic.w	r2, r3, #65280	@ 0xff00
 8001f4c:	687b      	ldr	r3, [r7, #4]
 8001f4e:	69db      	ldr	r3, [r3, #28]
 8001f50:	021b      	lsls	r3, r3, #8
 8001f52:	492c      	ldr	r1, [pc, #176]	@ (8002004 <HAL_RCC_OscConfig+0x270>)
 8001f54:	4313      	orrs	r3, r2
 8001f56:	604b      	str	r3, [r1, #4]
 8001f58:	e01a      	b.n	8001f90 <HAL_RCC_OscConfig+0x1fc>
 8001f5a:	4b2a      	ldr	r3, [pc, #168]	@ (8002004 <HAL_RCC_OscConfig+0x270>)
 8001f5c:	681b      	ldr	r3, [r3, #0]
 8001f5e:	4a29      	ldr	r2, [pc, #164]	@ (8002004 <HAL_RCC_OscConfig+0x270>)
 8001f60:	f023 0301 	bic.w	r3, r3, #1
 8001f64:	6013      	str	r3, [r2, #0]
 8001f66:	f7ff fb5d 	bl	8001624 <HAL_GetTick>
 8001f6a:	6138      	str	r0, [r7, #16]
 8001f6c:	e008      	b.n	8001f80 <HAL_RCC_OscConfig+0x1ec>
 8001f6e:	f7ff fb59 	bl	8001624 <HAL_GetTick>
 8001f72:	4602      	mov	r2, r0
 8001f74:	693b      	ldr	r3, [r7, #16]
 8001f76:	1ad3      	subs	r3, r2, r3
 8001f78:	2b02      	cmp	r3, #2
 8001f7a:	d901      	bls.n	8001f80 <HAL_RCC_OscConfig+0x1ec>
 8001f7c:	2303      	movs	r3, #3
 8001f7e:	e2dd      	b.n	800253c <HAL_RCC_OscConfig+0x7a8>
 8001f80:	4b20      	ldr	r3, [pc, #128]	@ (8002004 <HAL_RCC_OscConfig+0x270>)
 8001f82:	681b      	ldr	r3, [r3, #0]
 8001f84:	f003 0302 	and.w	r3, r3, #2
 8001f88:	2b00      	cmp	r3, #0
 8001f8a:	d1f0      	bne.n	8001f6e <HAL_RCC_OscConfig+0x1da>
 8001f8c:	e000      	b.n	8001f90 <HAL_RCC_OscConfig+0x1fc>
 8001f8e:	bf00      	nop
 8001f90:	687b      	ldr	r3, [r7, #4]
 8001f92:	681b      	ldr	r3, [r3, #0]
 8001f94:	f003 0301 	and.w	r3, r3, #1
 8001f98:	2b00      	cmp	r3, #0
 8001f9a:	d074      	beq.n	8002086 <HAL_RCC_OscConfig+0x2f2>
 8001f9c:	69bb      	ldr	r3, [r7, #24]
 8001f9e:	2b08      	cmp	r3, #8
 8001fa0:	d005      	beq.n	8001fae <HAL_RCC_OscConfig+0x21a>
 8001fa2:	69bb      	ldr	r3, [r7, #24]
 8001fa4:	2b0c      	cmp	r3, #12
 8001fa6:	d10e      	bne.n	8001fc6 <HAL_RCC_OscConfig+0x232>
 8001fa8:	697b      	ldr	r3, [r7, #20]
 8001faa:	2b03      	cmp	r3, #3
 8001fac:	d10b      	bne.n	8001fc6 <HAL_RCC_OscConfig+0x232>
 8001fae:	4b15      	ldr	r3, [pc, #84]	@ (8002004 <HAL_RCC_OscConfig+0x270>)
 8001fb0:	681b      	ldr	r3, [r3, #0]
 8001fb2:	f403 3300 	and.w	r3, r3, #131072	@ 0x20000
 8001fb6:	2b00      	cmp	r3, #0
 8001fb8:	d064      	beq.n	8002084 <HAL_RCC_OscConfig+0x2f0>
 8001fba:	687b      	ldr	r3, [r7, #4]
 8001fbc:	685b      	ldr	r3, [r3, #4]
 8001fbe:	2b00      	cmp	r3, #0
 8001fc0:	d160      	bne.n	8002084 <HAL_RCC_OscConfig+0x2f0>
 8001fc2:	2301      	movs	r3, #1
 8001fc4:	e2ba      	b.n	800253c <HAL_RCC_OscConfig+0x7a8>
 8001fc6:	687b      	ldr	r3, [r7, #4]
 8001fc8:	685b      	ldr	r3, [r3, #4]
 8001fca:	f5b3 3f80 	cmp.w	r3, #65536	@ 0x10000
 8001fce:	d106      	bne.n	8001fde <HAL_RCC_OscConfig+0x24a>
 8001fd0:	4b0c      	ldr	r3, [pc, #48]	@ (8002004 <HAL_RCC_OscConfig+0x270>)
 8001fd2:	681b      	ldr	r3, [r3, #0]
 8001fd4:	4a0b      	ldr	r2, [pc, #44]	@ (8002004 <HAL_RCC_OscConfig+0x270>)
 8001fd6:	f443 3380 	orr.w	r3, r3, #65536	@ 0x10000
 8001fda:	6013      	str	r3, [r2, #0]
 8001fdc:	e026      	b.n	800202c <HAL_RCC_OscConfig+0x298>
 8001fde:	687b      	ldr	r3, [r7, #4]
 8001fe0:	685b      	ldr	r3, [r3, #4]
 8001fe2:	f5b3 2fa0 	cmp.w	r3, #327680	@ 0x50000
 8001fe6:	d115      	bne.n	8002014 <HAL_RCC_OscConfig+0x280>
 8001fe8:	4b06      	ldr	r3, [pc, #24]	@ (8002004 <HAL_RCC_OscConfig+0x270>)
 8001fea:	681b      	ldr	r3, [r3, #0]
 8001fec:	4a05      	ldr	r2, [pc, #20]	@ (8002004 <HAL_RCC_OscConfig+0x270>)
 8001fee:	f443 2380 	orr.w	r3, r3, #262144	@ 0x40000
 8001ff2:	6013      	str	r3, [r2, #0]
 8001ff4:	4b03      	ldr	r3, [pc, #12]	@ (8002004 <HAL_RCC_OscConfig+0x270>)
 8001ff6:	681b      	ldr	r3, [r3, #0]
 8001ff8:	4a02      	ldr	r2, [pc, #8]	@ (8002004 <HAL_RCC_OscConfig+0x270>)
 8001ffa:	f443 3380 	orr.w	r3, r3, #65536	@ 0x10000
 8001ffe:	6013      	str	r3, [r2, #0]
 8002000:	e014      	b.n	800202c <HAL_RCC_OscConfig+0x298>
 8002002:	bf00      	nop
 8002004:	40021000 	.word	0x40021000
 8002008:	08008094 	.word	0x08008094
 800200c:	20000000 	.word	0x20000000
 8002010:	20000004 	.word	0x20000004
 8002014:	4ba0      	ldr	r3, [pc, #640]	@ (8002298 <HAL_RCC_OscConfig+0x504>)
 8002016:	681b      	ldr	r3, [r3, #0]
 8002018:	4a9f      	ldr	r2, [pc, #636]	@ (8002298 <HAL_RCC_OscConfig+0x504>)
 800201a:	f423 3380 	bic.w	r3, r3, #65536	@ 0x10000
 800201e:	6013      	str	r3, [r2, #0]
 8002020:	4b9d      	ldr	r3, [pc, #628]	@ (8002298 <HAL_RCC_OscConfig+0x504>)
 8002022:	681b      	ldr	r3, [r3, #0]
 8002024:	4a9c      	ldr	r2, [pc, #624]	@ (8002298 <HAL_RCC_OscConfig+0x504>)
 8002026:	f423 2380 	bic.w	r3, r3, #262144	@ 0x40000
 800202a:	6013      	str	r3, [r2, #0]
 800202c:	687b      	ldr	r3, [r7, #4]
 800202e:	685b      	ldr	r3, [r3, #4]
 8002030:	2b00      	cmp	r3, #0
 8002032:	d013      	beq.n	800205c <HAL_RCC_OscConfig+0x2c8>
 8002034:	f7ff faf6 	bl	8001624 <HAL_GetTick>
 8002038:	6138      	str	r0, [r7, #16]
 800203a:	e008      	b.n	800204e <HAL_RCC_OscConfig+0x2ba>
 800203c:	f7ff faf2 	bl	8001624 <HAL_GetTick>
 8002040:	4602      	mov	r2, r0
 8002042:	693b      	ldr	r3, [r7, #16]
 8002044:	1ad3      	subs	r3, r2, r3
 8002046:	2b64      	cmp	r3, #100	@ 0x64
 8002048:	d901      	bls.n	800204e <HAL_RCC_OscConfig+0x2ba>
 800204a:	2303      	movs	r3, #3
 800204c:	e276      	b.n	800253c <HAL_RCC_OscConfig+0x7a8>
 800204e:	4b92      	ldr	r3, [pc, #584]	@ (8002298 <HAL_RCC_OscConfig+0x504>)
 8002050:	681b      	ldr	r3, [r3, #0]
 8002052:	f403 3300 	and.w	r3, r3, #131072	@ 0x20000
 8002056:	2b00      	cmp	r3, #0
 8002058:	d0f0      	beq.n	800203c <HAL_RCC_OscConfig+0x2a8>
 800205a:	e014      	b.n	8002086 <HAL_RCC_OscConfig+0x2f2>
 800205c:	f7ff fae2 	bl	8001624 <HAL_GetTick>
 8002060:	6138      	str	r0, [r7, #16]
 8002062:	e008      	b.n	8002076 <HAL_RCC_OscConfig+0x2e2>
 8002064:	f7ff fade 	bl	8001624 <HAL_GetTick>
 8002068:	4602      	mov	r2, r0
 800206a:	693b      	ldr	r3, [r7, #16]
 800206c:	1ad3      	subs	r3, r2, r3
 800206e:	2b64      	cmp	r3, #100	@ 0x64
 8002070:	d901      	bls.n	8002076 <HAL_RCC_OscConfig+0x2e2>
 8002072:	2303      	movs	r3, #3
 8002074:	e262      	b.n	800253c <HAL_RCC_OscConfig+0x7a8>
 8002076:	4b88      	ldr	r3, [pc, #544]	@ (8002298 <HAL_RCC_OscConfig+0x504>)
 8002078:	681b      	ldr	r3, [r3, #0]
 800207a:	f403 3300 	and.w	r3, r3, #131072	@ 0x20000
 800207e:	2b00      	cmp	r3, #0
 8002080:	d1f0      	bne.n	8002064 <HAL_RCC_OscConfig+0x2d0>
 8002082:	e000      	b.n	8002086 <HAL_RCC_OscConfig+0x2f2>
 8002084:	bf00      	nop
 8002086:	687b      	ldr	r3, [r7, #4]
 8002088:	681b      	ldr	r3, [r3, #0]
 800208a:	f003 0302 	and.w	r3, r3, #2
 800208e:	2b00      	cmp	r3, #0
 8002090:	d060      	beq.n	8002154 <HAL_RCC_OscConfig+0x3c0>
 8002092:	69bb      	ldr	r3, [r7, #24]
 8002094:	2b04      	cmp	r3, #4
 8002096:	d005      	beq.n	80020a4 <HAL_RCC_OscConfig+0x310>
 8002098:	69bb      	ldr	r3, [r7, #24]
 800209a:	2b0c      	cmp	r3, #12
 800209c:	d119      	bne.n	80020d2 <HAL_RCC_OscConfig+0x33e>
 800209e:	697b      	ldr	r3, [r7, #20]
 80020a0:	2b02      	cmp	r3, #2
 80020a2:	d116      	bne.n	80020d2 <HAL_RCC_OscConfig+0x33e>
 80020a4:	4b7c      	ldr	r3, [pc, #496]	@ (8002298 <HAL_RCC_OscConfig+0x504>)
 80020a6:	681b      	ldr	r3, [r3, #0]
 80020a8:	f403 6380 	and.w	r3, r3, #1024	@ 0x400
 80020ac:	2b00      	cmp	r3, #0
 80020ae:	d005      	beq.n	80020bc <HAL_RCC_OscConfig+0x328>
 80020b0:	687b      	ldr	r3, [r7, #4]
 80020b2:	68db      	ldr	r3, [r3, #12]
 80020b4:	2b00      	cmp	r3, #0
 80020b6:	d101      	bne.n	80020bc <HAL_RCC_OscConfig+0x328>
 80020b8:	2301      	movs	r3, #1
 80020ba:	e23f      	b.n	800253c <HAL_RCC_OscConfig+0x7a8>
 80020bc:	4b76      	ldr	r3, [pc, #472]	@ (8002298 <HAL_RCC_OscConfig+0x504>)
 80020be:	685b      	ldr	r3, [r3, #4]
 80020c0:	f023 52f8 	bic.w	r2, r3, #520093696	@ 0x1f000000
 80020c4:	687b      	ldr	r3, [r7, #4]
 80020c6:	691b      	ldr	r3, [r3, #16]
 80020c8:	061b      	lsls	r3, r3, #24
 80020ca:	4973      	ldr	r1, [pc, #460]	@ (8002298 <HAL_RCC_OscConfig+0x504>)
 80020cc:	4313      	orrs	r3, r2
 80020ce:	604b      	str	r3, [r1, #4]
 80020d0:	e040      	b.n	8002154 <HAL_RCC_OscConfig+0x3c0>
 80020d2:	687b      	ldr	r3, [r7, #4]
 80020d4:	68db      	ldr	r3, [r3, #12]
 80020d6:	2b00      	cmp	r3, #0
 80020d8:	d023      	beq.n	8002122 <HAL_RCC_OscConfig+0x38e>
 80020da:	4b6f      	ldr	r3, [pc, #444]	@ (8002298 <HAL_RCC_OscConfig+0x504>)
 80020dc:	681b      	ldr	r3, [r3, #0]
 80020de:	4a6e      	ldr	r2, [pc, #440]	@ (8002298 <HAL_RCC_OscConfig+0x504>)
 80020e0:	f443 7380 	orr.w	r3, r3, #256	@ 0x100
 80020e4:	6013      	str	r3, [r2, #0]
 80020e6:	f7ff fa9d 	bl	8001624 <HAL_GetTick>
 80020ea:	6138      	str	r0, [r7, #16]
 80020ec:	e008      	b.n	8002100 <HAL_RCC_OscConfig+0x36c>
 80020ee:	f7ff fa99 	bl	8001624 <HAL_GetTick>
 80020f2:	4602      	mov	r2, r0
 80020f4:	693b      	ldr	r3, [r7, #16]
 80020f6:	1ad3      	subs	r3, r2, r3
 80020f8:	2b02      	cmp	r3, #2
 80020fa:	d901      	bls.n	8002100 <HAL_RCC_OscConfig+0x36c>
 80020fc:	2303      	movs	r3, #3
 80020fe:	e21d      	b.n	800253c <HAL_RCC_OscConfig+0x7a8>
 8002100:	4b65      	ldr	r3, [pc, #404]	@ (8002298 <HAL_RCC_OscConfig+0x504>)
 8002102:	681b      	ldr	r3, [r3, #0]
 8002104:	f403 6380 	and.w	r3, r3, #1024	@ 0x400
 8002108:	2b00      	cmp	r3, #0
 800210a:	d0f0      	beq.n	80020ee <HAL_RCC_OscConfig+0x35a>
 800210c:	4b62      	ldr	r3, [pc, #392]	@ (8002298 <HAL_RCC_OscConfig+0x504>)
 800210e:	685b      	ldr	r3, [r3, #4]
 8002110:	f023 52f8 	bic.w	r2, r3, #520093696	@ 0x1f000000
 8002114:	687b      	ldr	r3, [r7, #4]
 8002116:	691b      	ldr	r3, [r3, #16]
 8002118:	061b      	lsls	r3, r3, #24
 800211a:	495f      	ldr	r1, [pc, #380]	@ (8002298 <HAL_RCC_OscConfig+0x504>)
 800211c:	4313      	orrs	r3, r2
 800211e:	604b      	str	r3, [r1, #4]
 8002120:	e018      	b.n	8002154 <HAL_RCC_OscConfig+0x3c0>
 8002122:	4b5d      	ldr	r3, [pc, #372]	@ (8002298 <HAL_RCC_OscConfig+0x504>)
 8002124:	681b      	ldr	r3, [r3, #0]
 8002126:	4a5c      	ldr	r2, [pc, #368]	@ (8002298 <HAL_RCC_OscConfig+0x504>)
 8002128:	f423 7380 	bic.w	r3, r3, #256	@ 0x100
 800212c:	6013      	str	r3, [r2, #0]
 800212e:	f7ff fa79 	bl	8001624 <HAL_GetTick>
 8002132:	6138      	str	r0, [r7, #16]
 8002134:	e008      	b.n	8002148 <HAL_RCC_OscConfig+0x3b4>
 8002136:	f7ff fa75 	bl	8001624 <HAL_GetTick>
 800213a:	4602      	mov	r2, r0
 800213c:	693b      	ldr	r3, [r7, #16]
 800213e:	1ad3      	subs	r3, r2, r3
 8002140:	2b02      	cmp	r3, #2
 8002142:	d901      	bls.n	8002148 <HAL_RCC_OscConfig+0x3b4>
 8002144:	2303      	movs	r3, #3
 8002146:	e1f9      	b.n	800253c <HAL_RCC_OscConfig+0x7a8>
 8002148:	4b53      	ldr	r3, [pc, #332]	@ (8002298 <HAL_RCC_OscConfig+0x504>)
 800214a:	681b      	ldr	r3, [r3, #0]
 800214c:	f403 6380 	and.w	r3, r3, #1024	@ 0x400
 8002150:	2b00      	cmp	r3, #0
 8002152:	d1f0      	bne.n	8002136 <HAL_RCC_OscConfig+0x3a2>
 8002154:	687b      	ldr	r3, [r7, #4]
 8002156:	681b      	ldr	r3, [r3, #0]
 8002158:	f003 0308 	and.w	r3, r3, #8
 800215c:	2b00      	cmp	r3, #0
 800215e:	d03c      	beq.n	80021da <HAL_RCC_OscConfig+0x446>
 8002160:	687b      	ldr	r3, [r7, #4]
 8002162:	695b      	ldr	r3, [r3, #20]
 8002164:	2b00      	cmp	r3, #0
 8002166:	d01c      	beq.n	80021a2 <HAL_RCC_OscConfig+0x40e>
 8002168:	4b4b      	ldr	r3, [pc, #300]	@ (8002298 <HAL_RCC_OscConfig+0x504>)
 800216a:	f8d3 3094 	ldr.w	r3, [r3, #148]	@ 0x94
 800216e:	4a4a      	ldr	r2, [pc, #296]	@ (8002298 <HAL_RCC_OscConfig+0x504>)
 8002170:	f043 0301 	orr.w	r3, r3, #1
 8002174:	f8c2 3094 	str.w	r3, [r2, #148]	@ 0x94
 8002178:	f7ff fa54 	bl	8001624 <HAL_GetTick>
 800217c:	6138      	str	r0, [r7, #16]
 800217e:	e008      	b.n	8002192 <HAL_RCC_OscConfig+0x3fe>
 8002180:	f7ff fa50 	bl	8001624 <HAL_GetTick>
 8002184:	4602      	mov	r2, r0
 8002186:	693b      	ldr	r3, [r7, #16]
 8002188:	1ad3      	subs	r3, r2, r3
 800218a:	2b02      	cmp	r3, #2
 800218c:	d901      	bls.n	8002192 <HAL_RCC_OscConfig+0x3fe>
 800218e:	2303      	movs	r3, #3
 8002190:	e1d4      	b.n	800253c <HAL_RCC_OscConfig+0x7a8>
 8002192:	4b41      	ldr	r3, [pc, #260]	@ (8002298 <HAL_RCC_OscConfig+0x504>)
 8002194:	f8d3 3094 	ldr.w	r3, [r3, #148]	@ 0x94
 8002198:	f003 0302 	and.w	r3, r3, #2
 800219c:	2b00      	cmp	r3, #0
 800219e:	d0ef      	beq.n	8002180 <HAL_RCC_OscConfig+0x3ec>
 80021a0:	e01b      	b.n	80021da <HAL_RCC_OscConfig+0x446>
 80021a2:	4b3d      	ldr	r3, [pc, #244]	@ (8002298 <HAL_RCC_OscConfig+0x504>)
 80021a4:	f8d3 3094 	ldr.w	r3, [r3, #148]	@ 0x94
 80021a8:	4a3b      	ldr	r2, [pc, #236]	@ (8002298 <HAL_RCC_OscConfig+0x504>)
 80021aa:	f023 0301 	bic.w	r3, r3, #1
 80021ae:	f8c2 3094 	str.w	r3, [r2, #148]	@ 0x94
 80021b2:	f7ff fa37 	bl	8001624 <HAL_GetTick>
 80021b6:	6138      	str	r0, [r7, #16]
 80021b8:	e008      	b.n	80021cc <HAL_RCC_OscConfig+0x438>
 80021ba:	f7ff fa33 	bl	8001624 <HAL_GetTick>
 80021be:	4602      	mov	r2, r0
 80021c0:	693b      	ldr	r3, [r7, #16]
 80021c2:	1ad3      	subs	r3, r2, r3
 80021c4:	2b02      	cmp	r3, #2
 80021c6:	d901      	bls.n	80021cc <HAL_RCC_OscConfig+0x438>
 80021c8:	2303      	movs	r3, #3
 80021ca:	e1b7      	b.n	800253c <HAL_RCC_OscConfig+0x7a8>
 80021cc:	4b32      	ldr	r3, [pc, #200]	@ (8002298 <HAL_RCC_OscConfig+0x504>)
 80021ce:	f8d3 3094 	ldr.w	r3, [r3, #148]	@ 0x94
 80021d2:	f003 0302 	and.w	r3, r3, #2
 80021d6:	2b00      	cmp	r3, #0
 80021d8:	d1ef      	bne.n	80021ba <HAL_RCC_OscConfig+0x426>
 80021da:	687b      	ldr	r3, [r7, #4]
 80021dc:	681b      	ldr	r3, [r3, #0]
 80021de:	f003 0304 	and.w	r3, r3, #4
 80021e2:	2b00      	cmp	r3, #0
 80021e4:	f000 80a6 	beq.w	8002334 <HAL_RCC_OscConfig+0x5a0>
 80021e8:	2300      	movs	r3, #0
 80021ea:	77fb      	strb	r3, [r7, #31]
 80021ec:	4b2a      	ldr	r3, [pc, #168]	@ (8002298 <HAL_RCC_OscConfig+0x504>)
 80021ee:	6d9b      	ldr	r3, [r3, #88]	@ 0x58
 80021f0:	f003 5380 	and.w	r3, r3, #268435456	@ 0x10000000
 80021f4:	2b00      	cmp	r3, #0
 80021f6:	d10d      	bne.n	8002214 <HAL_RCC_OscConfig+0x480>
 80021f8:	4b27      	ldr	r3, [pc, #156]	@ (8002298 <HAL_RCC_OscConfig+0x504>)
 80021fa:	6d9b      	ldr	r3, [r3, #88]	@ 0x58
 80021fc:	4a26      	ldr	r2, [pc, #152]	@ (8002298 <HAL_RCC_OscConfig+0x504>)
 80021fe:	f043 5380 	orr.w	r3, r3, #268435456	@ 0x10000000
 8002202:	6593      	str	r3, [r2, #88]	@ 0x58
 8002204:	4b24      	ldr	r3, [pc, #144]	@ (8002298 <HAL_RCC_OscConfig+0x504>)
 8002206:	6d9b      	ldr	r3, [r3, #88]	@ 0x58
 8002208:	f003 5380 	and.w	r3, r3, #268435456	@ 0x10000000
 800220c:	60bb      	str	r3, [r7, #8]
 800220e:	68bb      	ldr	r3, [r7, #8]
 8002210:	2301      	movs	r3, #1
 8002212:	77fb      	strb	r3, [r7, #31]
 8002214:	4b21      	ldr	r3, [pc, #132]	@ (800229c <HAL_RCC_OscConfig+0x508>)
 8002216:	681b      	ldr	r3, [r3, #0]
 8002218:	f403 7380 	and.w	r3, r3, #256	@ 0x100
 800221c:	2b00      	cmp	r3, #0
 800221e:	d118      	bne.n	8002252 <HAL_RCC_OscConfig+0x4be>
 8002220:	4b1e      	ldr	r3, [pc, #120]	@ (800229c <HAL_RCC_OscConfig+0x508>)
 8002222:	681b      	ldr	r3, [r3, #0]
 8002224:	4a1d      	ldr	r2, [pc, #116]	@ (800229c <HAL_RCC_OscConfig+0x508>)
 8002226:	f443 7380 	orr.w	r3, r3, #256	@ 0x100
 800222a:	6013      	str	r3, [r2, #0]
 800222c:	f7ff f9fa 	bl	8001624 <HAL_GetTick>
 8002230:	6138      	str	r0, [r7, #16]
 8002232:	e008      	b.n	8002246 <HAL_RCC_OscConfig+0x4b2>
 8002234:	f7ff f9f6 	bl	8001624 <HAL_GetTick>
 8002238:	4602      	mov	r2, r0
 800223a:	693b      	ldr	r3, [r7, #16]
 800223c:	1ad3      	subs	r3, r2, r3
 800223e:	2b02      	cmp	r3, #2
 8002240:	d901      	bls.n	8002246 <HAL_RCC_OscConfig+0x4b2>
 8002242:	2303      	movs	r3, #3
 8002244:	e17a      	b.n	800253c <HAL_RCC_OscConfig+0x7a8>
 8002246:	4b15      	ldr	r3, [pc, #84]	@ (800229c <HAL_RCC_OscConfig+0x508>)
 8002248:	681b      	ldr	r3, [r3, #0]
 800224a:	f403 7380 	and.w	r3, r3, #256	@ 0x100
 800224e:	2b00      	cmp	r3, #0
 8002250:	d0f0      	beq.n	8002234 <HAL_RCC_OscConfig+0x4a0>
 8002252:	687b      	ldr	r3, [r7, #4]
 8002254:	689b      	ldr	r3, [r3, #8]
 8002256:	2b01      	cmp	r3, #1
 8002258:	d108      	bne.n	800226c <HAL_RCC_OscConfig+0x4d8>
 800225a:	4b0f      	ldr	r3, [pc, #60]	@ (8002298 <HAL_RCC_OscConfig+0x504>)
 800225c:	f8d3 3090 	ldr.w	r3, [r3, #144]	@ 0x90
 8002260:	4a0d      	ldr	r2, [pc, #52]	@ (8002298 <HAL_RCC_OscConfig+0x504>)
 8002262:	f043 0301 	orr.w	r3, r3, #1
 8002266:	f8c2 3090 	str.w	r3, [r2, #144]	@ 0x90
 800226a:	e029      	b.n	80022c0 <HAL_RCC_OscConfig+0x52c>
 800226c:	687b      	ldr	r3, [r7, #4]
 800226e:	689b      	ldr	r3, [r3, #8]
 8002270:	2b05      	cmp	r3, #5
 8002272:	d115      	bne.n	80022a0 <HAL_RCC_OscConfig+0x50c>
 8002274:	4b08      	ldr	r3, [pc, #32]	@ (8002298 <HAL_RCC_OscConfig+0x504>)
 8002276:	f8d3 3090 	ldr.w	r3, [r3, #144]	@ 0x90
 800227a:	4a07      	ldr	r2, [pc, #28]	@ (8002298 <HAL_RCC_OscConfig+0x504>)
 800227c:	f043 0304 	orr.w	r3, r3, #4
 8002280:	f8c2 3090 	str.w	r3, [r2, #144]	@ 0x90
 8002284:	4b04      	ldr	r3, [pc, #16]	@ (8002298 <HAL_RCC_OscConfig+0x504>)
 8002286:	f8d3 3090 	ldr.w	r3, [r3, #144]	@ 0x90
 800228a:	4a03      	ldr	r2, [pc, #12]	@ (8002298 <HAL_RCC_OscConfig+0x504>)
 800228c:	f043 0301 	orr.w	r3, r3, #1
 8002290:	f8c2 3090 	str.w	r3, [r2, #144]	@ 0x90
 8002294:	e014      	b.n	80022c0 <HAL_RCC_OscConfig+0x52c>
 8002296:	bf00      	nop
 8002298:	40021000 	.word	0x40021000
 800229c:	40007000 	.word	0x40007000
 80022a0:	4b9c      	ldr	r3, [pc, #624]	@ (8002514 <HAL_RCC_OscConfig+0x780>)
 80022a2:	f8d3 3090 	ldr.w	r3, [r3, #144]	@ 0x90
 80022a6:	4a9b      	ldr	r2, [pc, #620]	@ (8002514 <HAL_RCC_OscConfig+0x780>)
 80022a8:	f023 0301 	bic.w	r3, r3, #1
 80022ac:	f8c2 3090 	str.w	r3, [r2, #144]	@ 0x90
 80022b0:	4b98      	ldr	r3, [pc, #608]	@ (8002514 <HAL_RCC_OscConfig+0x780>)
 80022b2:	f8d3 3090 	ldr.w	r3, [r3, #144]	@ 0x90
 80022b6:	4a97      	ldr	r2, [pc, #604]	@ (8002514 <HAL_RCC_OscConfig+0x780>)
 80022b8:	f023 0304 	bic.w	r3, r3, #4
 80022bc:	f8c2 3090 	str.w	r3, [r2, #144]	@ 0x90
 80022c0:	687b      	ldr	r3, [r7, #4]
 80022c2:	689b      	ldr	r3, [r3, #8]
 80022c4:	2b00      	cmp	r3, #0
 80022c6:	d016      	beq.n	80022f6 <HAL_RCC_OscConfig+0x562>
 80022c8:	f7ff f9ac 	bl	8001624 <HAL_GetTick>
 80022cc:	6138      	str	r0, [r7, #16]
 80022ce:	e00a      	b.n	80022e6 <HAL_RCC_OscConfig+0x552>
 80022d0:	f7ff f9a8 	bl	8001624 <HAL_GetTick>
 80022d4:	4602      	mov	r2, r0
 80022d6:	693b      	ldr	r3, [r7, #16]
 80022d8:	1ad3      	subs	r3, r2, r3
 80022da:	f241 3288 	movw	r2, #5000	@ 0x1388
 80022de:	4293      	cmp	r3, r2
 80022e0:	d901      	bls.n	80022e6 <HAL_RCC_OscConfig+0x552>
 80022e2:	2303      	movs	r3, #3
 80022e4:	e12a      	b.n	800253c <HAL_RCC_OscConfig+0x7a8>
 80022e6:	4b8b      	ldr	r3, [pc, #556]	@ (8002514 <HAL_RCC_OscConfig+0x780>)
 80022e8:	f8d3 3090 	ldr.w	r3, [r3, #144]	@ 0x90
 80022ec:	f003 0302 	and.w	r3, r3, #2
 80022f0:	2b00      	cmp	r3, #0
 80022f2:	d0ed      	beq.n	80022d0 <HAL_RCC_OscConfig+0x53c>
 80022f4:	e015      	b.n	8002322 <HAL_RCC_OscConfig+0x58e>
 80022f6:	f7ff f995 	bl	8001624 <HAL_GetTick>
 80022fa:	6138      	str	r0, [r7, #16]
 80022fc:	e00a      	b.n	8002314 <HAL_RCC_OscConfig+0x580>
 80022fe:	f7ff f991 	bl	8001624 <HAL_GetTick>
 8002302:	4602      	mov	r2, r0
 8002304:	693b      	ldr	r3, [r7, #16]
 8002306:	1ad3      	subs	r3, r2, r3
 8002308:	f241 3288 	movw	r2, #5000	@ 0x1388
 800230c:	4293      	cmp	r3, r2
 800230e:	d901      	bls.n	8002314 <HAL_RCC_OscConfig+0x580>
 8002310:	2303      	movs	r3, #3
 8002312:	e113      	b.n	800253c <HAL_RCC_OscConfig+0x7a8>
 8002314:	4b7f      	ldr	r3, [pc, #508]	@ (8002514 <HAL_RCC_OscConfig+0x780>)
 8002316:	f8d3 3090 	ldr.w	r3, [r3, #144]	@ 0x90
 800231a:	f003 0302 	and.w	r3, r3, #2
 800231e:	2b00      	cmp	r3, #0
 8002320:	d1ed      	bne.n	80022fe <HAL_RCC_OscConfig+0x56a>
 8002322:	7ffb      	ldrb	r3, [r7, #31]
 8002324:	2b01      	cmp	r3, #1
 8002326:	d105      	bne.n	8002334 <HAL_RCC_OscConfig+0x5a0>
 8002328:	4b7a      	ldr	r3, [pc, #488]	@ (8002514 <HAL_RCC_OscConfig+0x780>)
 800232a:	6d9b      	ldr	r3, [r3, #88]	@ 0x58
 800232c:	4a79      	ldr	r2, [pc, #484]	@ (8002514 <HAL_RCC_OscConfig+0x780>)
 800232e:	f023 5380 	bic.w	r3, r3, #268435456	@ 0x10000000
 8002332:	6593      	str	r3, [r2, #88]	@ 0x58
 8002334:	687b      	ldr	r3, [r7, #4]
 8002336:	6a9b      	ldr	r3, [r3, #40]	@ 0x28
 8002338:	2b00      	cmp	r3, #0
 800233a:	f000 80fe 	beq.w	800253a <HAL_RCC_OscConfig+0x7a6>
 800233e:	687b      	ldr	r3, [r7, #4]
 8002340:	6a9b      	ldr	r3, [r3, #40]	@ 0x28
 8002342:	2b02      	cmp	r3, #2
 8002344:	f040 80d0 	bne.w	80024e8 <HAL_RCC_OscConfig+0x754>
 8002348:	4b72      	ldr	r3, [pc, #456]	@ (8002514 <HAL_RCC_OscConfig+0x780>)
 800234a:	68db      	ldr	r3, [r3, #12]
 800234c:	617b      	str	r3, [r7, #20]
 800234e:	697b      	ldr	r3, [r7, #20]
 8002350:	f003 0203 	and.w	r2, r3, #3
 8002354:	687b      	ldr	r3, [r7, #4]
 8002356:	6adb      	ldr	r3, [r3, #44]	@ 0x2c
 8002358:	429a      	cmp	r2, r3
 800235a:	d130      	bne.n	80023be <HAL_RCC_OscConfig+0x62a>
 800235c:	697b      	ldr	r3, [r7, #20]
 800235e:	f003 0270 	and.w	r2, r3, #112	@ 0x70
 8002362:	687b      	ldr	r3, [r7, #4]
 8002364:	6b1b      	ldr	r3, [r3, #48]	@ 0x30
 8002366:	3b01      	subs	r3, #1
 8002368:	011b      	lsls	r3, r3, #4
 800236a:	429a      	cmp	r2, r3
 800236c:	d127      	bne.n	80023be <HAL_RCC_OscConfig+0x62a>
 800236e:	697b      	ldr	r3, [r7, #20]
 8002370:	f403 42fe 	and.w	r2, r3, #32512	@ 0x7f00
 8002374:	687b      	ldr	r3, [r7, #4]
 8002376:	6b5b      	ldr	r3, [r3, #52]	@ 0x34
 8002378:	021b      	lsls	r3, r3, #8
 800237a:	429a      	cmp	r2, r3
 800237c:	d11f      	bne.n	80023be <HAL_RCC_OscConfig+0x62a>
 800237e:	697b      	ldr	r3, [r7, #20]
 8002380:	f403 3300 	and.w	r3, r3, #131072	@ 0x20000
 8002384:	687a      	ldr	r2, [r7, #4]
 8002386:	6b92      	ldr	r2, [r2, #56]	@ 0x38
 8002388:	2a07      	cmp	r2, #7
 800238a:	bf14      	ite	ne
 800238c:	2201      	movne	r2, #1
 800238e:	2200      	moveq	r2, #0
 8002390:	b2d2      	uxtb	r2, r2
 8002392:	4293      	cmp	r3, r2
 8002394:	d113      	bne.n	80023be <HAL_RCC_OscConfig+0x62a>
 8002396:	697b      	ldr	r3, [r7, #20]
 8002398:	f403 02c0 	and.w	r2, r3, #6291456	@ 0x600000
 800239c:	687b      	ldr	r3, [r7, #4]
 800239e:	6bdb      	ldr	r3, [r3, #60]	@ 0x3c
 80023a0:	085b      	lsrs	r3, r3, #1
 80023a2:	3b01      	subs	r3, #1
 80023a4:	055b      	lsls	r3, r3, #21
 80023a6:	429a      	cmp	r2, r3
 80023a8:	d109      	bne.n	80023be <HAL_RCC_OscConfig+0x62a>
 80023aa:	697b      	ldr	r3, [r7, #20]
 80023ac:	f003 62c0 	and.w	r2, r3, #100663296	@ 0x6000000
 80023b0:	687b      	ldr	r3, [r7, #4]
 80023b2:	6c1b      	ldr	r3, [r3, #64]	@ 0x40
 80023b4:	085b      	lsrs	r3, r3, #1
 80023b6:	3b01      	subs	r3, #1
 80023b8:	065b      	lsls	r3, r3, #25
 80023ba:	429a      	cmp	r2, r3
 80023bc:	d06e      	beq.n	800249c <HAL_RCC_OscConfig+0x708>
 80023be:	69bb      	ldr	r3, [r7, #24]
 80023c0:	2b0c      	cmp	r3, #12
 80023c2:	d069      	beq.n	8002498 <HAL_RCC_OscConfig+0x704>
 80023c4:	4b53      	ldr	r3, [pc, #332]	@ (8002514 <HAL_RCC_OscConfig+0x780>)
 80023c6:	681b      	ldr	r3, [r3, #0]
 80023c8:	f003 6380 	and.w	r3, r3, #67108864	@ 0x4000000
 80023cc:	2b00      	cmp	r3, #0
 80023ce:	d105      	bne.n	80023dc <HAL_RCC_OscConfig+0x648>
 80023d0:	4b50      	ldr	r3, [pc, #320]	@ (8002514 <HAL_RCC_OscConfig+0x780>)
 80023d2:	681b      	ldr	r3, [r3, #0]
 80023d4:	f003 5380 	and.w	r3, r3, #268435456	@ 0x10000000
 80023d8:	2b00      	cmp	r3, #0
 80023da:	d001      	beq.n	80023e0 <HAL_RCC_OscConfig+0x64c>
 80023dc:	2301      	movs	r3, #1
 80023de:	e0ad      	b.n	800253c <HAL_RCC_OscConfig+0x7a8>
 80023e0:	4b4c      	ldr	r3, [pc, #304]	@ (8002514 <HAL_RCC_OscConfig+0x780>)
 80023e2:	681b      	ldr	r3, [r3, #0]
 80023e4:	4a4b      	ldr	r2, [pc, #300]	@ (8002514 <HAL_RCC_OscConfig+0x780>)
 80023e6:	f023 7380 	bic.w	r3, r3, #16777216	@ 0x1000000
 80023ea:	6013      	str	r3, [r2, #0]
 80023ec:	f7ff f91a 	bl	8001624 <HAL_GetTick>
 80023f0:	6138      	str	r0, [r7, #16]
 80023f2:	e008      	b.n	8002406 <HAL_RCC_OscConfig+0x672>
 80023f4:	f7ff f916 	bl	8001624 <HAL_GetTick>
 80023f8:	4602      	mov	r2, r0
 80023fa:	693b      	ldr	r3, [r7, #16]
 80023fc:	1ad3      	subs	r3, r2, r3
 80023fe:	2b02      	cmp	r3, #2
 8002400:	d901      	bls.n	8002406 <HAL_RCC_OscConfig+0x672>
 8002402:	2303      	movs	r3, #3
 8002404:	e09a      	b.n	800253c <HAL_RCC_OscConfig+0x7a8>
 8002406:	4b43      	ldr	r3, [pc, #268]	@ (8002514 <HAL_RCC_OscConfig+0x780>)
 8002408:	681b      	ldr	r3, [r3, #0]
 800240a:	f003 7300 	and.w	r3, r3, #33554432	@ 0x2000000
 800240e:	2b00      	cmp	r3, #0
 8002410:	d1f0      	bne.n	80023f4 <HAL_RCC_OscConfig+0x660>
 8002412:	4b40      	ldr	r3, [pc, #256]	@ (8002514 <HAL_RCC_OscConfig+0x780>)
 8002414:	68da      	ldr	r2, [r3, #12]
 8002416:	4b40      	ldr	r3, [pc, #256]	@ (8002518 <HAL_RCC_OscConfig+0x784>)
 8002418:	4013      	ands	r3, r2
 800241a:	687a      	ldr	r2, [r7, #4]
 800241c:	6ad1      	ldr	r1, [r2, #44]	@ 0x2c
 800241e:	687a      	ldr	r2, [r7, #4]
 8002420:	6b12      	ldr	r2, [r2, #48]	@ 0x30
 8002422:	3a01      	subs	r2, #1
 8002424:	0112      	lsls	r2, r2, #4
 8002426:	4311      	orrs	r1, r2
 8002428:	687a      	ldr	r2, [r7, #4]
 800242a:	6b52      	ldr	r2, [r2, #52]	@ 0x34
 800242c:	0212      	lsls	r2, r2, #8
 800242e:	4311      	orrs	r1, r2
 8002430:	687a      	ldr	r2, [r7, #4]
 8002432:	6bd2      	ldr	r2, [r2, #60]	@ 0x3c
 8002434:	0852      	lsrs	r2, r2, #1
 8002436:	3a01      	subs	r2, #1
 8002438:	0552      	lsls	r2, r2, #21
 800243a:	4311      	orrs	r1, r2
 800243c:	687a      	ldr	r2, [r7, #4]
 800243e:	6c12      	ldr	r2, [r2, #64]	@ 0x40
 8002440:	0852      	lsrs	r2, r2, #1
 8002442:	3a01      	subs	r2, #1
 8002444:	0652      	lsls	r2, r2, #25
 8002446:	4311      	orrs	r1, r2
 8002448:	687a      	ldr	r2, [r7, #4]
 800244a:	6b92      	ldr	r2, [r2, #56]	@ 0x38
 800244c:	0912      	lsrs	r2, r2, #4
 800244e:	0452      	lsls	r2, r2, #17
 8002450:	430a      	orrs	r2, r1
 8002452:	4930      	ldr	r1, [pc, #192]	@ (8002514 <HAL_RCC_OscConfig+0x780>)
 8002454:	4313      	orrs	r3, r2
 8002456:	60cb      	str	r3, [r1, #12]
 8002458:	4b2e      	ldr	r3, [pc, #184]	@ (8002514 <HAL_RCC_OscConfig+0x780>)
 800245a:	681b      	ldr	r3, [r3, #0]
 800245c:	4a2d      	ldr	r2, [pc, #180]	@ (8002514 <HAL_RCC_OscConfig+0x780>)
 800245e:	f043 7380 	orr.w	r3, r3, #16777216	@ 0x1000000
 8002462:	6013      	str	r3, [r2, #0]
 8002464:	4b2b      	ldr	r3, [pc, #172]	@ (8002514 <HAL_RCC_OscConfig+0x780>)
 8002466:	68db      	ldr	r3, [r3, #12]
 8002468:	4a2a      	ldr	r2, [pc, #168]	@ (8002514 <HAL_RCC_OscConfig+0x780>)
 800246a:	f043 7380 	orr.w	r3, r3, #16777216	@ 0x1000000
 800246e:	60d3      	str	r3, [r2, #12]
 8002470:	f7ff f8d8 	bl	8001624 <HAL_GetTick>
 8002474:	6138      	str	r0, [r7, #16]
 8002476:	e008      	b.n	800248a <HAL_RCC_OscConfig+0x6f6>
 8002478:	f7ff f8d4 	bl	8001624 <HAL_GetTick>
 800247c:	4602      	mov	r2, r0
 800247e:	693b      	ldr	r3, [r7, #16]
 8002480:	1ad3      	subs	r3, r2, r3
 8002482:	2b02      	cmp	r3, #2
 8002484:	d901      	bls.n	800248a <HAL_RCC_OscConfig+0x6f6>
 8002486:	2303      	movs	r3, #3
 8002488:	e058      	b.n	800253c <HAL_RCC_OscConfig+0x7a8>
 800248a:	4b22      	ldr	r3, [pc, #136]	@ (8002514 <HAL_RCC_OscConfig+0x780>)
 800248c:	681b      	ldr	r3, [r3, #0]
 800248e:	f003 7300 	and.w	r3, r3, #33554432	@ 0x2000000
 8002492:	2b00      	cmp	r3, #0
 8002494:	d0f0      	beq.n	8002478 <HAL_RCC_OscConfig+0x6e4>
 8002496:	e050      	b.n	800253a <HAL_RCC_OscConfig+0x7a6>
 8002498:	2301      	movs	r3, #1
 800249a:	e04f      	b.n	800253c <HAL_RCC_OscConfig+0x7a8>
 800249c:	4b1d      	ldr	r3, [pc, #116]	@ (8002514 <HAL_RCC_OscConfig+0x780>)
 800249e:	681b      	ldr	r3, [r3, #0]
 80024a0:	f003 7300 	and.w	r3, r3, #33554432	@ 0x2000000
 80024a4:	2b00      	cmp	r3, #0
 80024a6:	d148      	bne.n	800253a <HAL_RCC_OscConfig+0x7a6>
 80024a8:	4b1a      	ldr	r3, [pc, #104]	@ (8002514 <HAL_RCC_OscConfig+0x780>)
 80024aa:	681b      	ldr	r3, [r3, #0]
 80024ac:	4a19      	ldr	r2, [pc, #100]	@ (8002514 <HAL_RCC_OscConfig+0x780>)
 80024ae:	f043 7380 	orr.w	r3, r3, #16777216	@ 0x1000000
 80024b2:	6013      	str	r3, [r2, #0]
 80024b4:	4b17      	ldr	r3, [pc, #92]	@ (8002514 <HAL_RCC_OscConfig+0x780>)
 80024b6:	68db      	ldr	r3, [r3, #12]
 80024b8:	4a16      	ldr	r2, [pc, #88]	@ (8002514 <HAL_RCC_OscConfig+0x780>)
 80024ba:	f043 7380 	orr.w	r3, r3, #16777216	@ 0x1000000
 80024be:	60d3      	str	r3, [r2, #12]
 80024c0:	f7ff f8b0 	bl	8001624 <HAL_GetTick>
 80024c4:	6138      	str	r0, [r7, #16]
 80024c6:	e008      	b.n	80024da <HAL_RCC_OscConfig+0x746>
 80024c8:	f7ff f8ac 	bl	8001624 <HAL_GetTick>
 80024cc:	4602      	mov	r2, r0
 80024ce:	693b      	ldr	r3, [r7, #16]
 80024d0:	1ad3      	subs	r3, r2, r3
 80024d2:	2b02      	cmp	r3, #2
 80024d4:	d901      	bls.n	80024da <HAL_RCC_OscConfig+0x746>
 80024d6:	2303      	movs	r3, #3
 80024d8:	e030      	b.n	800253c <HAL_RCC_OscConfig+0x7a8>
 80024da:	4b0e      	ldr	r3, [pc, #56]	@ (8002514 <HAL_RCC_OscConfig+0x780>)
 80024dc:	681b      	ldr	r3, [r3, #0]
 80024de:	f003 7300 	and.w	r3, r3, #33554432	@ 0x2000000
 80024e2:	2b00      	cmp	r3, #0
 80024e4:	d0f0      	beq.n	80024c8 <HAL_RCC_OscConfig+0x734>
 80024e6:	e028      	b.n	800253a <HAL_RCC_OscConfig+0x7a6>
 80024e8:	69bb      	ldr	r3, [r7, #24]
 80024ea:	2b0c      	cmp	r3, #12
 80024ec:	d023      	beq.n	8002536 <HAL_RCC_OscConfig+0x7a2>
 80024ee:	4b09      	ldr	r3, [pc, #36]	@ (8002514 <HAL_RCC_OscConfig+0x780>)
 80024f0:	681b      	ldr	r3, [r3, #0]
 80024f2:	4a08      	ldr	r2, [pc, #32]	@ (8002514 <HAL_RCC_OscConfig+0x780>)
 80024f4:	f023 7380 	bic.w	r3, r3, #16777216	@ 0x1000000
 80024f8:	6013      	str	r3, [r2, #0]
 80024fa:	f7ff f893 	bl	8001624 <HAL_GetTick>
 80024fe:	6138      	str	r0, [r7, #16]
 8002500:	e00c      	b.n	800251c <HAL_RCC_OscConfig+0x788>
 8002502:	f7ff f88f 	bl	8001624 <HAL_GetTick>
 8002506:	4602      	mov	r2, r0
 8002508:	693b      	ldr	r3, [r7, #16]
 800250a:	1ad3      	subs	r3, r2, r3
 800250c:	2b02      	cmp	r3, #2
 800250e:	d905      	bls.n	800251c <HAL_RCC_OscConfig+0x788>
 8002510:	2303      	movs	r3, #3
 8002512:	e013      	b.n	800253c <HAL_RCC_OscConfig+0x7a8>
 8002514:	40021000 	.word	0x40021000
 8002518:	f99d808c 	.word	0xf99d808c
 800251c:	4b09      	ldr	r3, [pc, #36]	@ (8002544 <HAL_RCC_OscConfig+0x7b0>)
 800251e:	681b      	ldr	r3, [r3, #0]
 8002520:	f003 7300 	and.w	r3, r3, #33554432	@ 0x2000000
 8002524:	2b00      	cmp	r3, #0
 8002526:	d1ec      	bne.n	8002502 <HAL_RCC_OscConfig+0x76e>
 8002528:	4b06      	ldr	r3, [pc, #24]	@ (8002544 <HAL_RCC_OscConfig+0x7b0>)
 800252a:	68da      	ldr	r2, [r3, #12]
 800252c:	4905      	ldr	r1, [pc, #20]	@ (8002544 <HAL_RCC_OscConfig+0x7b0>)
 800252e:	4b06      	ldr	r3, [pc, #24]	@ (8002548 <HAL_RCC_OscConfig+0x7b4>)
 8002530:	4013      	ands	r3, r2
 8002532:	60cb      	str	r3, [r1, #12]
 8002534:	e001      	b.n	800253a <HAL_RCC_OscConfig+0x7a6>
 8002536:	2301      	movs	r3, #1
 8002538:	e000      	b.n	800253c <HAL_RCC_OscConfig+0x7a8>
 800253a:	2300      	movs	r3, #0
 800253c:	4618      	mov	r0, r3
 800253e:	3720      	adds	r7, #32
 8002540:	46bd      	mov	sp, r7
 8002542:	bd80      	pop	{r7, pc}
 8002544:	40021000 	.word	0x40021000
 8002548:	feeefffc 	.word	0xfeeefffc

0800254c <HAL_RCC_ClockConfig>:
 800254c:	b580      	push	{r7, lr}
 800254e:	b084      	sub	sp, #16
 8002550:	af00      	add	r7, sp, #0
 8002552:	6078      	str	r0, [r7, #4]
 8002554:	6039      	str	r1, [r7, #0]
 8002556:	687b      	ldr	r3, [r7, #4]
 8002558:	2b00      	cmp	r3, #0
 800255a:	d101      	bne.n	8002560 <HAL_RCC_ClockConfig+0x14>
 800255c:	2301      	movs	r3, #1
 800255e:	e0e7      	b.n	8002730 <HAL_RCC_ClockConfig+0x1e4>
 8002560:	4b75      	ldr	r3, [pc, #468]	@ (8002738 <HAL_RCC_ClockConfig+0x1ec>)
 8002562:	681b      	ldr	r3, [r3, #0]
 8002564:	f003 0307 	and.w	r3, r3, #7
 8002568:	683a      	ldr	r2, [r7, #0]
 800256a:	429a      	cmp	r2, r3
 800256c:	d910      	bls.n	8002590 <HAL_RCC_ClockConfig+0x44>
 800256e:	4b72      	ldr	r3, [pc, #456]	@ (8002738 <HAL_RCC_ClockConfig+0x1ec>)
 8002570:	681b      	ldr	r3, [r3, #0]
 8002572:	f023 0207 	bic.w	r2, r3, #7
 8002576:	4970      	ldr	r1, [pc, #448]	@ (8002738 <HAL_RCC_ClockConfig+0x1ec>)
 8002578:	683b      	ldr	r3, [r7, #0]
 800257a:	4313      	orrs	r3, r2
 800257c:	600b      	str	r3, [r1, #0]
 800257e:	4b6e      	ldr	r3, [pc, #440]	@ (8002738 <HAL_RCC_ClockConfig+0x1ec>)
 8002580:	681b      	ldr	r3, [r3, #0]
 8002582:	f003 0307 	and.w	r3, r3, #7
 8002586:	683a      	ldr	r2, [r7, #0]
 8002588:	429a      	cmp	r2, r3
 800258a:	d001      	beq.n	8002590 <HAL_RCC_ClockConfig+0x44>
 800258c:	2301      	movs	r3, #1
 800258e:	e0cf      	b.n	8002730 <HAL_RCC_ClockConfig+0x1e4>
 8002590:	687b      	ldr	r3, [r7, #4]
 8002592:	681b      	ldr	r3, [r3, #0]
 8002594:	f003 0302 	and.w	r3, r3, #2
 8002598:	2b00      	cmp	r3, #0
 800259a:	d010      	beq.n	80025be <HAL_RCC_ClockConfig+0x72>
 800259c:	687b      	ldr	r3, [r7, #4]
 800259e:	689a      	ldr	r2, [r3, #8]
 80025a0:	4b66      	ldr	r3, [pc, #408]	@ (800273c <HAL_RCC_ClockConfig+0x1f0>)
 80025a2:	689b      	ldr	r3, [r3, #8]
 80025a4:	f003 03f0 	and.w	r3, r3, #240	@ 0xf0
 80025a8:	429a      	cmp	r2, r3
 80025aa:	d908      	bls.n	80025be <HAL_RCC_ClockConfig+0x72>
 80025ac:	4b63      	ldr	r3, [pc, #396]	@ (800273c <HAL_RCC_ClockConfig+0x1f0>)
 80025ae:	689b      	ldr	r3, [r3, #8]
 80025b0:	f023 02f0 	bic.w	r2, r3, #240	@ 0xf0
 80025b4:	687b      	ldr	r3, [r7, #4]
 80025b6:	689b      	ldr	r3, [r3, #8]
 80025b8:	4960      	ldr	r1, [pc, #384]	@ (800273c <HAL_RCC_ClockConfig+0x1f0>)
 80025ba:	4313      	orrs	r3, r2
 80025bc:	608b      	str	r3, [r1, #8]
 80025be:	687b      	ldr	r3, [r7, #4]
 80025c0:	681b      	ldr	r3, [r3, #0]
 80025c2:	f003 0301 	and.w	r3, r3, #1
 80025c6:	2b00      	cmp	r3, #0
 80025c8:	d04c      	beq.n	8002664 <HAL_RCC_ClockConfig+0x118>
 80025ca:	687b      	ldr	r3, [r7, #4]
 80025cc:	685b      	ldr	r3, [r3, #4]
 80025ce:	2b03      	cmp	r3, #3
 80025d0:	d107      	bne.n	80025e2 <HAL_RCC_ClockConfig+0x96>
 80025d2:	4b5a      	ldr	r3, [pc, #360]	@ (800273c <HAL_RCC_ClockConfig+0x1f0>)
 80025d4:	681b      	ldr	r3, [r3, #0]
 80025d6:	f003 7300 	and.w	r3, r3, #33554432	@ 0x2000000
 80025da:	2b00      	cmp	r3, #0
 80025dc:	d121      	bne.n	8002622 <HAL_RCC_ClockConfig+0xd6>
 80025de:	2301      	movs	r3, #1
 80025e0:	e0a6      	b.n	8002730 <HAL_RCC_ClockConfig+0x1e4>
 80025e2:	687b      	ldr	r3, [r7, #4]
 80025e4:	685b      	ldr	r3, [r3, #4]
 80025e6:	2b02      	cmp	r3, #2
 80025e8:	d107      	bne.n	80025fa <HAL_RCC_ClockConfig+0xae>
 80025ea:	4b54      	ldr	r3, [pc, #336]	@ (800273c <HAL_RCC_ClockConfig+0x1f0>)
 80025ec:	681b      	ldr	r3, [r3, #0]
 80025ee:	f403 3300 	and.w	r3, r3, #131072	@ 0x20000
 80025f2:	2b00      	cmp	r3, #0
 80025f4:	d115      	bne.n	8002622 <HAL_RCC_ClockConfig+0xd6>
 80025f6:	2301      	movs	r3, #1
 80025f8:	e09a      	b.n	8002730 <HAL_RCC_ClockConfig+0x1e4>
 80025fa:	687b      	ldr	r3, [r7, #4]
 80025fc:	685b      	ldr	r3, [r3, #4]
 80025fe:	2b00      	cmp	r3, #0
 8002600:	d107      	bne.n	8002612 <HAL_RCC_ClockConfig+0xc6>
 8002602:	4b4e      	ldr	r3, [pc, #312]	@ (800273c <HAL_RCC_ClockConfig+0x1f0>)
 8002604:	681b      	ldr	r3, [r3, #0]
 8002606:	f003 0302 	and.w	r3, r3, #2
 800260a:	2b00      	cmp	r3, #0
 800260c:	d109      	bne.n	8002622 <HAL_RCC_ClockConfig+0xd6>
 800260e:	2301      	movs	r3, #1
 8002610:	e08e      	b.n	8002730 <HAL_RCC_ClockConfig+0x1e4>
 8002612:	4b4a      	ldr	r3, [pc, #296]	@ (800273c <HAL_RCC_ClockConfig+0x1f0>)
 8002614:	681b      	ldr	r3, [r3, #0]
 8002616:	f403 6380 	and.w	r3, r3, #1024	@ 0x400
 800261a:	2b00      	cmp	r3, #0
 800261c:	d101      	bne.n	8002622 <HAL_RCC_ClockConfig+0xd6>
 800261e:	2301      	movs	r3, #1
 8002620:	e086      	b.n	8002730 <HAL_RCC_ClockConfig+0x1e4>
 8002622:	4b46      	ldr	r3, [pc, #280]	@ (800273c <HAL_RCC_ClockConfig+0x1f0>)
 8002624:	689b      	ldr	r3, [r3, #8]
 8002626:	f023 0203 	bic.w	r2, r3, #3
 800262a:	687b      	ldr	r3, [r7, #4]
 800262c:	685b      	ldr	r3, [r3, #4]
 800262e:	4943      	ldr	r1, [pc, #268]	@ (800273c <HAL_RCC_ClockConfig+0x1f0>)
 8002630:	4313      	orrs	r3, r2
 8002632:	608b      	str	r3, [r1, #8]
 8002634:	f7fe fff6 	bl	8001624 <HAL_GetTick>
 8002638:	60f8      	str	r0, [r7, #12]
 800263a:	e00a      	b.n	8002652 <HAL_RCC_ClockConfig+0x106>
 800263c:	f7fe fff2 	bl	8001624 <HAL_GetTick>
 8002640:	4602      	mov	r2, r0
 8002642:	68fb      	ldr	r3, [r7, #12]
 8002644:	1ad3      	subs	r3, r2, r3
 8002646:	f241 3288 	movw	r2, #5000	@ 0x1388
 800264a:	4293      	cmp	r3, r2
 800264c:	d901      	bls.n	8002652 <HAL_RCC_ClockConfig+0x106>
 800264e:	2303      	movs	r3, #3
 8002650:	e06e      	b.n	8002730 <HAL_RCC_ClockConfig+0x1e4>
 8002652:	4b3a      	ldr	r3, [pc, #232]	@ (800273c <HAL_RCC_ClockConfig+0x1f0>)
 8002654:	689b      	ldr	r3, [r3, #8]
 8002656:	f003 020c 	and.w	r2, r3, #12
 800265a:	687b      	ldr	r3, [r7, #4]
 800265c:	685b      	ldr	r3, [r3, #4]
 800265e:	009b      	lsls	r3, r3, #2
 8002660:	429a      	cmp	r2, r3
 8002662:	d1eb      	bne.n	800263c <HAL_RCC_ClockConfig+0xf0>
 8002664:	687b      	ldr	r3, [r7, #4]
 8002666:	681b      	ldr	r3, [r3, #0]
 8002668:	f003 0302 	and.w	r3, r3, #2
 800266c:	2b00      	cmp	r3, #0
 800266e:	d010      	beq.n	8002692 <HAL_RCC_ClockConfig+0x146>
 8002670:	687b      	ldr	r3, [r7, #4]
 8002672:	689a      	ldr	r2, [r3, #8]
 8002674:	4b31      	ldr	r3, [pc, #196]	@ (800273c <HAL_RCC_ClockConfig+0x1f0>)
 8002676:	689b      	ldr	r3, [r3, #8]
 8002678:	f003 03f0 	and.w	r3, r3, #240	@ 0xf0
 800267c:	429a      	cmp	r2, r3
 800267e:	d208      	bcs.n	8002692 <HAL_RCC_ClockConfig+0x146>
 8002680:	4b2e      	ldr	r3, [pc, #184]	@ (800273c <HAL_RCC_ClockConfig+0x1f0>)
 8002682:	689b      	ldr	r3, [r3, #8]
 8002684:	f023 02f0 	bic.w	r2, r3, #240	@ 0xf0
 8002688:	687b      	ldr	r3, [r7, #4]
 800268a:	689b      	ldr	r3, [r3, #8]
 800268c:	492b      	ldr	r1, [pc, #172]	@ (800273c <HAL_RCC_ClockConfig+0x1f0>)
 800268e:	4313      	orrs	r3, r2
 8002690:	608b      	str	r3, [r1, #8]
 8002692:	4b29      	ldr	r3, [pc, #164]	@ (8002738 <HAL_RCC_ClockConfig+0x1ec>)
 8002694:	681b      	ldr	r3, [r3, #0]
 8002696:	f003 0307 	and.w	r3, r3, #7
 800269a:	683a      	ldr	r2, [r7, #0]
 800269c:	429a      	cmp	r2, r3
 800269e:	d210      	bcs.n	80026c2 <HAL_RCC_ClockConfig+0x176>
 80026a0:	4b25      	ldr	r3, [pc, #148]	@ (8002738 <HAL_RCC_ClockConfig+0x1ec>)
 80026a2:	681b      	ldr	r3, [r3, #0]
 80026a4:	f023 0207 	bic.w	r2, r3, #7
 80026a8:	4923      	ldr	r1, [pc, #140]	@ (8002738 <HAL_RCC_ClockConfig+0x1ec>)
 80026aa:	683b      	ldr	r3, [r7, #0]
 80026ac:	4313      	orrs	r3, r2
 80026ae:	600b      	str	r3, [r1, #0]
 80026b0:	4b21      	ldr	r3, [pc, #132]	@ (8002738 <HAL_RCC_ClockConfig+0x1ec>)
 80026b2:	681b      	ldr	r3, [r3, #0]
 80026b4:	f003 0307 	and.w	r3, r3, #7
 80026b8:	683a      	ldr	r2, [r7, #0]
 80026ba:	429a      	cmp	r2, r3
 80026bc:	d001      	beq.n	80026c2 <HAL_RCC_ClockConfig+0x176>
 80026be:	2301      	movs	r3, #1
 80026c0:	e036      	b.n	8002730 <HAL_RCC_ClockConfig+0x1e4>
 80026c2:	687b      	ldr	r3, [r7, #4]
 80026c4:	681b      	ldr	r3, [r3, #0]
 80026c6:	f003 0304 	and.w	r3, r3, #4
 80026ca:	2b00      	cmp	r3, #0
 80026cc:	d008      	beq.n	80026e0 <HAL_RCC_ClockConfig+0x194>
 80026ce:	4b1b      	ldr	r3, [pc, #108]	@ (800273c <HAL_RCC_ClockConfig+0x1f0>)
 80026d0:	689b      	ldr	r3, [r3, #8]
 80026d2:	f423 62e0 	bic.w	r2, r3, #1792	@ 0x700
 80026d6:	687b      	ldr	r3, [r7, #4]
 80026d8:	68db      	ldr	r3, [r3, #12]
 80026da:	4918      	ldr	r1, [pc, #96]	@ (800273c <HAL_RCC_ClockConfig+0x1f0>)
 80026dc:	4313      	orrs	r3, r2
 80026de:	608b      	str	r3, [r1, #8]
 80026e0:	687b      	ldr	r3, [r7, #4]
 80026e2:	681b      	ldr	r3, [r3, #0]
 80026e4:	f003 0308 	and.w	r3, r3, #8
 80026e8:	2b00      	cmp	r3, #0
 80026ea:	d009      	beq.n	8002700 <HAL_RCC_ClockConfig+0x1b4>
 80026ec:	4b13      	ldr	r3, [pc, #76]	@ (800273c <HAL_RCC_ClockConfig+0x1f0>)
 80026ee:	689b      	ldr	r3, [r3, #8]
 80026f0:	f423 5260 	bic.w	r2, r3, #14336	@ 0x3800
 80026f4:	687b      	ldr	r3, [r7, #4]
 80026f6:	691b      	ldr	r3, [r3, #16]
 80026f8:	00db      	lsls	r3, r3, #3
 80026fa:	4910      	ldr	r1, [pc, #64]	@ (800273c <HAL_RCC_ClockConfig+0x1f0>)
 80026fc:	4313      	orrs	r3, r2
 80026fe:	608b      	str	r3, [r1, #8]
 8002700:	f000 f824 	bl	800274c <HAL_RCC_GetSysClockFreq>
 8002704:	4602      	mov	r2, r0
 8002706:	4b0d      	ldr	r3, [pc, #52]	@ (800273c <HAL_RCC_ClockConfig+0x1f0>)
 8002708:	689b      	ldr	r3, [r3, #8]
 800270a:	091b      	lsrs	r3, r3, #4
 800270c:	f003 030f 	and.w	r3, r3, #15
 8002710:	490b      	ldr	r1, [pc, #44]	@ (8002740 <HAL_RCC_ClockConfig+0x1f4>)
 8002712:	5ccb      	ldrb	r3, [r1, r3]
 8002714:	f003 031f 	and.w	r3, r3, #31
 8002718:	fa22 f303 	lsr.w	r3, r2, r3
 800271c:	4a09      	ldr	r2, [pc, #36]	@ (8002744 <HAL_RCC_ClockConfig+0x1f8>)
 800271e:	6013      	str	r3, [r2, #0]
 8002720:	4b09      	ldr	r3, [pc, #36]	@ (8002748 <HAL_RCC_ClockConfig+0x1fc>)
 8002722:	681b      	ldr	r3, [r3, #0]
 8002724:	4618      	mov	r0, r3
 8002726:	f7fe fd2b 	bl	8001180 <HAL_InitTick>
 800272a:	4603      	mov	r3, r0
 800272c:	72fb      	strb	r3, [r7, #11]
 800272e:	7afb      	ldrb	r3, [r7, #11]
 8002730:	4618      	mov	r0, r3
 8002732:	3710      	adds	r7, #16
 8002734:	46bd      	mov	sp, r7
 8002736:	bd80      	pop	{r7, pc}
 8002738:	40022000 	.word	0x40022000
 800273c:	40021000 	.word	0x40021000
 8002740:	08008094 	.word	0x08008094
 8002744:	20000000 	.word	0x20000000
 8002748:	20000004 	.word	0x20000004

0800274c <HAL_RCC_GetSysClockFreq>:
 800274c:	b480      	push	{r7}
 800274e:	b089      	sub	sp, #36	@ 0x24
 8002750:	af00      	add	r7, sp, #0
 8002752:	2300      	movs	r3, #0
 8002754:	61fb      	str	r3, [r7, #28]
 8002756:	2300      	movs	r3, #0
 8002758:	61bb      	str	r3, [r7, #24]
 800275a:	4b3e      	ldr	r3, [pc, #248]	@ (8002854 <HAL_RCC_GetSysClockFreq+0x108>)
 800275c:	689b      	ldr	r3, [r3, #8]
 800275e:	f003 030c 	and.w	r3, r3, #12
 8002762:	613b      	str	r3, [r7, #16]
 8002764:	4b3b      	ldr	r3, [pc, #236]	@ (8002854 <HAL_RCC_GetSysClockFreq+0x108>)
 8002766:	68db      	ldr	r3, [r3, #12]
 8002768:	f003 0303 	and.w	r3, r3, #3
 800276c:	60fb      	str	r3, [r7, #12]
 800276e:	693b      	ldr	r3, [r7, #16]
 8002770:	2b00      	cmp	r3, #0
 8002772:	d005      	beq.n	8002780 <HAL_RCC_GetSysClockFreq+0x34>
 8002774:	693b      	ldr	r3, [r7, #16]
 8002776:	2b0c      	cmp	r3, #12
 8002778:	d121      	bne.n	80027be <HAL_RCC_GetSysClockFreq+0x72>
 800277a:	68fb      	ldr	r3, [r7, #12]
 800277c:	2b01      	cmp	r3, #1
 800277e:	d11e      	bne.n	80027be <HAL_RCC_GetSysClockFreq+0x72>
 8002780:	4b34      	ldr	r3, [pc, #208]	@ (8002854 <HAL_RCC_GetSysClockFreq+0x108>)
 8002782:	681b      	ldr	r3, [r3, #0]
 8002784:	f003 0308 	and.w	r3, r3, #8
 8002788:	2b00      	cmp	r3, #0
 800278a:	d107      	bne.n	800279c <HAL_RCC_GetSysClockFreq+0x50>
 800278c:	4b31      	ldr	r3, [pc, #196]	@ (8002854 <HAL_RCC_GetSysClockFreq+0x108>)
 800278e:	f8d3 3094 	ldr.w	r3, [r3, #148]	@ 0x94
 8002792:	0a1b      	lsrs	r3, r3, #8
 8002794:	f003 030f 	and.w	r3, r3, #15
 8002798:	61fb      	str	r3, [r7, #28]
 800279a:	e005      	b.n	80027a8 <HAL_RCC_GetSysClockFreq+0x5c>
 800279c:	4b2d      	ldr	r3, [pc, #180]	@ (8002854 <HAL_RCC_GetSysClockFreq+0x108>)
 800279e:	681b      	ldr	r3, [r3, #0]
 80027a0:	091b      	lsrs	r3, r3, #4
 80027a2:	f003 030f 	and.w	r3, r3, #15
 80027a6:	61fb      	str	r3, [r7, #28]
 80027a8:	4a2b      	ldr	r2, [pc, #172]	@ (8002858 <HAL_RCC_GetSysClockFreq+0x10c>)
 80027aa:	69fb      	ldr	r3, [r7, #28]
 80027ac:	f852 3023 	ldr.w	r3, [r2, r3, lsl #2]
 80027b0:	61fb      	str	r3, [r7, #28]
 80027b2:	693b      	ldr	r3, [r7, #16]
 80027b4:	2b00      	cmp	r3, #0
 80027b6:	d10d      	bne.n	80027d4 <HAL_RCC_GetSysClockFreq+0x88>
 80027b8:	69fb      	ldr	r3, [r7, #28]
 80027ba:	61bb      	str	r3, [r7, #24]
 80027bc:	e00a      	b.n	80027d4 <HAL_RCC_GetSysClockFreq+0x88>
 80027be:	693b      	ldr	r3, [r7, #16]
 80027c0:	2b04      	cmp	r3, #4
 80027c2:	d102      	bne.n	80027ca <HAL_RCC_GetSysClockFreq+0x7e>
 80027c4:	4b25      	ldr	r3, [pc, #148]	@ (800285c <HAL_RCC_GetSysClockFreq+0x110>)
 80027c6:	61bb      	str	r3, [r7, #24]
 80027c8:	e004      	b.n	80027d4 <HAL_RCC_GetSysClockFreq+0x88>
 80027ca:	693b      	ldr	r3, [r7, #16]
 80027cc:	2b08      	cmp	r3, #8
 80027ce:	d101      	bne.n	80027d4 <HAL_RCC_GetSysClockFreq+0x88>
 80027d0:	4b23      	ldr	r3, [pc, #140]	@ (8002860 <HAL_RCC_GetSysClockFreq+0x114>)
 80027d2:	61bb      	str	r3, [r7, #24]
 80027d4:	693b      	ldr	r3, [r7, #16]
 80027d6:	2b0c      	cmp	r3, #12
 80027d8:	d134      	bne.n	8002844 <HAL_RCC_GetSysClockFreq+0xf8>
 80027da:	4b1e      	ldr	r3, [pc, #120]	@ (8002854 <HAL_RCC_GetSysClockFreq+0x108>)
 80027dc:	68db      	ldr	r3, [r3, #12]
 80027de:	f003 0303 	and.w	r3, r3, #3
 80027e2:	60bb      	str	r3, [r7, #8]
 80027e4:	68bb      	ldr	r3, [r7, #8]
 80027e6:	2b02      	cmp	r3, #2
 80027e8:	d003      	beq.n	80027f2 <HAL_RCC_GetSysClockFreq+0xa6>
 80027ea:	68bb      	ldr	r3, [r7, #8]
 80027ec:	2b03      	cmp	r3, #3
 80027ee:	d003      	beq.n	80027f8 <HAL_RCC_GetSysClockFreq+0xac>
 80027f0:	e005      	b.n	80027fe <HAL_RCC_GetSysClockFreq+0xb2>
 80027f2:	4b1a      	ldr	r3, [pc, #104]	@ (800285c <HAL_RCC_GetSysClockFreq+0x110>)
 80027f4:	617b      	str	r3, [r7, #20]
 80027f6:	e005      	b.n	8002804 <HAL_RCC_GetSysClockFreq+0xb8>
 80027f8:	4b19      	ldr	r3, [pc, #100]	@ (8002860 <HAL_RCC_GetSysClockFreq+0x114>)
 80027fa:	617b      	str	r3, [r7, #20]
 80027fc:	e002      	b.n	8002804 <HAL_RCC_GetSysClockFreq+0xb8>
 80027fe:	69fb      	ldr	r3, [r7, #28]
 8002800:	617b      	str	r3, [r7, #20]
 8002802:	bf00      	nop
 8002804:	4b13      	ldr	r3, [pc, #76]	@ (8002854 <HAL_RCC_GetSysClockFreq+0x108>)
 8002806:	68db      	ldr	r3, [r3, #12]
 8002808:	091b      	lsrs	r3, r3, #4
 800280a:	f003 0307 	and.w	r3, r3, #7
 800280e:	3301      	adds	r3, #1
 8002810:	607b      	str	r3, [r7, #4]
 8002812:	4b10      	ldr	r3, [pc, #64]	@ (8002854 <HAL_RCC_GetSysClockFreq+0x108>)
 8002814:	68db      	ldr	r3, [r3, #12]
 8002816:	0a1b      	lsrs	r3, r3, #8
 8002818:	f003 037f 	and.w	r3, r3, #127	@ 0x7f
 800281c:	697a      	ldr	r2, [r7, #20]
 800281e:	fb03 f202 	mul.w	r2, r3, r2
 8002822:	687b      	ldr	r3, [r7, #4]
 8002824:	fbb2 f3f3 	udiv	r3, r2, r3
 8002828:	617b      	str	r3, [r7, #20]
 800282a:	4b0a      	ldr	r3, [pc, #40]	@ (8002854 <HAL_RCC_GetSysClockFreq+0x108>)
 800282c:	68db      	ldr	r3, [r3, #12]
 800282e:	0e5b      	lsrs	r3, r3, #25
 8002830:	f003 0303 	and.w	r3, r3, #3
 8002834:	3301      	adds	r3, #1
 8002836:	005b      	lsls	r3, r3, #1
 8002838:	603b      	str	r3, [r7, #0]
 800283a:	697a      	ldr	r2, [r7, #20]
 800283c:	683b      	ldr	r3, [r7, #0]
 800283e:	fbb2 f3f3 	udiv	r3, r2, r3
 8002842:	61bb      	str	r3, [r7, #24]
 8002844:	69bb      	ldr	r3, [r7, #24]
 8002846:	4618      	mov	r0, r3
 8002848:	3724      	adds	r7, #36	@ 0x24
 800284a:	46bd      	mov	sp, r7
 800284c:	f85d 7b04 	ldr.w	r7, [sp], #4
 8002850:	4770      	bx	lr
 8002852:	bf00      	nop
 8002854:	40021000 	.word	0x40021000
 8002858:	080080ac 	.word	0x080080ac
 800285c:	00f42400 	.word	0x00f42400
 8002860:	007a1200 	.word	0x007a1200

08002864 <HAL_RCC_GetHCLKFreq>:
 8002864:	b480      	push	{r7}
 8002866:	af00      	add	r7, sp, #0
 8002868:	4b03      	ldr	r3, [pc, #12]	@ (8002878 <HAL_RCC_GetHCLKFreq+0x14>)
 800286a:	681b      	ldr	r3, [r3, #0]
 800286c:	4618      	mov	r0, r3
 800286e:	46bd      	mov	sp, r7
 8002870:	f85d 7b04 	ldr.w	r7, [sp], #4
 8002874:	4770      	bx	lr
 8002876:	bf00      	nop
 8002878:	20000000 	.word	0x20000000

0800287c <HAL_RCC_GetPCLK1Freq>:
 800287c:	b580      	push	{r7, lr}
 800287e:	af00      	add	r7, sp, #0
 8002880:	f7ff fff0 	bl	8002864 <HAL_RCC_GetHCLKFreq>
 8002884:	4602      	mov	r2, r0
 8002886:	4b06      	ldr	r3, [pc, #24]	@ (80028a0 <HAL_RCC_GetPCLK1Freq+0x24>)
 8002888:	689b      	ldr	r3, [r3, #8]
 800288a:	0a1b      	lsrs	r3, r3, #8
 800288c:	f003 0307 	and.w	r3, r3, #7
 8002890:	4904      	ldr	r1, [pc, #16]	@ (80028a4 <HAL_RCC_GetPCLK1Freq+0x28>)
 8002892:	5ccb      	ldrb	r3, [r1, r3]
 8002894:	f003 031f 	and.w	r3, r3, #31
 8002898:	fa22 f303 	lsr.w	r3, r2, r3
 800289c:	4618      	mov	r0, r3
 800289e:	bd80      	pop	{r7, pc}
 80028a0:	40021000 	.word	0x40021000
 80028a4:	080080a4 	.word	0x080080a4

080028a8 <HAL_RCC_GetPCLK2Freq>:
 80028a8:	b580      	push	{r7, lr}
 80028aa:	af00      	add	r7, sp, #0
 80028ac:	f7ff ffda 	bl	8002864 <HAL_RCC_GetHCLKFreq>
 80028b0:	4602      	mov	r2, r0
 80028b2:	4b06      	ldr	r3, [pc, #24]	@ (80028cc <HAL_RCC_GetPCLK2Freq+0x24>)
 80028b4:	689b      	ldr	r3, [r3, #8]
 80028b6:	0adb      	lsrs	r3, r3, #11
 80028b8:	f003 0307 	and.w	r3, r3, #7
 80028bc:	4904      	ldr	r1, [pc, #16]	@ (80028d0 <HAL_RCC_GetPCLK2Freq+0x28>)
 80028be:	5ccb      	ldrb	r3, [r1, r3]
 80028c0:	f003 031f 	and.w	r3, r3, #31
 80028c4:	fa22 f303 	lsr.w	r3, r2, r3
 80028c8:	4618      	mov	r0, r3
 80028ca:	bd80      	pop	{r7, pc}
 80028cc:	40021000 	.word	0x40021000
 80028d0:	080080a4 	.word	0x080080a4

080028d4 <HAL_RCC_GetClockConfig>:
 80028d4:	b480      	push	{r7}
 80028d6:	b083      	sub	sp, #12
 80028d8:	af00      	add	r7, sp, #0
 80028da:	6078      	str	r0, [r7, #4]
 80028dc:	6039      	str	r1, [r7, #0]
 80028de:	687b      	ldr	r3, [r7, #4]
 80028e0:	220f      	movs	r2, #15
 80028e2:	601a      	str	r2, [r3, #0]
 80028e4:	4b12      	ldr	r3, [pc, #72]	@ (8002930 <HAL_RCC_GetClockConfig+0x5c>)
 80028e6:	689b      	ldr	r3, [r3, #8]
 80028e8:	f003 0203 	and.w	r2, r3, #3
 80028ec:	687b      	ldr	r3, [r7, #4]
 80028ee:	605a      	str	r2, [r3, #4]
 80028f0:	4b0f      	ldr	r3, [pc, #60]	@ (8002930 <HAL_RCC_GetClockConfig+0x5c>)
 80028f2:	689b      	ldr	r3, [r3, #8]
 80028f4:	f003 02f0 	and.w	r2, r3, #240	@ 0xf0
 80028f8:	687b      	ldr	r3, [r7, #4]
 80028fa:	609a      	str	r2, [r3, #8]
 80028fc:	4b0c      	ldr	r3, [pc, #48]	@ (8002930 <HAL_RCC_GetClockConfig+0x5c>)
 80028fe:	689b      	ldr	r3, [r3, #8]
 8002900:	f403 62e0 	and.w	r2, r3, #1792	@ 0x700
 8002904:	687b      	ldr	r3, [r7, #4]
 8002906:	60da      	str	r2, [r3, #12]
 8002908:	4b09      	ldr	r3, [pc, #36]	@ (8002930 <HAL_RCC_GetClockConfig+0x5c>)
 800290a:	689b      	ldr	r3, [r3, #8]
 800290c:	08db      	lsrs	r3, r3, #3
 800290e:	f403 62e0 	and.w	r2, r3, #1792	@ 0x700
 8002912:	687b      	ldr	r3, [r7, #4]
 8002914:	611a      	str	r2, [r3, #16]
 8002916:	4b07      	ldr	r3, [pc, #28]	@ (8002934 <HAL_RCC_GetClockConfig+0x60>)
 8002918:	681b      	ldr	r3, [r3, #0]
 800291a:	f003 0207 	and.w	r2, r3, #7
 800291e:	683b      	ldr	r3, [r7, #0]
 8002920:	601a      	str	r2, [r3, #0]
 8002922:	bf00      	nop
 8002924:	370c      	adds	r7, #12
 8002926:	46bd      	mov	sp, r7
 8002928:	f85d 7b04 	ldr.w	r7, [sp], #4
 800292c:	4770      	bx	lr
 800292e:	bf00      	nop
 8002930:	40021000 	.word	0x40021000
 8002934:	40022000 	.word	0x40022000

08002938 <RCC_SetFlashLatencyFromMSIRange>:
 8002938:	b580      	push	{r7, lr}
 800293a:	b086      	sub	sp, #24
 800293c:	af00      	add	r7, sp, #0
 800293e:	6078      	str	r0, [r7, #4]
 8002940:	2300      	movs	r3, #0
 8002942:	613b      	str	r3, [r7, #16]
 8002944:	4b2a      	ldr	r3, [pc, #168]	@ (80029f0 <RCC_SetFlashLatencyFromMSIRange+0xb8>)
 8002946:	6d9b      	ldr	r3, [r3, #88]	@ 0x58
 8002948:	f003 5380 	and.w	r3, r3, #268435456	@ 0x10000000
 800294c:	2b00      	cmp	r3, #0
 800294e:	d003      	beq.n	8002958 <RCC_SetFlashLatencyFromMSIRange+0x20>
 8002950:	f7ff f9bc 	bl	8001ccc <HAL_PWREx_GetVoltageRange>
 8002954:	6178      	str	r0, [r7, #20]
 8002956:	e014      	b.n	8002982 <RCC_SetFlashLatencyFromMSIRange+0x4a>
 8002958:	4b25      	ldr	r3, [pc, #148]	@ (80029f0 <RCC_SetFlashLatencyFromMSIRange+0xb8>)
 800295a:	6d9b      	ldr	r3, [r3, #88]	@ 0x58
 800295c:	4a24      	ldr	r2, [pc, #144]	@ (80029f0 <RCC_SetFlashLatencyFromMSIRange+0xb8>)
 800295e:	f043 5380 	orr.w	r3, r3, #268435456	@ 0x10000000
 8002962:	6593      	str	r3, [r2, #88]	@ 0x58
 8002964:	4b22      	ldr	r3, [pc, #136]	@ (80029f0 <RCC_SetFlashLatencyFromMSIRange+0xb8>)
 8002966:	6d9b      	ldr	r3, [r3, #88]	@ 0x58
 8002968:	f003 5380 	and.w	r3, r3, #268435456	@ 0x10000000
 800296c:	60fb      	str	r3, [r7, #12]
 800296e:	68fb      	ldr	r3, [r7, #12]
 8002970:	f7ff f9ac 	bl	8001ccc <HAL_PWREx_GetVoltageRange>
 8002974:	6178      	str	r0, [r7, #20]
 8002976:	4b1e      	ldr	r3, [pc, #120]	@ (80029f0 <RCC_SetFlashLatencyFromMSIRange+0xb8>)
 8002978:	6d9b      	ldr	r3, [r3, #88]	@ 0x58
 800297a:	4a1d      	ldr	r2, [pc, #116]	@ (80029f0 <RCC_SetFlashLatencyFromMSIRange+0xb8>)
 800297c:	f023 5380 	bic.w	r3, r3, #268435456	@ 0x10000000
 8002980:	6593      	str	r3, [r2, #88]	@ 0x58
 8002982:	697b      	ldr	r3, [r7, #20]
 8002984:	f5b3 7f00 	cmp.w	r3, #512	@ 0x200
 8002988:	d10b      	bne.n	80029a2 <RCC_SetFlashLatencyFromMSIRange+0x6a>
 800298a:	687b      	ldr	r3, [r7, #4]
 800298c:	2b80      	cmp	r3, #128	@ 0x80
 800298e:	d919      	bls.n	80029c4 <RCC_SetFlashLatencyFromMSIRange+0x8c>
 8002990:	687b      	ldr	r3, [r7, #4]
 8002992:	2ba0      	cmp	r3, #160	@ 0xa0
 8002994:	d902      	bls.n	800299c <RCC_SetFlashLatencyFromMSIRange+0x64>
 8002996:	2302      	movs	r3, #2
 8002998:	613b      	str	r3, [r7, #16]
 800299a:	e013      	b.n	80029c4 <RCC_SetFlashLatencyFromMSIRange+0x8c>
 800299c:	2301      	movs	r3, #1
 800299e:	613b      	str	r3, [r7, #16]
 80029a0:	e010      	b.n	80029c4 <RCC_SetFlashLatencyFromMSIRange+0x8c>
 80029a2:	687b      	ldr	r3, [r7, #4]
 80029a4:	2b80      	cmp	r3, #128	@ 0x80
 80029a6:	d902      	bls.n	80029ae <RCC_SetFlashLatencyFromMSIRange+0x76>
 80029a8:	2303      	movs	r3, #3
 80029aa:	613b      	str	r3, [r7, #16]
 80029ac:	e00a      	b.n	80029c4 <RCC_SetFlashLatencyFromMSIRange+0x8c>
 80029ae:	687b      	ldr	r3, [r7, #4]
 80029b0:	2b80      	cmp	r3, #128	@ 0x80
 80029b2:	d102      	bne.n	80029ba <RCC_SetFlashLatencyFromMSIRange+0x82>
 80029b4:	2302      	movs	r3, #2
 80029b6:	613b      	str	r3, [r7, #16]
 80029b8:	e004      	b.n	80029c4 <RCC_SetFlashLatencyFromMSIRange+0x8c>
 80029ba:	687b      	ldr	r3, [r7, #4]
 80029bc:	2b70      	cmp	r3, #112	@ 0x70
 80029be:	d101      	bne.n	80029c4 <RCC_SetFlashLatencyFromMSIRange+0x8c>
 80029c0:	2301      	movs	r3, #1
 80029c2:	613b      	str	r3, [r7, #16]
 80029c4:	4b0b      	ldr	r3, [pc, #44]	@ (80029f4 <RCC_SetFlashLatencyFromMSIRange+0xbc>)
 80029c6:	681b      	ldr	r3, [r3, #0]
 80029c8:	f023 0207 	bic.w	r2, r3, #7
 80029cc:	4909      	ldr	r1, [pc, #36]	@ (80029f4 <RCC_SetFlashLatencyFromMSIRange+0xbc>)
 80029ce:	693b      	ldr	r3, [r7, #16]
 80029d0:	4313      	orrs	r3, r2
 80029d2:	600b      	str	r3, [r1, #0]
 80029d4:	4b07      	ldr	r3, [pc, #28]	@ (80029f4 <RCC_SetFlashLatencyFromMSIRange+0xbc>)
 80029d6:	681b      	ldr	r3, [r3, #0]
 80029d8:	f003 0307 	and.w	r3, r3, #7
 80029dc:	693a      	ldr	r2, [r7, #16]
 80029de:	429a      	cmp	r2, r3
 80029e0:	d001      	beq.n	80029e6 <RCC_SetFlashLatencyFromMSIRange+0xae>
 80029e2:	2301      	movs	r3, #1
 80029e4:	e000      	b.n	80029e8 <RCC_SetFlashLatencyFromMSIRange+0xb0>
 80029e6:	2300      	movs	r3, #0
 80029e8:	4618      	mov	r0, r3
 80029ea:	3718      	adds	r7, #24
 80029ec:	46bd      	mov	sp, r7
 80029ee:	bd80      	pop	{r7, pc}
 80029f0:	40021000 	.word	0x40021000
 80029f4:	40022000 	.word	0x40022000

080029f8 <HAL_RCCEx_PeriphCLKConfig>:
 80029f8:	b580      	push	{r7, lr}
 80029fa:	b086      	sub	sp, #24
 80029fc:	af00      	add	r7, sp, #0
 80029fe:	6078      	str	r0, [r7, #4]
 8002a00:	2300      	movs	r3, #0
 8002a02:	74fb      	strb	r3, [r7, #19]
 8002a04:	2300      	movs	r3, #0
 8002a06:	74bb      	strb	r3, [r7, #18]
 8002a08:	687b      	ldr	r3, [r7, #4]
 8002a0a:	681b      	ldr	r3, [r3, #0]
 8002a0c:	f403 6300 	and.w	r3, r3, #2048	@ 0x800
 8002a10:	2b00      	cmp	r3, #0
 8002a12:	d041      	beq.n	8002a98 <HAL_RCCEx_PeriphCLKConfig+0xa0>
 8002a14:	687b      	ldr	r3, [r7, #4]
 8002a16:	6e5b      	ldr	r3, [r3, #100]	@ 0x64
 8002a18:	f5b3 0f40 	cmp.w	r3, #12582912	@ 0xc00000
 8002a1c:	d02a      	beq.n	8002a74 <HAL_RCCEx_PeriphCLKConfig+0x7c>
 8002a1e:	f5b3 0f40 	cmp.w	r3, #12582912	@ 0xc00000
 8002a22:	d824      	bhi.n	8002a6e <HAL_RCCEx_PeriphCLKConfig+0x76>
 8002a24:	f5b3 0f00 	cmp.w	r3, #8388608	@ 0x800000
 8002a28:	d008      	beq.n	8002a3c <HAL_RCCEx_PeriphCLKConfig+0x44>
 8002a2a:	f5b3 0f00 	cmp.w	r3, #8388608	@ 0x800000
 8002a2e:	d81e      	bhi.n	8002a6e <HAL_RCCEx_PeriphCLKConfig+0x76>
 8002a30:	2b00      	cmp	r3, #0
 8002a32:	d00a      	beq.n	8002a4a <HAL_RCCEx_PeriphCLKConfig+0x52>
 8002a34:	f5b3 0f80 	cmp.w	r3, #4194304	@ 0x400000
 8002a38:	d010      	beq.n	8002a5c <HAL_RCCEx_PeriphCLKConfig+0x64>
 8002a3a:	e018      	b.n	8002a6e <HAL_RCCEx_PeriphCLKConfig+0x76>
 8002a3c:	4b86      	ldr	r3, [pc, #536]	@ (8002c58 <HAL_RCCEx_PeriphCLKConfig+0x260>)
 8002a3e:	68db      	ldr	r3, [r3, #12]
 8002a40:	4a85      	ldr	r2, [pc, #532]	@ (8002c58 <HAL_RCCEx_PeriphCLKConfig+0x260>)
 8002a42:	f443 3380 	orr.w	r3, r3, #65536	@ 0x10000
 8002a46:	60d3      	str	r3, [r2, #12]
 8002a48:	e015      	b.n	8002a76 <HAL_RCCEx_PeriphCLKConfig+0x7e>
 8002a4a:	687b      	ldr	r3, [r7, #4]
 8002a4c:	3304      	adds	r3, #4
 8002a4e:	2100      	movs	r1, #0
 8002a50:	4618      	mov	r0, r3
 8002a52:	f000 fabb 	bl	8002fcc <RCCEx_PLLSAI1_Config>
 8002a56:	4603      	mov	r3, r0
 8002a58:	74fb      	strb	r3, [r7, #19]
 8002a5a:	e00c      	b.n	8002a76 <HAL_RCCEx_PeriphCLKConfig+0x7e>
 8002a5c:	687b      	ldr	r3, [r7, #4]
 8002a5e:	3320      	adds	r3, #32
 8002a60:	2100      	movs	r1, #0
 8002a62:	4618      	mov	r0, r3
 8002a64:	f000 fba6 	bl	80031b4 <RCCEx_PLLSAI2_Config>
 8002a68:	4603      	mov	r3, r0
 8002a6a:	74fb      	strb	r3, [r7, #19]
 8002a6c:	e003      	b.n	8002a76 <HAL_RCCEx_PeriphCLKConfig+0x7e>
 8002a6e:	2301      	movs	r3, #1
 8002a70:	74fb      	strb	r3, [r7, #19]
 8002a72:	e000      	b.n	8002a76 <HAL_RCCEx_PeriphCLKConfig+0x7e>
 8002a74:	bf00      	nop
 8002a76:	7cfb      	ldrb	r3, [r7, #19]
 8002a78:	2b00      	cmp	r3, #0
 8002a7a:	d10b      	bne.n	8002a94 <HAL_RCCEx_PeriphCLKConfig+0x9c>
 8002a7c:	4b76      	ldr	r3, [pc, #472]	@ (8002c58 <HAL_RCCEx_PeriphCLKConfig+0x260>)
 8002a7e:	f8d3 3088 	ldr.w	r3, [r3, #136]	@ 0x88
 8002a82:	f423 0240 	bic.w	r2, r3, #12582912	@ 0xc00000
 8002a86:	687b      	ldr	r3, [r7, #4]
 8002a88:	6e5b      	ldr	r3, [r3, #100]	@ 0x64
 8002a8a:	4973      	ldr	r1, [pc, #460]	@ (8002c58 <HAL_RCCEx_PeriphCLKConfig+0x260>)
 8002a8c:	4313      	orrs	r3, r2
 8002a8e:	f8c1 3088 	str.w	r3, [r1, #136]	@ 0x88
 8002a92:	e001      	b.n	8002a98 <HAL_RCCEx_PeriphCLKConfig+0xa0>
 8002a94:	7cfb      	ldrb	r3, [r7, #19]
 8002a96:	74bb      	strb	r3, [r7, #18]
 8002a98:	687b      	ldr	r3, [r7, #4]
 8002a9a:	681b      	ldr	r3, [r3, #0]
 8002a9c:	f403 5380 	and.w	r3, r3, #4096	@ 0x1000
 8002aa0:	2b00      	cmp	r3, #0
 8002aa2:	d041      	beq.n	8002b28 <HAL_RCCEx_PeriphCLKConfig+0x130>
 8002aa4:	687b      	ldr	r3, [r7, #4]
 8002aa6:	6e9b      	ldr	r3, [r3, #104]	@ 0x68
 8002aa8:	f1b3 7f40 	cmp.w	r3, #50331648	@ 0x3000000
 8002aac:	d02a      	beq.n	8002b04 <HAL_RCCEx_PeriphCLKConfig+0x10c>
 8002aae:	f1b3 7f40 	cmp.w	r3, #50331648	@ 0x3000000
 8002ab2:	d824      	bhi.n	8002afe <HAL_RCCEx_PeriphCLKConfig+0x106>
 8002ab4:	f1b3 7f00 	cmp.w	r3, #33554432	@ 0x2000000
 8002ab8:	d008      	beq.n	8002acc <HAL_RCCEx_PeriphCLKConfig+0xd4>
 8002aba:	f1b3 7f00 	cmp.w	r3, #33554432	@ 0x2000000
 8002abe:	d81e      	bhi.n	8002afe <HAL_RCCEx_PeriphCLKConfig+0x106>
 8002ac0:	2b00      	cmp	r3, #0
 8002ac2:	d00a      	beq.n	8002ada <HAL_RCCEx_PeriphCLKConfig+0xe2>
 8002ac4:	f1b3 7f80 	cmp.w	r3, #16777216	@ 0x1000000
 8002ac8:	d010      	beq.n	8002aec <HAL_RCCEx_PeriphCLKConfig+0xf4>
 8002aca:	e018      	b.n	8002afe <HAL_RCCEx_PeriphCLKConfig+0x106>
 8002acc:	4b62      	ldr	r3, [pc, #392]	@ (8002c58 <HAL_RCCEx_PeriphCLKConfig+0x260>)
 8002ace:	68db      	ldr	r3, [r3, #12]
 8002ad0:	4a61      	ldr	r2, [pc, #388]	@ (8002c58 <HAL_RCCEx_PeriphCLKConfig+0x260>)
 8002ad2:	f443 3380 	orr.w	r3, r3, #65536	@ 0x10000
 8002ad6:	60d3      	str	r3, [r2, #12]
 8002ad8:	e015      	b.n	8002b06 <HAL_RCCEx_PeriphCLKConfig+0x10e>
 8002ada:	687b      	ldr	r3, [r7, #4]
 8002adc:	3304      	adds	r3, #4
 8002ade:	2100      	movs	r1, #0
 8002ae0:	4618      	mov	r0, r3
 8002ae2:	f000 fa73 	bl	8002fcc <RCCEx_PLLSAI1_Config>
 8002ae6:	4603      	mov	r3, r0
 8002ae8:	74fb      	strb	r3, [r7, #19]
 8002aea:	e00c      	b.n	8002b06 <HAL_RCCEx_PeriphCLKConfig+0x10e>
 8002aec:	687b      	ldr	r3, [r7, #4]
 8002aee:	3320      	adds	r3, #32
 8002af0:	2100      	movs	r1, #0
 8002af2:	4618      	mov	r0, r3
 8002af4:	f000 fb5e 	bl	80031b4 <RCCEx_PLLSAI2_Config>
 8002af8:	4603      	mov	r3, r0
 8002afa:	74fb      	strb	r3, [r7, #19]
 8002afc:	e003      	b.n	8002b06 <HAL_RCCEx_PeriphCLKConfig+0x10e>
 8002afe:	2301      	movs	r3, #1
 8002b00:	74fb      	strb	r3, [r7, #19]
 8002b02:	e000      	b.n	8002b06 <HAL_RCCEx_PeriphCLKConfig+0x10e>
 8002b04:	bf00      	nop
 8002b06:	7cfb      	ldrb	r3, [r7, #19]
 8002b08:	2b00      	cmp	r3, #0
 8002b0a:	d10b      	bne.n	8002b24 <HAL_RCCEx_PeriphCLKConfig+0x12c>
 8002b0c:	4b52      	ldr	r3, [pc, #328]	@ (8002c58 <HAL_RCCEx_PeriphCLKConfig+0x260>)
 8002b0e:	f8d3 3088 	ldr.w	r3, [r3, #136]	@ 0x88
 8002b12:	f023 7240 	bic.w	r2, r3, #50331648	@ 0x3000000
 8002b16:	687b      	ldr	r3, [r7, #4]
 8002b18:	6e9b      	ldr	r3, [r3, #104]	@ 0x68
 8002b1a:	494f      	ldr	r1, [pc, #316]	@ (8002c58 <HAL_RCCEx_PeriphCLKConfig+0x260>)
 8002b1c:	4313      	orrs	r3, r2
 8002b1e:	f8c1 3088 	str.w	r3, [r1, #136]	@ 0x88
 8002b22:	e001      	b.n	8002b28 <HAL_RCCEx_PeriphCLKConfig+0x130>
 8002b24:	7cfb      	ldrb	r3, [r7, #19]
 8002b26:	74bb      	strb	r3, [r7, #18]
 8002b28:	687b      	ldr	r3, [r7, #4]
 8002b2a:	681b      	ldr	r3, [r3, #0]
 8002b2c:	f403 3300 	and.w	r3, r3, #131072	@ 0x20000
 8002b30:	2b00      	cmp	r3, #0
 8002b32:	f000 80a0 	beq.w	8002c76 <HAL_RCCEx_PeriphCLKConfig+0x27e>
 8002b36:	2300      	movs	r3, #0
 8002b38:	747b      	strb	r3, [r7, #17]
 8002b3a:	4b47      	ldr	r3, [pc, #284]	@ (8002c58 <HAL_RCCEx_PeriphCLKConfig+0x260>)
 8002b3c:	6d9b      	ldr	r3, [r3, #88]	@ 0x58
 8002b3e:	f003 5380 	and.w	r3, r3, #268435456	@ 0x10000000
 8002b42:	2b00      	cmp	r3, #0
 8002b44:	d101      	bne.n	8002b4a <HAL_RCCEx_PeriphCLKConfig+0x152>
 8002b46:	2301      	movs	r3, #1
 8002b48:	e000      	b.n	8002b4c <HAL_RCCEx_PeriphCLKConfig+0x154>
 8002b4a:	2300      	movs	r3, #0
 8002b4c:	2b00      	cmp	r3, #0
 8002b4e:	d00d      	beq.n	8002b6c <HAL_RCCEx_PeriphCLKConfig+0x174>
 8002b50:	4b41      	ldr	r3, [pc, #260]	@ (8002c58 <HAL_RCCEx_PeriphCLKConfig+0x260>)
 8002b52:	6d9b      	ldr	r3, [r3, #88]	@ 0x58
 8002b54:	4a40      	ldr	r2, [pc, #256]	@ (8002c58 <HAL_RCCEx_PeriphCLKConfig+0x260>)
 8002b56:	f043 5380 	orr.w	r3, r3, #268435456	@ 0x10000000
 8002b5a:	6593      	str	r3, [r2, #88]	@ 0x58
 8002b5c:	4b3e      	ldr	r3, [pc, #248]	@ (8002c58 <HAL_RCCEx_PeriphCLKConfig+0x260>)
 8002b5e:	6d9b      	ldr	r3, [r3, #88]	@ 0x58
 8002b60:	f003 5380 	and.w	r3, r3, #268435456	@ 0x10000000
 8002b64:	60bb      	str	r3, [r7, #8]
 8002b66:	68bb      	ldr	r3, [r7, #8]
 8002b68:	2301      	movs	r3, #1
 8002b6a:	747b      	strb	r3, [r7, #17]
 8002b6c:	4b3b      	ldr	r3, [pc, #236]	@ (8002c5c <HAL_RCCEx_PeriphCLKConfig+0x264>)
 8002b6e:	681b      	ldr	r3, [r3, #0]
 8002b70:	4a3a      	ldr	r2, [pc, #232]	@ (8002c5c <HAL_RCCEx_PeriphCLKConfig+0x264>)
 8002b72:	f443 7380 	orr.w	r3, r3, #256	@ 0x100
 8002b76:	6013      	str	r3, [r2, #0]
 8002b78:	f7fe fd54 	bl	8001624 <HAL_GetTick>
 8002b7c:	60f8      	str	r0, [r7, #12]
 8002b7e:	e009      	b.n	8002b94 <HAL_RCCEx_PeriphCLKConfig+0x19c>
 8002b80:	f7fe fd50 	bl	8001624 <HAL_GetTick>
 8002b84:	4602      	mov	r2, r0
 8002b86:	68fb      	ldr	r3, [r7, #12]
 8002b88:	1ad3      	subs	r3, r2, r3
 8002b8a:	2b02      	cmp	r3, #2
 8002b8c:	d902      	bls.n	8002b94 <HAL_RCCEx_PeriphCLKConfig+0x19c>
 8002b8e:	2303      	movs	r3, #3
 8002b90:	74fb      	strb	r3, [r7, #19]
 8002b92:	e005      	b.n	8002ba0 <HAL_RCCEx_PeriphCLKConfig+0x1a8>
 8002b94:	4b31      	ldr	r3, [pc, #196]	@ (8002c5c <HAL_RCCEx_PeriphCLKConfig+0x264>)
 8002b96:	681b      	ldr	r3, [r3, #0]
 8002b98:	f403 7380 	and.w	r3, r3, #256	@ 0x100
 8002b9c:	2b00      	cmp	r3, #0
 8002b9e:	d0ef      	beq.n	8002b80 <HAL_RCCEx_PeriphCLKConfig+0x188>
 8002ba0:	7cfb      	ldrb	r3, [r7, #19]
 8002ba2:	2b00      	cmp	r3, #0
 8002ba4:	d15c      	bne.n	8002c60 <HAL_RCCEx_PeriphCLKConfig+0x268>
 8002ba6:	4b2c      	ldr	r3, [pc, #176]	@ (8002c58 <HAL_RCCEx_PeriphCLKConfig+0x260>)
 8002ba8:	f8d3 3090 	ldr.w	r3, [r3, #144]	@ 0x90
 8002bac:	f403 7340 	and.w	r3, r3, #768	@ 0x300
 8002bb0:	617b      	str	r3, [r7, #20]
 8002bb2:	697b      	ldr	r3, [r7, #20]
 8002bb4:	2b00      	cmp	r3, #0
 8002bb6:	d01f      	beq.n	8002bf8 <HAL_RCCEx_PeriphCLKConfig+0x200>
 8002bb8:	687b      	ldr	r3, [r7, #4]
 8002bba:	f8d3 3084 	ldr.w	r3, [r3, #132]	@ 0x84
 8002bbe:	697a      	ldr	r2, [r7, #20]
 8002bc0:	429a      	cmp	r2, r3
 8002bc2:	d019      	beq.n	8002bf8 <HAL_RCCEx_PeriphCLKConfig+0x200>
 8002bc4:	4b24      	ldr	r3, [pc, #144]	@ (8002c58 <HAL_RCCEx_PeriphCLKConfig+0x260>)
 8002bc6:	f8d3 3090 	ldr.w	r3, [r3, #144]	@ 0x90
 8002bca:	f423 7340 	bic.w	r3, r3, #768	@ 0x300
 8002bce:	617b      	str	r3, [r7, #20]
 8002bd0:	4b21      	ldr	r3, [pc, #132]	@ (8002c58 <HAL_RCCEx_PeriphCLKConfig+0x260>)
 8002bd2:	f8d3 3090 	ldr.w	r3, [r3, #144]	@ 0x90
 8002bd6:	4a20      	ldr	r2, [pc, #128]	@ (8002c58 <HAL_RCCEx_PeriphCLKConfig+0x260>)
 8002bd8:	f443 3380 	orr.w	r3, r3, #65536	@ 0x10000
 8002bdc:	f8c2 3090 	str.w	r3, [r2, #144]	@ 0x90
 8002be0:	4b1d      	ldr	r3, [pc, #116]	@ (8002c58 <HAL_RCCEx_PeriphCLKConfig+0x260>)
 8002be2:	f8d3 3090 	ldr.w	r3, [r3, #144]	@ 0x90
 8002be6:	4a1c      	ldr	r2, [pc, #112]	@ (8002c58 <HAL_RCCEx_PeriphCLKConfig+0x260>)
 8002be8:	f423 3380 	bic.w	r3, r3, #65536	@ 0x10000
 8002bec:	f8c2 3090 	str.w	r3, [r2, #144]	@ 0x90
 8002bf0:	4a19      	ldr	r2, [pc, #100]	@ (8002c58 <HAL_RCCEx_PeriphCLKConfig+0x260>)
 8002bf2:	697b      	ldr	r3, [r7, #20]
 8002bf4:	f8c2 3090 	str.w	r3, [r2, #144]	@ 0x90
 8002bf8:	697b      	ldr	r3, [r7, #20]
 8002bfa:	f003 0301 	and.w	r3, r3, #1
 8002bfe:	2b00      	cmp	r3, #0
 8002c00:	d016      	beq.n	8002c30 <HAL_RCCEx_PeriphCLKConfig+0x238>
 8002c02:	f7fe fd0f 	bl	8001624 <HAL_GetTick>
 8002c06:	60f8      	str	r0, [r7, #12]
 8002c08:	e00b      	b.n	8002c22 <HAL_RCCEx_PeriphCLKConfig+0x22a>
 8002c0a:	f7fe fd0b 	bl	8001624 <HAL_GetTick>
 8002c0e:	4602      	mov	r2, r0
 8002c10:	68fb      	ldr	r3, [r7, #12]
 8002c12:	1ad3      	subs	r3, r2, r3
 8002c14:	f241 3288 	movw	r2, #5000	@ 0x1388
 8002c18:	4293      	cmp	r3, r2
 8002c1a:	d902      	bls.n	8002c22 <HAL_RCCEx_PeriphCLKConfig+0x22a>
 8002c1c:	2303      	movs	r3, #3
 8002c1e:	74fb      	strb	r3, [r7, #19]
 8002c20:	e006      	b.n	8002c30 <HAL_RCCEx_PeriphCLKConfig+0x238>
 8002c22:	4b0d      	ldr	r3, [pc, #52]	@ (8002c58 <HAL_RCCEx_PeriphCLKConfig+0x260>)
 8002c24:	f8d3 3090 	ldr.w	r3, [r3, #144]	@ 0x90
 8002c28:	f003 0302 	and.w	r3, r3, #2
 8002c2c:	2b00      	cmp	r3, #0
 8002c2e:	d0ec      	beq.n	8002c0a <HAL_RCCEx_PeriphCLKConfig+0x212>
 8002c30:	7cfb      	ldrb	r3, [r7, #19]
 8002c32:	2b00      	cmp	r3, #0
 8002c34:	d10c      	bne.n	8002c50 <HAL_RCCEx_PeriphCLKConfig+0x258>
 8002c36:	4b08      	ldr	r3, [pc, #32]	@ (8002c58 <HAL_RCCEx_PeriphCLKConfig+0x260>)
 8002c38:	f8d3 3090 	ldr.w	r3, [r3, #144]	@ 0x90
 8002c3c:	f423 7240 	bic.w	r2, r3, #768	@ 0x300
 8002c40:	687b      	ldr	r3, [r7, #4]
 8002c42:	f8d3 3084 	ldr.w	r3, [r3, #132]	@ 0x84
 8002c46:	4904      	ldr	r1, [pc, #16]	@ (8002c58 <HAL_RCCEx_PeriphCLKConfig+0x260>)
 8002c48:	4313      	orrs	r3, r2
 8002c4a:	f8c1 3090 	str.w	r3, [r1, #144]	@ 0x90
 8002c4e:	e009      	b.n	8002c64 <HAL_RCCEx_PeriphCLKConfig+0x26c>
 8002c50:	7cfb      	ldrb	r3, [r7, #19]
 8002c52:	74bb      	strb	r3, [r7, #18]
 8002c54:	e006      	b.n	8002c64 <HAL_RCCEx_PeriphCLKConfig+0x26c>
 8002c56:	bf00      	nop
 8002c58:	40021000 	.word	0x40021000
 8002c5c:	40007000 	.word	0x40007000
 8002c60:	7cfb      	ldrb	r3, [r7, #19]
 8002c62:	74bb      	strb	r3, [r7, #18]
 8002c64:	7c7b      	ldrb	r3, [r7, #17]
 8002c66:	2b01      	cmp	r3, #1
 8002c68:	d105      	bne.n	8002c76 <HAL_RCCEx_PeriphCLKConfig+0x27e>
 8002c6a:	4b9e      	ldr	r3, [pc, #632]	@ (8002ee4 <HAL_RCCEx_PeriphCLKConfig+0x4ec>)
 8002c6c:	6d9b      	ldr	r3, [r3, #88]	@ 0x58
 8002c6e:	4a9d      	ldr	r2, [pc, #628]	@ (8002ee4 <HAL_RCCEx_PeriphCLKConfig+0x4ec>)
 8002c70:	f023 5380 	bic.w	r3, r3, #268435456	@ 0x10000000
 8002c74:	6593      	str	r3, [r2, #88]	@ 0x58
 8002c76:	687b      	ldr	r3, [r7, #4]
 8002c78:	681b      	ldr	r3, [r3, #0]
 8002c7a:	f003 0301 	and.w	r3, r3, #1
 8002c7e:	2b00      	cmp	r3, #0
 8002c80:	d00a      	beq.n	8002c98 <HAL_RCCEx_PeriphCLKConfig+0x2a0>
 8002c82:	4b98      	ldr	r3, [pc, #608]	@ (8002ee4 <HAL_RCCEx_PeriphCLKConfig+0x4ec>)
 8002c84:	f8d3 3088 	ldr.w	r3, [r3, #136]	@ 0x88
 8002c88:	f023 0203 	bic.w	r2, r3, #3
 8002c8c:	687b      	ldr	r3, [r7, #4]
 8002c8e:	6b9b      	ldr	r3, [r3, #56]	@ 0x38
 8002c90:	4994      	ldr	r1, [pc, #592]	@ (8002ee4 <HAL_RCCEx_PeriphCLKConfig+0x4ec>)
 8002c92:	4313      	orrs	r3, r2
 8002c94:	f8c1 3088 	str.w	r3, [r1, #136]	@ 0x88
 8002c98:	687b      	ldr	r3, [r7, #4]
 8002c9a:	681b      	ldr	r3, [r3, #0]
 8002c9c:	f003 0302 	and.w	r3, r3, #2
 8002ca0:	2b00      	cmp	r3, #0
 8002ca2:	d00a      	beq.n	8002cba <HAL_RCCEx_PeriphCLKConfig+0x2c2>
 8002ca4:	4b8f      	ldr	r3, [pc, #572]	@ (8002ee4 <HAL_RCCEx_PeriphCLKConfig+0x4ec>)
 8002ca6:	f8d3 3088 	ldr.w	r3, [r3, #136]	@ 0x88
 8002caa:	f023 020c 	bic.w	r2, r3, #12
 8002cae:	687b      	ldr	r3, [r7, #4]
 8002cb0:	6bdb      	ldr	r3, [r3, #60]	@ 0x3c
 8002cb2:	498c      	ldr	r1, [pc, #560]	@ (8002ee4 <HAL_RCCEx_PeriphCLKConfig+0x4ec>)
 8002cb4:	4313      	orrs	r3, r2
 8002cb6:	f8c1 3088 	str.w	r3, [r1, #136]	@ 0x88
 8002cba:	687b      	ldr	r3, [r7, #4]
 8002cbc:	681b      	ldr	r3, [r3, #0]
 8002cbe:	f003 0304 	and.w	r3, r3, #4
 8002cc2:	2b00      	cmp	r3, #0
 8002cc4:	d00a      	beq.n	8002cdc <HAL_RCCEx_PeriphCLKConfig+0x2e4>
 8002cc6:	4b87      	ldr	r3, [pc, #540]	@ (8002ee4 <HAL_RCCEx_PeriphCLKConfig+0x4ec>)
 8002cc8:	f8d3 3088 	ldr.w	r3, [r3, #136]	@ 0x88
 8002ccc:	f023 0230 	bic.w	r2, r3, #48	@ 0x30
 8002cd0:	687b      	ldr	r3, [r7, #4]
 8002cd2:	6c1b      	ldr	r3, [r3, #64]	@ 0x40
 8002cd4:	4983      	ldr	r1, [pc, #524]	@ (8002ee4 <HAL_RCCEx_PeriphCLKConfig+0x4ec>)
 8002cd6:	4313      	orrs	r3, r2
 8002cd8:	f8c1 3088 	str.w	r3, [r1, #136]	@ 0x88
 8002cdc:	687b      	ldr	r3, [r7, #4]
 8002cde:	681b      	ldr	r3, [r3, #0]
 8002ce0:	f003 0308 	and.w	r3, r3, #8
 8002ce4:	2b00      	cmp	r3, #0
 8002ce6:	d00a      	beq.n	8002cfe <HAL_RCCEx_PeriphCLKConfig+0x306>
 8002ce8:	4b7e      	ldr	r3, [pc, #504]	@ (8002ee4 <HAL_RCCEx_PeriphCLKConfig+0x4ec>)
 8002cea:	f8d3 3088 	ldr.w	r3, [r3, #136]	@ 0x88
 8002cee:	f023 02c0 	bic.w	r2, r3, #192	@ 0xc0
 8002cf2:	687b      	ldr	r3, [r7, #4]
 8002cf4:	6c5b      	ldr	r3, [r3, #68]	@ 0x44
 8002cf6:	497b      	ldr	r1, [pc, #492]	@ (8002ee4 <HAL_RCCEx_PeriphCLKConfig+0x4ec>)
 8002cf8:	4313      	orrs	r3, r2
 8002cfa:	f8c1 3088 	str.w	r3, [r1, #136]	@ 0x88
 8002cfe:	687b      	ldr	r3, [r7, #4]
 8002d00:	681b      	ldr	r3, [r3, #0]
 8002d02:	f003 0310 	and.w	r3, r3, #16
 8002d06:	2b00      	cmp	r3, #0
 8002d08:	d00a      	beq.n	8002d20 <HAL_RCCEx_PeriphCLKConfig+0x328>
 8002d0a:	4b76      	ldr	r3, [pc, #472]	@ (8002ee4 <HAL_RCCEx_PeriphCLKConfig+0x4ec>)
 8002d0c:	f8d3 3088 	ldr.w	r3, [r3, #136]	@ 0x88
 8002d10:	f423 7240 	bic.w	r2, r3, #768	@ 0x300
 8002d14:	687b      	ldr	r3, [r7, #4]
 8002d16:	6c9b      	ldr	r3, [r3, #72]	@ 0x48
 8002d18:	4972      	ldr	r1, [pc, #456]	@ (8002ee4 <HAL_RCCEx_PeriphCLKConfig+0x4ec>)
 8002d1a:	4313      	orrs	r3, r2
 8002d1c:	f8c1 3088 	str.w	r3, [r1, #136]	@ 0x88
 8002d20:	687b      	ldr	r3, [r7, #4]
 8002d22:	681b      	ldr	r3, [r3, #0]
 8002d24:	f003 0320 	and.w	r3, r3, #32
 8002d28:	2b00      	cmp	r3, #0
 8002d2a:	d00a      	beq.n	8002d42 <HAL_RCCEx_PeriphCLKConfig+0x34a>
 8002d2c:	4b6d      	ldr	r3, [pc, #436]	@ (8002ee4 <HAL_RCCEx_PeriphCLKConfig+0x4ec>)
 8002d2e:	f8d3 3088 	ldr.w	r3, [r3, #136]	@ 0x88
 8002d32:	f423 6240 	bic.w	r2, r3, #3072	@ 0xc00
 8002d36:	687b      	ldr	r3, [r7, #4]
 8002d38:	6cdb      	ldr	r3, [r3, #76]	@ 0x4c
 8002d3a:	496a      	ldr	r1, [pc, #424]	@ (8002ee4 <HAL_RCCEx_PeriphCLKConfig+0x4ec>)
 8002d3c:	4313      	orrs	r3, r2
 8002d3e:	f8c1 3088 	str.w	r3, [r1, #136]	@ 0x88
 8002d42:	687b      	ldr	r3, [r7, #4]
 8002d44:	681b      	ldr	r3, [r3, #0]
 8002d46:	f403 7300 	and.w	r3, r3, #512	@ 0x200
 8002d4a:	2b00      	cmp	r3, #0
 8002d4c:	d00a      	beq.n	8002d64 <HAL_RCCEx_PeriphCLKConfig+0x36c>
 8002d4e:	4b65      	ldr	r3, [pc, #404]	@ (8002ee4 <HAL_RCCEx_PeriphCLKConfig+0x4ec>)
 8002d50:	f8d3 3088 	ldr.w	r3, [r3, #136]	@ 0x88
 8002d54:	f423 2240 	bic.w	r2, r3, #786432	@ 0xc0000
 8002d58:	687b      	ldr	r3, [r7, #4]
 8002d5a:	6ddb      	ldr	r3, [r3, #92]	@ 0x5c
 8002d5c:	4961      	ldr	r1, [pc, #388]	@ (8002ee4 <HAL_RCCEx_PeriphCLKConfig+0x4ec>)
 8002d5e:	4313      	orrs	r3, r2
 8002d60:	f8c1 3088 	str.w	r3, [r1, #136]	@ 0x88
 8002d64:	687b      	ldr	r3, [r7, #4]
 8002d66:	681b      	ldr	r3, [r3, #0]
 8002d68:	f403 6380 	and.w	r3, r3, #1024	@ 0x400
 8002d6c:	2b00      	cmp	r3, #0
 8002d6e:	d00a      	beq.n	8002d86 <HAL_RCCEx_PeriphCLKConfig+0x38e>
 8002d70:	4b5c      	ldr	r3, [pc, #368]	@ (8002ee4 <HAL_RCCEx_PeriphCLKConfig+0x4ec>)
 8002d72:	f8d3 3088 	ldr.w	r3, [r3, #136]	@ 0x88
 8002d76:	f423 1240 	bic.w	r2, r3, #3145728	@ 0x300000
 8002d7a:	687b      	ldr	r3, [r7, #4]
 8002d7c:	6e1b      	ldr	r3, [r3, #96]	@ 0x60
 8002d7e:	4959      	ldr	r1, [pc, #356]	@ (8002ee4 <HAL_RCCEx_PeriphCLKConfig+0x4ec>)
 8002d80:	4313      	orrs	r3, r2
 8002d82:	f8c1 3088 	str.w	r3, [r1, #136]	@ 0x88
 8002d86:	687b      	ldr	r3, [r7, #4]
 8002d88:	681b      	ldr	r3, [r3, #0]
 8002d8a:	f003 0340 	and.w	r3, r3, #64	@ 0x40
 8002d8e:	2b00      	cmp	r3, #0
 8002d90:	d00a      	beq.n	8002da8 <HAL_RCCEx_PeriphCLKConfig+0x3b0>
 8002d92:	4b54      	ldr	r3, [pc, #336]	@ (8002ee4 <HAL_RCCEx_PeriphCLKConfig+0x4ec>)
 8002d94:	f8d3 3088 	ldr.w	r3, [r3, #136]	@ 0x88
 8002d98:	f423 5240 	bic.w	r2, r3, #12288	@ 0x3000
 8002d9c:	687b      	ldr	r3, [r7, #4]
 8002d9e:	6d1b      	ldr	r3, [r3, #80]	@ 0x50
 8002da0:	4950      	ldr	r1, [pc, #320]	@ (8002ee4 <HAL_RCCEx_PeriphCLKConfig+0x4ec>)
 8002da2:	4313      	orrs	r3, r2
 8002da4:	f8c1 3088 	str.w	r3, [r1, #136]	@ 0x88
 8002da8:	687b      	ldr	r3, [r7, #4]
 8002daa:	681b      	ldr	r3, [r3, #0]
 8002dac:	f003 0380 	and.w	r3, r3, #128	@ 0x80
 8002db0:	2b00      	cmp	r3, #0
 8002db2:	d00a      	beq.n	8002dca <HAL_RCCEx_PeriphCLKConfig+0x3d2>
 8002db4:	4b4b      	ldr	r3, [pc, #300]	@ (8002ee4 <HAL_RCCEx_PeriphCLKConfig+0x4ec>)
 8002db6:	f8d3 3088 	ldr.w	r3, [r3, #136]	@ 0x88
 8002dba:	f423 4240 	bic.w	r2, r3, #49152	@ 0xc000
 8002dbe:	687b      	ldr	r3, [r7, #4]
 8002dc0:	6d5b      	ldr	r3, [r3, #84]	@ 0x54
 8002dc2:	4948      	ldr	r1, [pc, #288]	@ (8002ee4 <HAL_RCCEx_PeriphCLKConfig+0x4ec>)
 8002dc4:	4313      	orrs	r3, r2
 8002dc6:	f8c1 3088 	str.w	r3, [r1, #136]	@ 0x88
 8002dca:	687b      	ldr	r3, [r7, #4]
 8002dcc:	681b      	ldr	r3, [r3, #0]
 8002dce:	f403 7380 	and.w	r3, r3, #256	@ 0x100
 8002dd2:	2b00      	cmp	r3, #0
 8002dd4:	d00a      	beq.n	8002dec <HAL_RCCEx_PeriphCLKConfig+0x3f4>
 8002dd6:	4b43      	ldr	r3, [pc, #268]	@ (8002ee4 <HAL_RCCEx_PeriphCLKConfig+0x4ec>)
 8002dd8:	f8d3 3088 	ldr.w	r3, [r3, #136]	@ 0x88
 8002ddc:	f423 3240 	bic.w	r2, r3, #196608	@ 0x30000
 8002de0:	687b      	ldr	r3, [r7, #4]
 8002de2:	6d9b      	ldr	r3, [r3, #88]	@ 0x58
 8002de4:	493f      	ldr	r1, [pc, #252]	@ (8002ee4 <HAL_RCCEx_PeriphCLKConfig+0x4ec>)
 8002de6:	4313      	orrs	r3, r2
 8002de8:	f8c1 3088 	str.w	r3, [r1, #136]	@ 0x88
 8002dec:	687b      	ldr	r3, [r7, #4]
 8002dee:	681b      	ldr	r3, [r3, #0]
 8002df0:	f403 5300 	and.w	r3, r3, #8192	@ 0x2000
 8002df4:	2b00      	cmp	r3, #0
 8002df6:	d028      	beq.n	8002e4a <HAL_RCCEx_PeriphCLKConfig+0x452>
 8002df8:	4b3a      	ldr	r3, [pc, #232]	@ (8002ee4 <HAL_RCCEx_PeriphCLKConfig+0x4ec>)
 8002dfa:	f8d3 3088 	ldr.w	r3, [r3, #136]	@ 0x88
 8002dfe:	f023 6240 	bic.w	r2, r3, #201326592	@ 0xc000000
 8002e02:	687b      	ldr	r3, [r7, #4]
 8002e04:	6edb      	ldr	r3, [r3, #108]	@ 0x6c
 8002e06:	4937      	ldr	r1, [pc, #220]	@ (8002ee4 <HAL_RCCEx_PeriphCLKConfig+0x4ec>)
 8002e08:	4313      	orrs	r3, r2
 8002e0a:	f8c1 3088 	str.w	r3, [r1, #136]	@ 0x88
 8002e0e:	687b      	ldr	r3, [r7, #4]
 8002e10:	6edb      	ldr	r3, [r3, #108]	@ 0x6c
 8002e12:	f1b3 6f00 	cmp.w	r3, #134217728	@ 0x8000000
 8002e16:	d106      	bne.n	8002e26 <HAL_RCCEx_PeriphCLKConfig+0x42e>
 8002e18:	4b32      	ldr	r3, [pc, #200]	@ (8002ee4 <HAL_RCCEx_PeriphCLKConfig+0x4ec>)
 8002e1a:	68db      	ldr	r3, [r3, #12]
 8002e1c:	4a31      	ldr	r2, [pc, #196]	@ (8002ee4 <HAL_RCCEx_PeriphCLKConfig+0x4ec>)
 8002e1e:	f443 1380 	orr.w	r3, r3, #1048576	@ 0x100000
 8002e22:	60d3      	str	r3, [r2, #12]
 8002e24:	e011      	b.n	8002e4a <HAL_RCCEx_PeriphCLKConfig+0x452>
 8002e26:	687b      	ldr	r3, [r7, #4]
 8002e28:	6edb      	ldr	r3, [r3, #108]	@ 0x6c
 8002e2a:	f1b3 6f80 	cmp.w	r3, #67108864	@ 0x4000000
 8002e2e:	d10c      	bne.n	8002e4a <HAL_RCCEx_PeriphCLKConfig+0x452>
 8002e30:	687b      	ldr	r3, [r7, #4]
 8002e32:	3304      	adds	r3, #4
 8002e34:	2101      	movs	r1, #1
 8002e36:	4618      	mov	r0, r3
 8002e38:	f000 f8c8 	bl	8002fcc <RCCEx_PLLSAI1_Config>
 8002e3c:	4603      	mov	r3, r0
 8002e3e:	74fb      	strb	r3, [r7, #19]
 8002e40:	7cfb      	ldrb	r3, [r7, #19]
 8002e42:	2b00      	cmp	r3, #0
 8002e44:	d001      	beq.n	8002e4a <HAL_RCCEx_PeriphCLKConfig+0x452>
 8002e46:	7cfb      	ldrb	r3, [r7, #19]
 8002e48:	74bb      	strb	r3, [r7, #18]
 8002e4a:	687b      	ldr	r3, [r7, #4]
 8002e4c:	681b      	ldr	r3, [r3, #0]
 8002e4e:	f403 2300 	and.w	r3, r3, #524288	@ 0x80000
 8002e52:	2b00      	cmp	r3, #0
 8002e54:	d028      	beq.n	8002ea8 <HAL_RCCEx_PeriphCLKConfig+0x4b0>
 8002e56:	4b23      	ldr	r3, [pc, #140]	@ (8002ee4 <HAL_RCCEx_PeriphCLKConfig+0x4ec>)
 8002e58:	f8d3 3088 	ldr.w	r3, [r3, #136]	@ 0x88
 8002e5c:	f023 6240 	bic.w	r2, r3, #201326592	@ 0xc000000
 8002e60:	687b      	ldr	r3, [r7, #4]
 8002e62:	6f1b      	ldr	r3, [r3, #112]	@ 0x70
 8002e64:	491f      	ldr	r1, [pc, #124]	@ (8002ee4 <HAL_RCCEx_PeriphCLKConfig+0x4ec>)
 8002e66:	4313      	orrs	r3, r2
 8002e68:	f8c1 3088 	str.w	r3, [r1, #136]	@ 0x88
 8002e6c:	687b      	ldr	r3, [r7, #4]
 8002e6e:	6f1b      	ldr	r3, [r3, #112]	@ 0x70
 8002e70:	f1b3 6f00 	cmp.w	r3, #134217728	@ 0x8000000
 8002e74:	d106      	bne.n	8002e84 <HAL_RCCEx_PeriphCLKConfig+0x48c>
 8002e76:	4b1b      	ldr	r3, [pc, #108]	@ (8002ee4 <HAL_RCCEx_PeriphCLKConfig+0x4ec>)
 8002e78:	68db      	ldr	r3, [r3, #12]
 8002e7a:	4a1a      	ldr	r2, [pc, #104]	@ (8002ee4 <HAL_RCCEx_PeriphCLKConfig+0x4ec>)
 8002e7c:	f443 1380 	orr.w	r3, r3, #1048576	@ 0x100000
 8002e80:	60d3      	str	r3, [r2, #12]
 8002e82:	e011      	b.n	8002ea8 <HAL_RCCEx_PeriphCLKConfig+0x4b0>
 8002e84:	687b      	ldr	r3, [r7, #4]
 8002e86:	6f1b      	ldr	r3, [r3, #112]	@ 0x70
 8002e88:	f1b3 6f80 	cmp.w	r3, #67108864	@ 0x4000000
 8002e8c:	d10c      	bne.n	8002ea8 <HAL_RCCEx_PeriphCLKConfig+0x4b0>
 8002e8e:	687b      	ldr	r3, [r7, #4]
 8002e90:	3304      	adds	r3, #4
 8002e92:	2101      	movs	r1, #1
 8002e94:	4618      	mov	r0, r3
 8002e96:	f000 f899 	bl	8002fcc <RCCEx_PLLSAI1_Config>
 8002e9a:	4603      	mov	r3, r0
 8002e9c:	74fb      	strb	r3, [r7, #19]
 8002e9e:	7cfb      	ldrb	r3, [r7, #19]
 8002ea0:	2b00      	cmp	r3, #0
 8002ea2:	d001      	beq.n	8002ea8 <HAL_RCCEx_PeriphCLKConfig+0x4b0>
 8002ea4:	7cfb      	ldrb	r3, [r7, #19]
 8002ea6:	74bb      	strb	r3, [r7, #18]
 8002ea8:	687b      	ldr	r3, [r7, #4]
 8002eaa:	681b      	ldr	r3, [r3, #0]
 8002eac:	f403 2380 	and.w	r3, r3, #262144	@ 0x40000
 8002eb0:	2b00      	cmp	r3, #0
 8002eb2:	d02b      	beq.n	8002f0c <HAL_RCCEx_PeriphCLKConfig+0x514>
 8002eb4:	4b0b      	ldr	r3, [pc, #44]	@ (8002ee4 <HAL_RCCEx_PeriphCLKConfig+0x4ec>)
 8002eb6:	f8d3 3088 	ldr.w	r3, [r3, #136]	@ 0x88
 8002eba:	f023 6240 	bic.w	r2, r3, #201326592	@ 0xc000000
 8002ebe:	687b      	ldr	r3, [r7, #4]
 8002ec0:	6f5b      	ldr	r3, [r3, #116]	@ 0x74
 8002ec2:	4908      	ldr	r1, [pc, #32]	@ (8002ee4 <HAL_RCCEx_PeriphCLKConfig+0x4ec>)
 8002ec4:	4313      	orrs	r3, r2
 8002ec6:	f8c1 3088 	str.w	r3, [r1, #136]	@ 0x88
 8002eca:	687b      	ldr	r3, [r7, #4]
 8002ecc:	6f5b      	ldr	r3, [r3, #116]	@ 0x74
 8002ece:	f1b3 6f00 	cmp.w	r3, #134217728	@ 0x8000000
 8002ed2:	d109      	bne.n	8002ee8 <HAL_RCCEx_PeriphCLKConfig+0x4f0>
 8002ed4:	4b03      	ldr	r3, [pc, #12]	@ (8002ee4 <HAL_RCCEx_PeriphCLKConfig+0x4ec>)
 8002ed6:	68db      	ldr	r3, [r3, #12]
 8002ed8:	4a02      	ldr	r2, [pc, #8]	@ (8002ee4 <HAL_RCCEx_PeriphCLKConfig+0x4ec>)
 8002eda:	f443 1380 	orr.w	r3, r3, #1048576	@ 0x100000
 8002ede:	60d3      	str	r3, [r2, #12]
 8002ee0:	e014      	b.n	8002f0c <HAL_RCCEx_PeriphCLKConfig+0x514>
 8002ee2:	bf00      	nop
 8002ee4:	40021000 	.word	0x40021000
 8002ee8:	687b      	ldr	r3, [r7, #4]
 8002eea:	6f5b      	ldr	r3, [r3, #116]	@ 0x74
 8002eec:	f1b3 6f80 	cmp.w	r3, #67108864	@ 0x4000000
 8002ef0:	d10c      	bne.n	8002f0c <HAL_RCCEx_PeriphCLKConfig+0x514>
 8002ef2:	687b      	ldr	r3, [r7, #4]
 8002ef4:	3304      	adds	r3, #4
 8002ef6:	2101      	movs	r1, #1
 8002ef8:	4618      	mov	r0, r3
 8002efa:	f000 f867 	bl	8002fcc <RCCEx_PLLSAI1_Config>
 8002efe:	4603      	mov	r3, r0
 8002f00:	74fb      	strb	r3, [r7, #19]
 8002f02:	7cfb      	ldrb	r3, [r7, #19]
 8002f04:	2b00      	cmp	r3, #0
 8002f06:	d001      	beq.n	8002f0c <HAL_RCCEx_PeriphCLKConfig+0x514>
 8002f08:	7cfb      	ldrb	r3, [r7, #19]
 8002f0a:	74bb      	strb	r3, [r7, #18]
 8002f0c:	687b      	ldr	r3, [r7, #4]
 8002f0e:	681b      	ldr	r3, [r3, #0]
 8002f10:	f403 4380 	and.w	r3, r3, #16384	@ 0x4000
 8002f14:	2b00      	cmp	r3, #0
 8002f16:	d02f      	beq.n	8002f78 <HAL_RCCEx_PeriphCLKConfig+0x580>
 8002f18:	4b2b      	ldr	r3, [pc, #172]	@ (8002fc8 <HAL_RCCEx_PeriphCLKConfig+0x5d0>)
 8002f1a:	f8d3 3088 	ldr.w	r3, [r3, #136]	@ 0x88
 8002f1e:	f023 5240 	bic.w	r2, r3, #805306368	@ 0x30000000
 8002f22:	687b      	ldr	r3, [r7, #4]
 8002f24:	6f9b      	ldr	r3, [r3, #120]	@ 0x78
 8002f26:	4928      	ldr	r1, [pc, #160]	@ (8002fc8 <HAL_RCCEx_PeriphCLKConfig+0x5d0>)
 8002f28:	4313      	orrs	r3, r2
 8002f2a:	f8c1 3088 	str.w	r3, [r1, #136]	@ 0x88
 8002f2e:	687b      	ldr	r3, [r7, #4]
 8002f30:	6f9b      	ldr	r3, [r3, #120]	@ 0x78
 8002f32:	f1b3 5f80 	cmp.w	r3, #268435456	@ 0x10000000
 8002f36:	d10d      	bne.n	8002f54 <HAL_RCCEx_PeriphCLKConfig+0x55c>
 8002f38:	687b      	ldr	r3, [r7, #4]
 8002f3a:	3304      	adds	r3, #4
 8002f3c:	2102      	movs	r1, #2
 8002f3e:	4618      	mov	r0, r3
 8002f40:	f000 f844 	bl	8002fcc <RCCEx_PLLSAI1_Config>
 8002f44:	4603      	mov	r3, r0
 8002f46:	74fb      	strb	r3, [r7, #19]
 8002f48:	7cfb      	ldrb	r3, [r7, #19]
 8002f4a:	2b00      	cmp	r3, #0
 8002f4c:	d014      	beq.n	8002f78 <HAL_RCCEx_PeriphCLKConfig+0x580>
 8002f4e:	7cfb      	ldrb	r3, [r7, #19]
 8002f50:	74bb      	strb	r3, [r7, #18]
 8002f52:	e011      	b.n	8002f78 <HAL_RCCEx_PeriphCLKConfig+0x580>
 8002f54:	687b      	ldr	r3, [r7, #4]
 8002f56:	6f9b      	ldr	r3, [r3, #120]	@ 0x78
 8002f58:	f1b3 5f00 	cmp.w	r3, #536870912	@ 0x20000000
 8002f5c:	d10c      	bne.n	8002f78 <HAL_RCCEx_PeriphCLKConfig+0x580>
 8002f5e:	687b      	ldr	r3, [r7, #4]
 8002f60:	3320      	adds	r3, #32
 8002f62:	2102      	movs	r1, #2
 8002f64:	4618      	mov	r0, r3
 8002f66:	f000 f925 	bl	80031b4 <RCCEx_PLLSAI2_Config>
 8002f6a:	4603      	mov	r3, r0
 8002f6c:	74fb      	strb	r3, [r7, #19]
 8002f6e:	7cfb      	ldrb	r3, [r7, #19]
 8002f70:	2b00      	cmp	r3, #0
 8002f72:	d001      	beq.n	8002f78 <HAL_RCCEx_PeriphCLKConfig+0x580>
 8002f74:	7cfb      	ldrb	r3, [r7, #19]
 8002f76:	74bb      	strb	r3, [r7, #18]
 8002f78:	687b      	ldr	r3, [r7, #4]
 8002f7a:	681b      	ldr	r3, [r3, #0]
 8002f7c:	f403 4300 	and.w	r3, r3, #32768	@ 0x8000
 8002f80:	2b00      	cmp	r3, #0
 8002f82:	d00a      	beq.n	8002f9a <HAL_RCCEx_PeriphCLKConfig+0x5a2>
 8002f84:	4b10      	ldr	r3, [pc, #64]	@ (8002fc8 <HAL_RCCEx_PeriphCLKConfig+0x5d0>)
 8002f86:	f8d3 3088 	ldr.w	r3, [r3, #136]	@ 0x88
 8002f8a:	f023 4280 	bic.w	r2, r3, #1073741824	@ 0x40000000
 8002f8e:	687b      	ldr	r3, [r7, #4]
 8002f90:	6fdb      	ldr	r3, [r3, #124]	@ 0x7c
 8002f92:	490d      	ldr	r1, [pc, #52]	@ (8002fc8 <HAL_RCCEx_PeriphCLKConfig+0x5d0>)
 8002f94:	4313      	orrs	r3, r2
 8002f96:	f8c1 3088 	str.w	r3, [r1, #136]	@ 0x88
 8002f9a:	687b      	ldr	r3, [r7, #4]
 8002f9c:	681b      	ldr	r3, [r3, #0]
 8002f9e:	f403 3380 	and.w	r3, r3, #65536	@ 0x10000
 8002fa2:	2b00      	cmp	r3, #0
 8002fa4:	d00b      	beq.n	8002fbe <HAL_RCCEx_PeriphCLKConfig+0x5c6>
 8002fa6:	4b08      	ldr	r3, [pc, #32]	@ (8002fc8 <HAL_RCCEx_PeriphCLKConfig+0x5d0>)
 8002fa8:	f8d3 3088 	ldr.w	r3, [r3, #136]	@ 0x88
 8002fac:	f023 4200 	bic.w	r2, r3, #2147483648	@ 0x80000000
 8002fb0:	687b      	ldr	r3, [r7, #4]
 8002fb2:	f8d3 3080 	ldr.w	r3, [r3, #128]	@ 0x80
 8002fb6:	4904      	ldr	r1, [pc, #16]	@ (8002fc8 <HAL_RCCEx_PeriphCLKConfig+0x5d0>)
 8002fb8:	4313      	orrs	r3, r2
 8002fba:	f8c1 3088 	str.w	r3, [r1, #136]	@ 0x88
 8002fbe:	7cbb      	ldrb	r3, [r7, #18]
 8002fc0:	4618      	mov	r0, r3
 8002fc2:	3718      	adds	r7, #24
 8002fc4:	46bd      	mov	sp, r7
 8002fc6:	bd80      	pop	{r7, pc}
 8002fc8:	40021000 	.word	0x40021000

08002fcc <RCCEx_PLLSAI1_Config>:
 8002fcc:	b580      	push	{r7, lr}
 8002fce:	b084      	sub	sp, #16
 8002fd0:	af00      	add	r7, sp, #0
 8002fd2:	6078      	str	r0, [r7, #4]
 8002fd4:	6039      	str	r1, [r7, #0]
 8002fd6:	2300      	movs	r3, #0
 8002fd8:	73fb      	strb	r3, [r7, #15]
 8002fda:	4b75      	ldr	r3, [pc, #468]	@ (80031b0 <RCCEx_PLLSAI1_Config+0x1e4>)
 8002fdc:	68db      	ldr	r3, [r3, #12]
 8002fde:	f003 0303 	and.w	r3, r3, #3
 8002fe2:	2b00      	cmp	r3, #0
 8002fe4:	d018      	beq.n	8003018 <RCCEx_PLLSAI1_Config+0x4c>
 8002fe6:	4b72      	ldr	r3, [pc, #456]	@ (80031b0 <RCCEx_PLLSAI1_Config+0x1e4>)
 8002fe8:	68db      	ldr	r3, [r3, #12]
 8002fea:	f003 0203 	and.w	r2, r3, #3
 8002fee:	687b      	ldr	r3, [r7, #4]
 8002ff0:	681b      	ldr	r3, [r3, #0]
 8002ff2:	429a      	cmp	r2, r3
 8002ff4:	d10d      	bne.n	8003012 <RCCEx_PLLSAI1_Config+0x46>
 8002ff6:	687b      	ldr	r3, [r7, #4]
 8002ff8:	681b      	ldr	r3, [r3, #0]
 8002ffa:	2b00      	cmp	r3, #0
 8002ffc:	d009      	beq.n	8003012 <RCCEx_PLLSAI1_Config+0x46>
 8002ffe:	4b6c      	ldr	r3, [pc, #432]	@ (80031b0 <RCCEx_PLLSAI1_Config+0x1e4>)
 8003000:	68db      	ldr	r3, [r3, #12]
 8003002:	091b      	lsrs	r3, r3, #4
 8003004:	f003 0307 	and.w	r3, r3, #7
 8003008:	1c5a      	adds	r2, r3, #1
 800300a:	687b      	ldr	r3, [r7, #4]
 800300c:	685b      	ldr	r3, [r3, #4]
 800300e:	429a      	cmp	r2, r3
 8003010:	d047      	beq.n	80030a2 <RCCEx_PLLSAI1_Config+0xd6>
 8003012:	2301      	movs	r3, #1
 8003014:	73fb      	strb	r3, [r7, #15]
 8003016:	e044      	b.n	80030a2 <RCCEx_PLLSAI1_Config+0xd6>
 8003018:	687b      	ldr	r3, [r7, #4]
 800301a:	681b      	ldr	r3, [r3, #0]
 800301c:	2b03      	cmp	r3, #3
 800301e:	d018      	beq.n	8003052 <RCCEx_PLLSAI1_Config+0x86>
 8003020:	2b03      	cmp	r3, #3
 8003022:	d825      	bhi.n	8003070 <RCCEx_PLLSAI1_Config+0xa4>
 8003024:	2b01      	cmp	r3, #1
 8003026:	d002      	beq.n	800302e <RCCEx_PLLSAI1_Config+0x62>
 8003028:	2b02      	cmp	r3, #2
 800302a:	d009      	beq.n	8003040 <RCCEx_PLLSAI1_Config+0x74>
 800302c:	e020      	b.n	8003070 <RCCEx_PLLSAI1_Config+0xa4>
 800302e:	4b60      	ldr	r3, [pc, #384]	@ (80031b0 <RCCEx_PLLSAI1_Config+0x1e4>)
 8003030:	681b      	ldr	r3, [r3, #0]
 8003032:	f003 0302 	and.w	r3, r3, #2
 8003036:	2b00      	cmp	r3, #0
 8003038:	d11d      	bne.n	8003076 <RCCEx_PLLSAI1_Config+0xaa>
 800303a:	2301      	movs	r3, #1
 800303c:	73fb      	strb	r3, [r7, #15]
 800303e:	e01a      	b.n	8003076 <RCCEx_PLLSAI1_Config+0xaa>
 8003040:	4b5b      	ldr	r3, [pc, #364]	@ (80031b0 <RCCEx_PLLSAI1_Config+0x1e4>)
 8003042:	681b      	ldr	r3, [r3, #0]
 8003044:	f403 6380 	and.w	r3, r3, #1024	@ 0x400
 8003048:	2b00      	cmp	r3, #0
 800304a:	d116      	bne.n	800307a <RCCEx_PLLSAI1_Config+0xae>
 800304c:	2301      	movs	r3, #1
 800304e:	73fb      	strb	r3, [r7, #15]
 8003050:	e013      	b.n	800307a <RCCEx_PLLSAI1_Config+0xae>
 8003052:	4b57      	ldr	r3, [pc, #348]	@ (80031b0 <RCCEx_PLLSAI1_Config+0x1e4>)
 8003054:	681b      	ldr	r3, [r3, #0]
 8003056:	f403 3300 	and.w	r3, r3, #131072	@ 0x20000
 800305a:	2b00      	cmp	r3, #0
 800305c:	d10f      	bne.n	800307e <RCCEx_PLLSAI1_Config+0xb2>
 800305e:	4b54      	ldr	r3, [pc, #336]	@ (80031b0 <RCCEx_PLLSAI1_Config+0x1e4>)
 8003060:	681b      	ldr	r3, [r3, #0]
 8003062:	f403 2380 	and.w	r3, r3, #262144	@ 0x40000
 8003066:	2b00      	cmp	r3, #0
 8003068:	d109      	bne.n	800307e <RCCEx_PLLSAI1_Config+0xb2>
 800306a:	2301      	movs	r3, #1
 800306c:	73fb      	strb	r3, [r7, #15]
 800306e:	e006      	b.n	800307e <RCCEx_PLLSAI1_Config+0xb2>
 8003070:	2301      	movs	r3, #1
 8003072:	73fb      	strb	r3, [r7, #15]
 8003074:	e004      	b.n	8003080 <RCCEx_PLLSAI1_Config+0xb4>
 8003076:	bf00      	nop
 8003078:	e002      	b.n	8003080 <RCCEx_PLLSAI1_Config+0xb4>
 800307a:	bf00      	nop
 800307c:	e000      	b.n	8003080 <RCCEx_PLLSAI1_Config+0xb4>
 800307e:	bf00      	nop
 8003080:	7bfb      	ldrb	r3, [r7, #15]
 8003082:	2b00      	cmp	r3, #0
 8003084:	d10d      	bne.n	80030a2 <RCCEx_PLLSAI1_Config+0xd6>
 8003086:	4b4a      	ldr	r3, [pc, #296]	@ (80031b0 <RCCEx_PLLSAI1_Config+0x1e4>)
 8003088:	68db      	ldr	r3, [r3, #12]
 800308a:	f023 0273 	bic.w	r2, r3, #115	@ 0x73
 800308e:	687b      	ldr	r3, [r7, #4]
 8003090:	6819      	ldr	r1, [r3, #0]
 8003092:	687b      	ldr	r3, [r7, #4]
 8003094:	685b      	ldr	r3, [r3, #4]
 8003096:	3b01      	subs	r3, #1
 8003098:	011b      	lsls	r3, r3, #4
 800309a:	430b      	orrs	r3, r1
 800309c:	4944      	ldr	r1, [pc, #272]	@ (80031b0 <RCCEx_PLLSAI1_Config+0x1e4>)
 800309e:	4313      	orrs	r3, r2
 80030a0:	60cb      	str	r3, [r1, #12]
 80030a2:	7bfb      	ldrb	r3, [r7, #15]
 80030a4:	2b00      	cmp	r3, #0
 80030a6:	d17d      	bne.n	80031a4 <RCCEx_PLLSAI1_Config+0x1d8>
 80030a8:	4b41      	ldr	r3, [pc, #260]	@ (80031b0 <RCCEx_PLLSAI1_Config+0x1e4>)
 80030aa:	681b      	ldr	r3, [r3, #0]
 80030ac:	4a40      	ldr	r2, [pc, #256]	@ (80031b0 <RCCEx_PLLSAI1_Config+0x1e4>)
 80030ae:	f023 6380 	bic.w	r3, r3, #67108864	@ 0x4000000
 80030b2:	6013      	str	r3, [r2, #0]
 80030b4:	f7fe fab6 	bl	8001624 <HAL_GetTick>
 80030b8:	60b8      	str	r0, [r7, #8]
 80030ba:	e009      	b.n	80030d0 <RCCEx_PLLSAI1_Config+0x104>
 80030bc:	f7fe fab2 	bl	8001624 <HAL_GetTick>
 80030c0:	4602      	mov	r2, r0
 80030c2:	68bb      	ldr	r3, [r7, #8]
 80030c4:	1ad3      	subs	r3, r2, r3
 80030c6:	2b02      	cmp	r3, #2
 80030c8:	d902      	bls.n	80030d0 <RCCEx_PLLSAI1_Config+0x104>
 80030ca:	2303      	movs	r3, #3
 80030cc:	73fb      	strb	r3, [r7, #15]
 80030ce:	e005      	b.n	80030dc <RCCEx_PLLSAI1_Config+0x110>
 80030d0:	4b37      	ldr	r3, [pc, #220]	@ (80031b0 <RCCEx_PLLSAI1_Config+0x1e4>)
 80030d2:	681b      	ldr	r3, [r3, #0]
 80030d4:	f003 6300 	and.w	r3, r3, #134217728	@ 0x8000000
 80030d8:	2b00      	cmp	r3, #0
 80030da:	d1ef      	bne.n	80030bc <RCCEx_PLLSAI1_Config+0xf0>
 80030dc:	7bfb      	ldrb	r3, [r7, #15]
 80030de:	2b00      	cmp	r3, #0
 80030e0:	d160      	bne.n	80031a4 <RCCEx_PLLSAI1_Config+0x1d8>
 80030e2:	683b      	ldr	r3, [r7, #0]
 80030e4:	2b00      	cmp	r3, #0
 80030e6:	d111      	bne.n	800310c <RCCEx_PLLSAI1_Config+0x140>
 80030e8:	4b31      	ldr	r3, [pc, #196]	@ (80031b0 <RCCEx_PLLSAI1_Config+0x1e4>)
 80030ea:	691b      	ldr	r3, [r3, #16]
 80030ec:	f423 331f 	bic.w	r3, r3, #162816	@ 0x27c00
 80030f0:	f423 7340 	bic.w	r3, r3, #768	@ 0x300
 80030f4:	687a      	ldr	r2, [r7, #4]
 80030f6:	6892      	ldr	r2, [r2, #8]
 80030f8:	0211      	lsls	r1, r2, #8
 80030fa:	687a      	ldr	r2, [r7, #4]
 80030fc:	68d2      	ldr	r2, [r2, #12]
 80030fe:	0912      	lsrs	r2, r2, #4
 8003100:	0452      	lsls	r2, r2, #17
 8003102:	430a      	orrs	r2, r1
 8003104:	492a      	ldr	r1, [pc, #168]	@ (80031b0 <RCCEx_PLLSAI1_Config+0x1e4>)
 8003106:	4313      	orrs	r3, r2
 8003108:	610b      	str	r3, [r1, #16]
 800310a:	e027      	b.n	800315c <RCCEx_PLLSAI1_Config+0x190>
 800310c:	683b      	ldr	r3, [r7, #0]
 800310e:	2b01      	cmp	r3, #1
 8003110:	d112      	bne.n	8003138 <RCCEx_PLLSAI1_Config+0x16c>
 8003112:	4b27      	ldr	r3, [pc, #156]	@ (80031b0 <RCCEx_PLLSAI1_Config+0x1e4>)
 8003114:	691b      	ldr	r3, [r3, #16]
 8003116:	f423 03c0 	bic.w	r3, r3, #6291456	@ 0x600000
 800311a:	f423 43fe 	bic.w	r3, r3, #32512	@ 0x7f00
 800311e:	687a      	ldr	r2, [r7, #4]
 8003120:	6892      	ldr	r2, [r2, #8]
 8003122:	0211      	lsls	r1, r2, #8
 8003124:	687a      	ldr	r2, [r7, #4]
 8003126:	6912      	ldr	r2, [r2, #16]
 8003128:	0852      	lsrs	r2, r2, #1
 800312a:	3a01      	subs	r2, #1
 800312c:	0552      	lsls	r2, r2, #21
 800312e:	430a      	orrs	r2, r1
 8003130:	491f      	ldr	r1, [pc, #124]	@ (80031b0 <RCCEx_PLLSAI1_Config+0x1e4>)
 8003132:	4313      	orrs	r3, r2
 8003134:	610b      	str	r3, [r1, #16]
 8003136:	e011      	b.n	800315c <RCCEx_PLLSAI1_Config+0x190>
 8003138:	4b1d      	ldr	r3, [pc, #116]	@ (80031b0 <RCCEx_PLLSAI1_Config+0x1e4>)
 800313a:	691b      	ldr	r3, [r3, #16]
 800313c:	f023 63c0 	bic.w	r3, r3, #100663296	@ 0x6000000
 8003140:	f423 43fe 	bic.w	r3, r3, #32512	@ 0x7f00
 8003144:	687a      	ldr	r2, [r7, #4]
 8003146:	6892      	ldr	r2, [r2, #8]
 8003148:	0211      	lsls	r1, r2, #8
 800314a:	687a      	ldr	r2, [r7, #4]
 800314c:	6952      	ldr	r2, [r2, #20]
 800314e:	0852      	lsrs	r2, r2, #1
 8003150:	3a01      	subs	r2, #1
 8003152:	0652      	lsls	r2, r2, #25
 8003154:	430a      	orrs	r2, r1
 8003156:	4916      	ldr	r1, [pc, #88]	@ (80031b0 <RCCEx_PLLSAI1_Config+0x1e4>)
 8003158:	4313      	orrs	r3, r2
 800315a:	610b      	str	r3, [r1, #16]
 800315c:	4b14      	ldr	r3, [pc, #80]	@ (80031b0 <RCCEx_PLLSAI1_Config+0x1e4>)
 800315e:	681b      	ldr	r3, [r3, #0]
 8003160:	4a13      	ldr	r2, [pc, #76]	@ (80031b0 <RCCEx_PLLSAI1_Config+0x1e4>)
 8003162:	f043 6380 	orr.w	r3, r3, #67108864	@ 0x4000000
 8003166:	6013      	str	r3, [r2, #0]
 8003168:	f7fe fa5c 	bl	8001624 <HAL_GetTick>
 800316c:	60b8      	str	r0, [r7, #8]
 800316e:	e009      	b.n	8003184 <RCCEx_PLLSAI1_Config+0x1b8>
 8003170:	f7fe fa58 	bl	8001624 <HAL_GetTick>
 8003174:	4602      	mov	r2, r0
 8003176:	68bb      	ldr	r3, [r7, #8]
 8003178:	1ad3      	subs	r3, r2, r3
 800317a:	2b02      	cmp	r3, #2
 800317c:	d902      	bls.n	8003184 <RCCEx_PLLSAI1_Config+0x1b8>
 800317e:	2303      	movs	r3, #3
 8003180:	73fb      	strb	r3, [r7, #15]
 8003182:	e005      	b.n	8003190 <RCCEx_PLLSAI1_Config+0x1c4>
 8003184:	4b0a      	ldr	r3, [pc, #40]	@ (80031b0 <RCCEx_PLLSAI1_Config+0x1e4>)
 8003186:	681b      	ldr	r3, [r3, #0]
 8003188:	f003 6300 	and.w	r3, r3, #134217728	@ 0x8000000
 800318c:	2b00      	cmp	r3, #0
 800318e:	d0ef      	beq.n	8003170 <RCCEx_PLLSAI1_Config+0x1a4>
 8003190:	7bfb      	ldrb	r3, [r7, #15]
 8003192:	2b00      	cmp	r3, #0
 8003194:	d106      	bne.n	80031a4 <RCCEx_PLLSAI1_Config+0x1d8>
 8003196:	4b06      	ldr	r3, [pc, #24]	@ (80031b0 <RCCEx_PLLSAI1_Config+0x1e4>)
 8003198:	691a      	ldr	r2, [r3, #16]
 800319a:	687b      	ldr	r3, [r7, #4]
 800319c:	699b      	ldr	r3, [r3, #24]
 800319e:	4904      	ldr	r1, [pc, #16]	@ (80031b0 <RCCEx_PLLSAI1_Config+0x1e4>)
 80031a0:	4313      	orrs	r3, r2
 80031a2:	610b      	str	r3, [r1, #16]
 80031a4:	7bfb      	ldrb	r3, [r7, #15]
 80031a6:	4618      	mov	r0, r3
 80031a8:	3710      	adds	r7, #16
 80031aa:	46bd      	mov	sp, r7
 80031ac:	bd80      	pop	{r7, pc}
 80031ae:	bf00      	nop
 80031b0:	40021000 	.word	0x40021000

080031b4 <RCCEx_PLLSAI2_Config>:
 80031b4:	b580      	push	{r7, lr}
 80031b6:	b084      	sub	sp, #16
 80031b8:	af00      	add	r7, sp, #0
 80031ba:	6078      	str	r0, [r7, #4]
 80031bc:	6039      	str	r1, [r7, #0]
 80031be:	2300      	movs	r3, #0
 80031c0:	73fb      	strb	r3, [r7, #15]
 80031c2:	4b6a      	ldr	r3, [pc, #424]	@ (800336c <RCCEx_PLLSAI2_Config+0x1b8>)
 80031c4:	68db      	ldr	r3, [r3, #12]
 80031c6:	f003 0303 	and.w	r3, r3, #3
 80031ca:	2b00      	cmp	r3, #0
 80031cc:	d018      	beq.n	8003200 <RCCEx_PLLSAI2_Config+0x4c>
 80031ce:	4b67      	ldr	r3, [pc, #412]	@ (800336c <RCCEx_PLLSAI2_Config+0x1b8>)
 80031d0:	68db      	ldr	r3, [r3, #12]
 80031d2:	f003 0203 	and.w	r2, r3, #3
 80031d6:	687b      	ldr	r3, [r7, #4]
 80031d8:	681b      	ldr	r3, [r3, #0]
 80031da:	429a      	cmp	r2, r3
 80031dc:	d10d      	bne.n	80031fa <RCCEx_PLLSAI2_Config+0x46>
 80031de:	687b      	ldr	r3, [r7, #4]
 80031e0:	681b      	ldr	r3, [r3, #0]
 80031e2:	2b00      	cmp	r3, #0
 80031e4:	d009      	beq.n	80031fa <RCCEx_PLLSAI2_Config+0x46>
 80031e6:	4b61      	ldr	r3, [pc, #388]	@ (800336c <RCCEx_PLLSAI2_Config+0x1b8>)
 80031e8:	68db      	ldr	r3, [r3, #12]
 80031ea:	091b      	lsrs	r3, r3, #4
 80031ec:	f003 0307 	and.w	r3, r3, #7
 80031f0:	1c5a      	adds	r2, r3, #1
 80031f2:	687b      	ldr	r3, [r7, #4]
 80031f4:	685b      	ldr	r3, [r3, #4]
 80031f6:	429a      	cmp	r2, r3
 80031f8:	d047      	beq.n	800328a <RCCEx_PLLSAI2_Config+0xd6>
 80031fa:	2301      	movs	r3, #1
 80031fc:	73fb      	strb	r3, [r7, #15]
 80031fe:	e044      	b.n	800328a <RCCEx_PLLSAI2_Config+0xd6>
 8003200:	687b      	ldr	r3, [r7, #4]
 8003202:	681b      	ldr	r3, [r3, #0]
 8003204:	2b03      	cmp	r3, #3
 8003206:	d018      	beq.n	800323a <RCCEx_PLLSAI2_Config+0x86>
 8003208:	2b03      	cmp	r3, #3
 800320a:	d825      	bhi.n	8003258 <RCCEx_PLLSAI2_Config+0xa4>
 800320c:	2b01      	cmp	r3, #1
 800320e:	d002      	beq.n	8003216 <RCCEx_PLLSAI2_Config+0x62>
 8003210:	2b02      	cmp	r3, #2
 8003212:	d009      	beq.n	8003228 <RCCEx_PLLSAI2_Config+0x74>
 8003214:	e020      	b.n	8003258 <RCCEx_PLLSAI2_Config+0xa4>
 8003216:	4b55      	ldr	r3, [pc, #340]	@ (800336c <RCCEx_PLLSAI2_Config+0x1b8>)
 8003218:	681b      	ldr	r3, [r3, #0]
 800321a:	f003 0302 	and.w	r3, r3, #2
 800321e:	2b00      	cmp	r3, #0
 8003220:	d11d      	bne.n	800325e <RCCEx_PLLSAI2_Config+0xaa>
 8003222:	2301      	movs	r3, #1
 8003224:	73fb      	strb	r3, [r7, #15]
 8003226:	e01a      	b.n	800325e <RCCEx_PLLSAI2_Config+0xaa>
 8003228:	4b50      	ldr	r3, [pc, #320]	@ (800336c <RCCEx_PLLSAI2_Config+0x1b8>)
 800322a:	681b      	ldr	r3, [r3, #0]
 800322c:	f403 6380 	and.w	r3, r3, #1024	@ 0x400
 8003230:	2b00      	cmp	r3, #0
 8003232:	d116      	bne.n	8003262 <RCCEx_PLLSAI2_Config+0xae>
 8003234:	2301      	movs	r3, #1
 8003236:	73fb      	strb	r3, [r7, #15]
 8003238:	e013      	b.n	8003262 <RCCEx_PLLSAI2_Config+0xae>
 800323a:	4b4c      	ldr	r3, [pc, #304]	@ (800336c <RCCEx_PLLSAI2_Config+0x1b8>)
 800323c:	681b      	ldr	r3, [r3, #0]
 800323e:	f403 3300 	and.w	r3, r3, #131072	@ 0x20000
 8003242:	2b00      	cmp	r3, #0
 8003244:	d10f      	bne.n	8003266 <RCCEx_PLLSAI2_Config+0xb2>
 8003246:	4b49      	ldr	r3, [pc, #292]	@ (800336c <RCCEx_PLLSAI2_Config+0x1b8>)
 8003248:	681b      	ldr	r3, [r3, #0]
 800324a:	f403 2380 	and.w	r3, r3, #262144	@ 0x40000
 800324e:	2b00      	cmp	r3, #0
 8003250:	d109      	bne.n	8003266 <RCCEx_PLLSAI2_Config+0xb2>
 8003252:	2301      	movs	r3, #1
 8003254:	73fb      	strb	r3, [r7, #15]
 8003256:	e006      	b.n	8003266 <RCCEx_PLLSAI2_Config+0xb2>
 8003258:	2301      	movs	r3, #1
 800325a:	73fb      	strb	r3, [r7, #15]
 800325c:	e004      	b.n	8003268 <RCCEx_PLLSAI2_Config+0xb4>
 800325e:	bf00      	nop
 8003260:	e002      	b.n	8003268 <RCCEx_PLLSAI2_Config+0xb4>
 8003262:	bf00      	nop
 8003264:	e000      	b.n	8003268 <RCCEx_PLLSAI2_Config+0xb4>
 8003266:	bf00      	nop
 8003268:	7bfb      	ldrb	r3, [r7, #15]
 800326a:	2b00      	cmp	r3, #0
 800326c:	d10d      	bne.n	800328a <RCCEx_PLLSAI2_Config+0xd6>
 800326e:	4b3f      	ldr	r3, [pc, #252]	@ (800336c <RCCEx_PLLSAI2_Config+0x1b8>)
 8003270:	68db      	ldr	r3, [r3, #12]
 8003272:	f023 0273 	bic.w	r2, r3, #115	@ 0x73
 8003276:	687b      	ldr	r3, [r7, #4]
 8003278:	6819      	ldr	r1, [r3, #0]
 800327a:	687b      	ldr	r3, [r7, #4]
 800327c:	685b      	ldr	r3, [r3, #4]
 800327e:	3b01      	subs	r3, #1
 8003280:	011b      	lsls	r3, r3, #4
 8003282:	430b      	orrs	r3, r1
 8003284:	4939      	ldr	r1, [pc, #228]	@ (800336c <RCCEx_PLLSAI2_Config+0x1b8>)
 8003286:	4313      	orrs	r3, r2
 8003288:	60cb      	str	r3, [r1, #12]
 800328a:	7bfb      	ldrb	r3, [r7, #15]
 800328c:	2b00      	cmp	r3, #0
 800328e:	d167      	bne.n	8003360 <RCCEx_PLLSAI2_Config+0x1ac>
 8003290:	4b36      	ldr	r3, [pc, #216]	@ (800336c <RCCEx_PLLSAI2_Config+0x1b8>)
 8003292:	681b      	ldr	r3, [r3, #0]
 8003294:	4a35      	ldr	r2, [pc, #212]	@ (800336c <RCCEx_PLLSAI2_Config+0x1b8>)
 8003296:	f023 5380 	bic.w	r3, r3, #268435456	@ 0x10000000
 800329a:	6013      	str	r3, [r2, #0]
 800329c:	f7fe f9c2 	bl	8001624 <HAL_GetTick>
 80032a0:	60b8      	str	r0, [r7, #8]
 80032a2:	e009      	b.n	80032b8 <RCCEx_PLLSAI2_Config+0x104>
 80032a4:	f7fe f9be 	bl	8001624 <HAL_GetTick>
 80032a8:	4602      	mov	r2, r0
 80032aa:	68bb      	ldr	r3, [r7, #8]
 80032ac:	1ad3      	subs	r3, r2, r3
 80032ae:	2b02      	cmp	r3, #2
 80032b0:	d902      	bls.n	80032b8 <RCCEx_PLLSAI2_Config+0x104>
 80032b2:	2303      	movs	r3, #3
 80032b4:	73fb      	strb	r3, [r7, #15]
 80032b6:	e005      	b.n	80032c4 <RCCEx_PLLSAI2_Config+0x110>
 80032b8:	4b2c      	ldr	r3, [pc, #176]	@ (800336c <RCCEx_PLLSAI2_Config+0x1b8>)
 80032ba:	681b      	ldr	r3, [r3, #0]
 80032bc:	f003 5300 	and.w	r3, r3, #536870912	@ 0x20000000
 80032c0:	2b00      	cmp	r3, #0
 80032c2:	d1ef      	bne.n	80032a4 <RCCEx_PLLSAI2_Config+0xf0>
 80032c4:	7bfb      	ldrb	r3, [r7, #15]
 80032c6:	2b00      	cmp	r3, #0
 80032c8:	d14a      	bne.n	8003360 <RCCEx_PLLSAI2_Config+0x1ac>
 80032ca:	683b      	ldr	r3, [r7, #0]
 80032cc:	2b00      	cmp	r3, #0
 80032ce:	d111      	bne.n	80032f4 <RCCEx_PLLSAI2_Config+0x140>
 80032d0:	4b26      	ldr	r3, [pc, #152]	@ (800336c <RCCEx_PLLSAI2_Config+0x1b8>)
 80032d2:	695b      	ldr	r3, [r3, #20]
 80032d4:	f423 331f 	bic.w	r3, r3, #162816	@ 0x27c00
 80032d8:	f423 7340 	bic.w	r3, r3, #768	@ 0x300
 80032dc:	687a      	ldr	r2, [r7, #4]
 80032de:	6892      	ldr	r2, [r2, #8]
 80032e0:	0211      	lsls	r1, r2, #8
 80032e2:	687a      	ldr	r2, [r7, #4]
 80032e4:	68d2      	ldr	r2, [r2, #12]
 80032e6:	0912      	lsrs	r2, r2, #4
 80032e8:	0452      	lsls	r2, r2, #17
 80032ea:	430a      	orrs	r2, r1
 80032ec:	491f      	ldr	r1, [pc, #124]	@ (800336c <RCCEx_PLLSAI2_Config+0x1b8>)
 80032ee:	4313      	orrs	r3, r2
 80032f0:	614b      	str	r3, [r1, #20]
 80032f2:	e011      	b.n	8003318 <RCCEx_PLLSAI2_Config+0x164>
 80032f4:	4b1d      	ldr	r3, [pc, #116]	@ (800336c <RCCEx_PLLSAI2_Config+0x1b8>)
 80032f6:	695b      	ldr	r3, [r3, #20]
 80032f8:	f023 63c0 	bic.w	r3, r3, #100663296	@ 0x6000000
 80032fc:	f423 43fe 	bic.w	r3, r3, #32512	@ 0x7f00
 8003300:	687a      	ldr	r2, [r7, #4]
 8003302:	6892      	ldr	r2, [r2, #8]
 8003304:	0211      	lsls	r1, r2, #8
 8003306:	687a      	ldr	r2, [r7, #4]
 8003308:	6912      	ldr	r2, [r2, #16]
 800330a:	0852      	lsrs	r2, r2, #1
 800330c:	3a01      	subs	r2, #1
 800330e:	0652      	lsls	r2, r2, #25
 8003310:	430a      	orrs	r2, r1
 8003312:	4916      	ldr	r1, [pc, #88]	@ (800336c <RCCEx_PLLSAI2_Config+0x1b8>)
 8003314:	4313      	orrs	r3, r2
 8003316:	614b      	str	r3, [r1, #20]
 8003318:	4b14      	ldr	r3, [pc, #80]	@ (800336c <RCCEx_PLLSAI2_Config+0x1b8>)
 800331a:	681b      	ldr	r3, [r3, #0]
 800331c:	4a13      	ldr	r2, [pc, #76]	@ (800336c <RCCEx_PLLSAI2_Config+0x1b8>)
 800331e:	f043 5380 	orr.w	r3, r3, #268435456	@ 0x10000000
 8003322:	6013      	str	r3, [r2, #0]
 8003324:	f7fe f97e 	bl	8001624 <HAL_GetTick>
 8003328:	60b8      	str	r0, [r7, #8]
 800332a:	e009      	b.n	8003340 <RCCEx_PLLSAI2_Config+0x18c>
 800332c:	f7fe f97a 	bl	8001624 <HAL_GetTick>
 8003330:	4602      	mov	r2, r0
 8003332:	68bb      	ldr	r3, [r7, #8]
 8003334:	1ad3      	subs	r3, r2, r3
 8003336:	2b02      	cmp	r3, #2
 8003338:	d902      	bls.n	8003340 <RCCEx_PLLSAI2_Config+0x18c>
 800333a:	2303      	movs	r3, #3
 800333c:	73fb      	strb	r3, [r7, #15]
 800333e:	e005      	b.n	800334c <RCCEx_PLLSAI2_Config+0x198>
 8003340:	4b0a      	ldr	r3, [pc, #40]	@ (800336c <RCCEx_PLLSAI2_Config+0x1b8>)
 8003342:	681b      	ldr	r3, [r3, #0]
 8003344:	f003 5300 	and.w	r3, r3, #536870912	@ 0x20000000
 8003348:	2b00      	cmp	r3, #0
 800334a:	d0ef      	beq.n	800332c <RCCEx_PLLSAI2_Config+0x178>
 800334c:	7bfb      	ldrb	r3, [r7, #15]
 800334e:	2b00      	cmp	r3, #0
 8003350:	d106      	bne.n	8003360 <RCCEx_PLLSAI2_Config+0x1ac>
 8003352:	4b06      	ldr	r3, [pc, #24]	@ (800336c <RCCEx_PLLSAI2_Config+0x1b8>)
 8003354:	695a      	ldr	r2, [r3, #20]
 8003356:	687b      	ldr	r3, [r7, #4]
 8003358:	695b      	ldr	r3, [r3, #20]
 800335a:	4904      	ldr	r1, [pc, #16]	@ (800336c <RCCEx_PLLSAI2_Config+0x1b8>)
 800335c:	4313      	orrs	r3, r2
 800335e:	614b      	str	r3, [r1, #20]
 8003360:	7bfb      	ldrb	r3, [r7, #15]
 8003362:	4618      	mov	r0, r3
 8003364:	3710      	adds	r7, #16
 8003366:	46bd      	mov	sp, r7
 8003368:	bd80      	pop	{r7, pc}
 800336a:	bf00      	nop
 800336c:	40021000 	.word	0x40021000

08003370 <HAL_SPI_Init>:
 8003370:	b580      	push	{r7, lr}
 8003372:	b084      	sub	sp, #16
 8003374:	af00      	add	r7, sp, #0
 8003376:	6078      	str	r0, [r7, #4]
 8003378:	687b      	ldr	r3, [r7, #4]
 800337a:	2b00      	cmp	r3, #0
 800337c:	d101      	bne.n	8003382 <HAL_SPI_Init+0x12>
 800337e:	2301      	movs	r3, #1
 8003380:	e095      	b.n	80034ae <HAL_SPI_Init+0x13e>
 8003382:	687b      	ldr	r3, [r7, #4]
 8003384:	6a5b      	ldr	r3, [r3, #36]	@ 0x24
 8003386:	2b00      	cmp	r3, #0
 8003388:	d108      	bne.n	800339c <HAL_SPI_Init+0x2c>
 800338a:	687b      	ldr	r3, [r7, #4]
 800338c:	685b      	ldr	r3, [r3, #4]
 800338e:	f5b3 7f82 	cmp.w	r3, #260	@ 0x104
 8003392:	d009      	beq.n	80033a8 <HAL_SPI_Init+0x38>
 8003394:	687b      	ldr	r3, [r7, #4]
 8003396:	2200      	movs	r2, #0
 8003398:	61da      	str	r2, [r3, #28]
 800339a:	e005      	b.n	80033a8 <HAL_SPI_Init+0x38>
 800339c:	687b      	ldr	r3, [r7, #4]
 800339e:	2200      	movs	r2, #0
 80033a0:	611a      	str	r2, [r3, #16]
 80033a2:	687b      	ldr	r3, [r7, #4]
 80033a4:	2200      	movs	r2, #0
 80033a6:	615a      	str	r2, [r3, #20]
 80033a8:	687b      	ldr	r3, [r7, #4]
 80033aa:	2200      	movs	r2, #0
 80033ac:	629a      	str	r2, [r3, #40]	@ 0x28
 80033ae:	687b      	ldr	r3, [r7, #4]
 80033b0:	f893 305d 	ldrb.w	r3, [r3, #93]	@ 0x5d
 80033b4:	b2db      	uxtb	r3, r3
 80033b6:	2b00      	cmp	r3, #0
 80033b8:	d106      	bne.n	80033c8 <HAL_SPI_Init+0x58>
 80033ba:	687b      	ldr	r3, [r7, #4]
 80033bc:	2200      	movs	r2, #0
 80033be:	f883 205c 	strb.w	r2, [r3, #92]	@ 0x5c
 80033c2:	6878      	ldr	r0, [r7, #4]
 80033c4:	f7fd fe52 	bl	800106c <HAL_SPI_MspInit>
 80033c8:	687b      	ldr	r3, [r7, #4]
 80033ca:	2202      	movs	r2, #2
 80033cc:	f883 205d 	strb.w	r2, [r3, #93]	@ 0x5d
 80033d0:	687b      	ldr	r3, [r7, #4]
 80033d2:	681b      	ldr	r3, [r3, #0]
 80033d4:	681a      	ldr	r2, [r3, #0]
 80033d6:	687b      	ldr	r3, [r7, #4]
 80033d8:	681b      	ldr	r3, [r3, #0]
 80033da:	f022 0240 	bic.w	r2, r2, #64	@ 0x40
 80033de:	601a      	str	r2, [r3, #0]
 80033e0:	687b      	ldr	r3, [r7, #4]
 80033e2:	68db      	ldr	r3, [r3, #12]
 80033e4:	f5b3 6fe0 	cmp.w	r3, #1792	@ 0x700
 80033e8:	d902      	bls.n	80033f0 <HAL_SPI_Init+0x80>
 80033ea:	2300      	movs	r3, #0
 80033ec:	60fb      	str	r3, [r7, #12]
 80033ee:	e002      	b.n	80033f6 <HAL_SPI_Init+0x86>
 80033f0:	f44f 5380 	mov.w	r3, #4096	@ 0x1000
 80033f4:	60fb      	str	r3, [r7, #12]
 80033f6:	687b      	ldr	r3, [r7, #4]
 80033f8:	68db      	ldr	r3, [r3, #12]
 80033fa:	f5b3 6f70 	cmp.w	r3, #3840	@ 0xf00
 80033fe:	d007      	beq.n	8003410 <HAL_SPI_Init+0xa0>
 8003400:	687b      	ldr	r3, [r7, #4]
 8003402:	68db      	ldr	r3, [r3, #12]
 8003404:	f5b3 6fe0 	cmp.w	r3, #1792	@ 0x700
 8003408:	d002      	beq.n	8003410 <HAL_SPI_Init+0xa0>
 800340a:	687b      	ldr	r3, [r7, #4]
 800340c:	2200      	movs	r2, #0
 800340e:	629a      	str	r2, [r3, #40]	@ 0x28
 8003410:	687b      	ldr	r3, [r7, #4]
 8003412:	685b      	ldr	r3, [r3, #4]
 8003414:	f403 7282 	and.w	r2, r3, #260	@ 0x104
 8003418:	687b      	ldr	r3, [r7, #4]
 800341a:	689b      	ldr	r3, [r3, #8]
 800341c:	f403 4304 	and.w	r3, r3, #33792	@ 0x8400
 8003420:	431a      	orrs	r2, r3
 8003422:	687b      	ldr	r3, [r7, #4]
 8003424:	691b      	ldr	r3, [r3, #16]
 8003426:	f003 0302 	and.w	r3, r3, #2
 800342a:	431a      	orrs	r2, r3
 800342c:	687b      	ldr	r3, [r7, #4]
 800342e:	695b      	ldr	r3, [r3, #20]
 8003430:	f003 0301 	and.w	r3, r3, #1
 8003434:	431a      	orrs	r2, r3
 8003436:	687b      	ldr	r3, [r7, #4]
 8003438:	699b      	ldr	r3, [r3, #24]
 800343a:	f403 7300 	and.w	r3, r3, #512	@ 0x200
 800343e:	431a      	orrs	r2, r3
 8003440:	687b      	ldr	r3, [r7, #4]
 8003442:	69db      	ldr	r3, [r3, #28]
 8003444:	f003 0338 	and.w	r3, r3, #56	@ 0x38
 8003448:	431a      	orrs	r2, r3
 800344a:	687b      	ldr	r3, [r7, #4]
 800344c:	6a1b      	ldr	r3, [r3, #32]
 800344e:	f003 0380 	and.w	r3, r3, #128	@ 0x80
 8003452:	ea42 0103 	orr.w	r1, r2, r3
 8003456:	687b      	ldr	r3, [r7, #4]
 8003458:	6a9b      	ldr	r3, [r3, #40]	@ 0x28
 800345a:	f403 5200 	and.w	r2, r3, #8192	@ 0x2000
 800345e:	687b      	ldr	r3, [r7, #4]
 8003460:	681b      	ldr	r3, [r3, #0]
 8003462:	430a      	orrs	r2, r1
 8003464:	601a      	str	r2, [r3, #0]
 8003466:	687b      	ldr	r3, [r7, #4]
 8003468:	699b      	ldr	r3, [r3, #24]
 800346a:	0c1b      	lsrs	r3, r3, #16
 800346c:	f003 0204 	and.w	r2, r3, #4
 8003470:	687b      	ldr	r3, [r7, #4]
 8003472:	6a5b      	ldr	r3, [r3, #36]	@ 0x24
 8003474:	f003 0310 	and.w	r3, r3, #16
 8003478:	431a      	orrs	r2, r3
 800347a:	687b      	ldr	r3, [r7, #4]
 800347c:	6b5b      	ldr	r3, [r3, #52]	@ 0x34
 800347e:	f003 0308 	and.w	r3, r3, #8
 8003482:	431a      	orrs	r2, r3
 8003484:	687b      	ldr	r3, [r7, #4]
 8003486:	68db      	ldr	r3, [r3, #12]
 8003488:	f403 6370 	and.w	r3, r3, #3840	@ 0xf00
 800348c:	ea42 0103 	orr.w	r1, r2, r3
 8003490:	68fb      	ldr	r3, [r7, #12]
 8003492:	f403 5280 	and.w	r2, r3, #4096	@ 0x1000
 8003496:	687b      	ldr	r3, [r7, #4]
 8003498:	681b      	ldr	r3, [r3, #0]
 800349a:	430a      	orrs	r2, r1
 800349c:	605a      	str	r2, [r3, #4]
 800349e:	687b      	ldr	r3, [r7, #4]
 80034a0:	2200      	movs	r2, #0
 80034a2:	661a      	str	r2, [r3, #96]	@ 0x60
 80034a4:	687b      	ldr	r3, [r7, #4]
 80034a6:	2201      	movs	r2, #1
 80034a8:	f883 205d 	strb.w	r2, [r3, #93]	@ 0x5d
 80034ac:	2300      	movs	r3, #0
 80034ae:	4618      	mov	r0, r3
 80034b0:	3710      	adds	r7, #16
 80034b2:	46bd      	mov	sp, r7
 80034b4:	bd80      	pop	{r7, pc}

080034b6 <HAL_SPI_Transmit>:
 80034b6:	b580      	push	{r7, lr}
 80034b8:	b088      	sub	sp, #32
 80034ba:	af00      	add	r7, sp, #0
 80034bc:	60f8      	str	r0, [r7, #12]
 80034be:	60b9      	str	r1, [r7, #8]
 80034c0:	603b      	str	r3, [r7, #0]
 80034c2:	4613      	mov	r3, r2
 80034c4:	80fb      	strh	r3, [r7, #6]
 80034c6:	f7fe f8ad 	bl	8001624 <HAL_GetTick>
 80034ca:	61f8      	str	r0, [r7, #28]
 80034cc:	88fb      	ldrh	r3, [r7, #6]
 80034ce:	837b      	strh	r3, [r7, #26]
 80034d0:	68fb      	ldr	r3, [r7, #12]
 80034d2:	f893 305d 	ldrb.w	r3, [r3, #93]	@ 0x5d
 80034d6:	b2db      	uxtb	r3, r3
 80034d8:	2b01      	cmp	r3, #1
 80034da:	d001      	beq.n	80034e0 <HAL_SPI_Transmit+0x2a>
 80034dc:	2302      	movs	r3, #2
 80034de:	e15c      	b.n	800379a <HAL_SPI_Transmit+0x2e4>
 80034e0:	68bb      	ldr	r3, [r7, #8]
 80034e2:	2b00      	cmp	r3, #0
 80034e4:	d002      	beq.n	80034ec <HAL_SPI_Transmit+0x36>
 80034e6:	88fb      	ldrh	r3, [r7, #6]
 80034e8:	2b00      	cmp	r3, #0
 80034ea:	d101      	bne.n	80034f0 <HAL_SPI_Transmit+0x3a>
 80034ec:	2301      	movs	r3, #1
 80034ee:	e154      	b.n	800379a <HAL_SPI_Transmit+0x2e4>
 80034f0:	68fb      	ldr	r3, [r7, #12]
 80034f2:	f893 305c 	ldrb.w	r3, [r3, #92]	@ 0x5c
 80034f6:	2b01      	cmp	r3, #1
 80034f8:	d101      	bne.n	80034fe <HAL_SPI_Transmit+0x48>
 80034fa:	2302      	movs	r3, #2
 80034fc:	e14d      	b.n	800379a <HAL_SPI_Transmit+0x2e4>
 80034fe:	68fb      	ldr	r3, [r7, #12]
 8003500:	2201      	movs	r2, #1
 8003502:	f883 205c 	strb.w	r2, [r3, #92]	@ 0x5c
 8003506:	68fb      	ldr	r3, [r7, #12]
 8003508:	2203      	movs	r2, #3
 800350a:	f883 205d 	strb.w	r2, [r3, #93]	@ 0x5d
 800350e:	68fb      	ldr	r3, [r7, #12]
 8003510:	2200      	movs	r2, #0
 8003512:	661a      	str	r2, [r3, #96]	@ 0x60
 8003514:	68fb      	ldr	r3, [r7, #12]
 8003516:	68ba      	ldr	r2, [r7, #8]
 8003518:	639a      	str	r2, [r3, #56]	@ 0x38
 800351a:	68fb      	ldr	r3, [r7, #12]
 800351c:	88fa      	ldrh	r2, [r7, #6]
 800351e:	879a      	strh	r2, [r3, #60]	@ 0x3c
 8003520:	68fb      	ldr	r3, [r7, #12]
 8003522:	88fa      	ldrh	r2, [r7, #6]
 8003524:	87da      	strh	r2, [r3, #62]	@ 0x3e
 8003526:	68fb      	ldr	r3, [r7, #12]
 8003528:	2200      	movs	r2, #0
 800352a:	641a      	str	r2, [r3, #64]	@ 0x40
 800352c:	68fb      	ldr	r3, [r7, #12]
 800352e:	2200      	movs	r2, #0
 8003530:	f8a3 2044 	strh.w	r2, [r3, #68]	@ 0x44
 8003534:	68fb      	ldr	r3, [r7, #12]
 8003536:	2200      	movs	r2, #0
 8003538:	f8a3 2046 	strh.w	r2, [r3, #70]	@ 0x46
 800353c:	68fb      	ldr	r3, [r7, #12]
 800353e:	2200      	movs	r2, #0
 8003540:	651a      	str	r2, [r3, #80]	@ 0x50
 8003542:	68fb      	ldr	r3, [r7, #12]
 8003544:	2200      	movs	r2, #0
 8003546:	64da      	str	r2, [r3, #76]	@ 0x4c
 8003548:	68fb      	ldr	r3, [r7, #12]
 800354a:	689b      	ldr	r3, [r3, #8]
 800354c:	f5b3 4f00 	cmp.w	r3, #32768	@ 0x8000
 8003550:	d10f      	bne.n	8003572 <HAL_SPI_Transmit+0xbc>
 8003552:	68fb      	ldr	r3, [r7, #12]
 8003554:	681b      	ldr	r3, [r3, #0]
 8003556:	681a      	ldr	r2, [r3, #0]
 8003558:	68fb      	ldr	r3, [r7, #12]
 800355a:	681b      	ldr	r3, [r3, #0]
 800355c:	f022 0240 	bic.w	r2, r2, #64	@ 0x40
 8003560:	601a      	str	r2, [r3, #0]
 8003562:	68fb      	ldr	r3, [r7, #12]
 8003564:	681b      	ldr	r3, [r3, #0]
 8003566:	681a      	ldr	r2, [r3, #0]
 8003568:	68fb      	ldr	r3, [r7, #12]
 800356a:	681b      	ldr	r3, [r3, #0]
 800356c:	f442 4280 	orr.w	r2, r2, #16384	@ 0x4000
 8003570:	601a      	str	r2, [r3, #0]
 8003572:	68fb      	ldr	r3, [r7, #12]
 8003574:	681b      	ldr	r3, [r3, #0]
 8003576:	681b      	ldr	r3, [r3, #0]
 8003578:	f003 0340 	and.w	r3, r3, #64	@ 0x40
 800357c:	2b40      	cmp	r3, #64	@ 0x40
 800357e:	d007      	beq.n	8003590 <HAL_SPI_Transmit+0xda>
 8003580:	68fb      	ldr	r3, [r7, #12]
 8003582:	681b      	ldr	r3, [r3, #0]
 8003584:	681a      	ldr	r2, [r3, #0]
 8003586:	68fb      	ldr	r3, [r7, #12]
 8003588:	681b      	ldr	r3, [r3, #0]
 800358a:	f042 0240 	orr.w	r2, r2, #64	@ 0x40
 800358e:	601a      	str	r2, [r3, #0]
 8003590:	68fb      	ldr	r3, [r7, #12]
 8003592:	68db      	ldr	r3, [r3, #12]
 8003594:	f5b3 6fe0 	cmp.w	r3, #1792	@ 0x700
 8003598:	d952      	bls.n	8003640 <HAL_SPI_Transmit+0x18a>
 800359a:	68fb      	ldr	r3, [r7, #12]
 800359c:	685b      	ldr	r3, [r3, #4]
 800359e:	2b00      	cmp	r3, #0
 80035a0:	d002      	beq.n	80035a8 <HAL_SPI_Transmit+0xf2>
 80035a2:	8b7b      	ldrh	r3, [r7, #26]
 80035a4:	2b01      	cmp	r3, #1
 80035a6:	d145      	bne.n	8003634 <HAL_SPI_Transmit+0x17e>
 80035a8:	68fb      	ldr	r3, [r7, #12]
 80035aa:	6b9b      	ldr	r3, [r3, #56]	@ 0x38
 80035ac:	881a      	ldrh	r2, [r3, #0]
 80035ae:	68fb      	ldr	r3, [r7, #12]
 80035b0:	681b      	ldr	r3, [r3, #0]
 80035b2:	60da      	str	r2, [r3, #12]
 80035b4:	68fb      	ldr	r3, [r7, #12]
 80035b6:	6b9b      	ldr	r3, [r3, #56]	@ 0x38
 80035b8:	1c9a      	adds	r2, r3, #2
 80035ba:	68fb      	ldr	r3, [r7, #12]
 80035bc:	639a      	str	r2, [r3, #56]	@ 0x38
 80035be:	68fb      	ldr	r3, [r7, #12]
 80035c0:	8fdb      	ldrh	r3, [r3, #62]	@ 0x3e
 80035c2:	b29b      	uxth	r3, r3
 80035c4:	3b01      	subs	r3, #1
 80035c6:	b29a      	uxth	r2, r3
 80035c8:	68fb      	ldr	r3, [r7, #12]
 80035ca:	87da      	strh	r2, [r3, #62]	@ 0x3e
 80035cc:	e032      	b.n	8003634 <HAL_SPI_Transmit+0x17e>
 80035ce:	68fb      	ldr	r3, [r7, #12]
 80035d0:	681b      	ldr	r3, [r3, #0]
 80035d2:	689b      	ldr	r3, [r3, #8]
 80035d4:	f003 0302 	and.w	r3, r3, #2
 80035d8:	2b02      	cmp	r3, #2
 80035da:	d112      	bne.n	8003602 <HAL_SPI_Transmit+0x14c>
 80035dc:	68fb      	ldr	r3, [r7, #12]
 80035de:	6b9b      	ldr	r3, [r3, #56]	@ 0x38
 80035e0:	881a      	ldrh	r2, [r3, #0]
 80035e2:	68fb      	ldr	r3, [r7, #12]
 80035e4:	681b      	ldr	r3, [r3, #0]
 80035e6:	60da      	str	r2, [r3, #12]
 80035e8:	68fb      	ldr	r3, [r7, #12]
 80035ea:	6b9b      	ldr	r3, [r3, #56]	@ 0x38
 80035ec:	1c9a      	adds	r2, r3, #2
 80035ee:	68fb      	ldr	r3, [r7, #12]
 80035f0:	639a      	str	r2, [r3, #56]	@ 0x38
 80035f2:	68fb      	ldr	r3, [r7, #12]
 80035f4:	8fdb      	ldrh	r3, [r3, #62]	@ 0x3e
 80035f6:	b29b      	uxth	r3, r3
 80035f8:	3b01      	subs	r3, #1
 80035fa:	b29a      	uxth	r2, r3
 80035fc:	68fb      	ldr	r3, [r7, #12]
 80035fe:	87da      	strh	r2, [r3, #62]	@ 0x3e
 8003600:	e018      	b.n	8003634 <HAL_SPI_Transmit+0x17e>
 8003602:	f7fe f80f 	bl	8001624 <HAL_GetTick>
 8003606:	4602      	mov	r2, r0
 8003608:	69fb      	ldr	r3, [r7, #28]
 800360a:	1ad3      	subs	r3, r2, r3
 800360c:	683a      	ldr	r2, [r7, #0]
 800360e:	429a      	cmp	r2, r3
 8003610:	d803      	bhi.n	800361a <HAL_SPI_Transmit+0x164>
 8003612:	683b      	ldr	r3, [r7, #0]
 8003614:	f1b3 3fff 	cmp.w	r3, #4294967295
 8003618:	d102      	bne.n	8003620 <HAL_SPI_Transmit+0x16a>
 800361a:	683b      	ldr	r3, [r7, #0]
 800361c:	2b00      	cmp	r3, #0
 800361e:	d109      	bne.n	8003634 <HAL_SPI_Transmit+0x17e>
 8003620:	68fb      	ldr	r3, [r7, #12]
 8003622:	2201      	movs	r2, #1
 8003624:	f883 205d 	strb.w	r2, [r3, #93]	@ 0x5d
 8003628:	68fb      	ldr	r3, [r7, #12]
 800362a:	2200      	movs	r2, #0
 800362c:	f883 205c 	strb.w	r2, [r3, #92]	@ 0x5c
 8003630:	2303      	movs	r3, #3
 8003632:	e0b2      	b.n	800379a <HAL_SPI_Transmit+0x2e4>
 8003634:	68fb      	ldr	r3, [r7, #12]
 8003636:	8fdb      	ldrh	r3, [r3, #62]	@ 0x3e
 8003638:	b29b      	uxth	r3, r3
 800363a:	2b00      	cmp	r3, #0
 800363c:	d1c7      	bne.n	80035ce <HAL_SPI_Transmit+0x118>
 800363e:	e083      	b.n	8003748 <HAL_SPI_Transmit+0x292>
 8003640:	68fb      	ldr	r3, [r7, #12]
 8003642:	685b      	ldr	r3, [r3, #4]
 8003644:	2b00      	cmp	r3, #0
 8003646:	d002      	beq.n	800364e <HAL_SPI_Transmit+0x198>
 8003648:	8b7b      	ldrh	r3, [r7, #26]
 800364a:	2b01      	cmp	r3, #1
 800364c:	d177      	bne.n	800373e <HAL_SPI_Transmit+0x288>
 800364e:	68fb      	ldr	r3, [r7, #12]
 8003650:	8fdb      	ldrh	r3, [r3, #62]	@ 0x3e
 8003652:	b29b      	uxth	r3, r3
 8003654:	2b01      	cmp	r3, #1
 8003656:	d912      	bls.n	800367e <HAL_SPI_Transmit+0x1c8>
 8003658:	68fb      	ldr	r3, [r7, #12]
 800365a:	6b9b      	ldr	r3, [r3, #56]	@ 0x38
 800365c:	881a      	ldrh	r2, [r3, #0]
 800365e:	68fb      	ldr	r3, [r7, #12]
 8003660:	681b      	ldr	r3, [r3, #0]
 8003662:	60da      	str	r2, [r3, #12]
 8003664:	68fb      	ldr	r3, [r7, #12]
 8003666:	6b9b      	ldr	r3, [r3, #56]	@ 0x38
 8003668:	1c9a      	adds	r2, r3, #2
 800366a:	68fb      	ldr	r3, [r7, #12]
 800366c:	639a      	str	r2, [r3, #56]	@ 0x38
 800366e:	68fb      	ldr	r3, [r7, #12]
 8003670:	8fdb      	ldrh	r3, [r3, #62]	@ 0x3e
 8003672:	b29b      	uxth	r3, r3
 8003674:	3b02      	subs	r3, #2
 8003676:	b29a      	uxth	r2, r3
 8003678:	68fb      	ldr	r3, [r7, #12]
 800367a:	87da      	strh	r2, [r3, #62]	@ 0x3e
 800367c:	e05f      	b.n	800373e <HAL_SPI_Transmit+0x288>
 800367e:	68fb      	ldr	r3, [r7, #12]
 8003680:	6b9a      	ldr	r2, [r3, #56]	@ 0x38
 8003682:	68fb      	ldr	r3, [r7, #12]
 8003684:	681b      	ldr	r3, [r3, #0]
 8003686:	330c      	adds	r3, #12
 8003688:	7812      	ldrb	r2, [r2, #0]
 800368a:	701a      	strb	r2, [r3, #0]
 800368c:	68fb      	ldr	r3, [r7, #12]
 800368e:	6b9b      	ldr	r3, [r3, #56]	@ 0x38
 8003690:	1c5a      	adds	r2, r3, #1
 8003692:	68fb      	ldr	r3, [r7, #12]
 8003694:	639a      	str	r2, [r3, #56]	@ 0x38
 8003696:	68fb      	ldr	r3, [r7, #12]
 8003698:	8fdb      	ldrh	r3, [r3, #62]	@ 0x3e
 800369a:	b29b      	uxth	r3, r3
 800369c:	3b01      	subs	r3, #1
 800369e:	b29a      	uxth	r2, r3
 80036a0:	68fb      	ldr	r3, [r7, #12]
 80036a2:	87da      	strh	r2, [r3, #62]	@ 0x3e
 80036a4:	e04b      	b.n	800373e <HAL_SPI_Transmit+0x288>
 80036a6:	68fb      	ldr	r3, [r7, #12]
 80036a8:	681b      	ldr	r3, [r3, #0]
 80036aa:	689b      	ldr	r3, [r3, #8]
 80036ac:	f003 0302 	and.w	r3, r3, #2
 80036b0:	2b02      	cmp	r3, #2
 80036b2:	d12b      	bne.n	800370c <HAL_SPI_Transmit+0x256>
 80036b4:	68fb      	ldr	r3, [r7, #12]
 80036b6:	8fdb      	ldrh	r3, [r3, #62]	@ 0x3e
 80036b8:	b29b      	uxth	r3, r3
 80036ba:	2b01      	cmp	r3, #1
 80036bc:	d912      	bls.n	80036e4 <HAL_SPI_Transmit+0x22e>
 80036be:	68fb      	ldr	r3, [r7, #12]
 80036c0:	6b9b      	ldr	r3, [r3, #56]	@ 0x38
 80036c2:	881a      	ldrh	r2, [r3, #0]
 80036c4:	68fb      	ldr	r3, [r7, #12]
 80036c6:	681b      	ldr	r3, [r3, #0]
 80036c8:	60da      	str	r2, [r3, #12]
 80036ca:	68fb      	ldr	r3, [r7, #12]
 80036cc:	6b9b      	ldr	r3, [r3, #56]	@ 0x38
 80036ce:	1c9a      	adds	r2, r3, #2
 80036d0:	68fb      	ldr	r3, [r7, #12]
 80036d2:	639a      	str	r2, [r3, #56]	@ 0x38
 80036d4:	68fb      	ldr	r3, [r7, #12]
 80036d6:	8fdb      	ldrh	r3, [r3, #62]	@ 0x3e
 80036d8:	b29b      	uxth	r3, r3
 80036da:	3b02      	subs	r3, #2
 80036dc:	b29a      	uxth	r2, r3
 80036de:	68fb      	ldr	r3, [r7, #12]
 80036e0:	87da      	strh	r2, [r3, #62]	@ 0x3e
 80036e2:	e02c      	b.n	800373e <HAL_SPI_Transmit+0x288>
 80036e4:	68fb      	ldr	r3, [r7, #12]
 80036e6:	6b9a      	ldr	r2, [r3, #56]	@ 0x38
 80036e8:	68fb      	ldr	r3, [r7, #12]
 80036ea:	681b      	ldr	r3, [r3, #0]
 80036ec:	330c      	adds	r3, #12
 80036ee:	7812      	ldrb	r2, [r2, #0]
 80036f0:	701a      	strb	r2, [r3, #0]
 80036f2:	68fb      	ldr	r3, [r7, #12]
 80036f4:	6b9b      	ldr	r3, [r3, #56]	@ 0x38
 80036f6:	1c5a      	adds	r2, r3, #1
 80036f8:	68fb      	ldr	r3, [r7, #12]
 80036fa:	639a      	str	r2, [r3, #56]	@ 0x38
 80036fc:	68fb      	ldr	r3, [r7, #12]
 80036fe:	8fdb      	ldrh	r3, [r3, #62]	@ 0x3e
 8003700:	b29b      	uxth	r3, r3
 8003702:	3b01      	subs	r3, #1
 8003704:	b29a      	uxth	r2, r3
 8003706:	68fb      	ldr	r3, [r7, #12]
 8003708:	87da      	strh	r2, [r3, #62]	@ 0x3e
 800370a:	e018      	b.n	800373e <HAL_SPI_Transmit+0x288>
 800370c:	f7fd ff8a 	bl	8001624 <HAL_GetTick>
 8003710:	4602      	mov	r2, r0
 8003712:	69fb      	ldr	r3, [r7, #28]
 8003714:	1ad3      	subs	r3, r2, r3
 8003716:	683a      	ldr	r2, [r7, #0]
 8003718:	429a      	cmp	r2, r3
 800371a:	d803      	bhi.n	8003724 <HAL_SPI_Transmit+0x26e>
 800371c:	683b      	ldr	r3, [r7, #0]
 800371e:	f1b3 3fff 	cmp.w	r3, #4294967295
 8003722:	d102      	bne.n	800372a <HAL_SPI_Transmit+0x274>
 8003724:	683b      	ldr	r3, [r7, #0]
 8003726:	2b00      	cmp	r3, #0
 8003728:	d109      	bne.n	800373e <HAL_SPI_Transmit+0x288>
 800372a:	68fb      	ldr	r3, [r7, #12]
 800372c:	2201      	movs	r2, #1
 800372e:	f883 205d 	strb.w	r2, [r3, #93]	@ 0x5d
 8003732:	68fb      	ldr	r3, [r7, #12]
 8003734:	2200      	movs	r2, #0
 8003736:	f883 205c 	strb.w	r2, [r3, #92]	@ 0x5c
 800373a:	2303      	movs	r3, #3
 800373c:	e02d      	b.n	800379a <HAL_SPI_Transmit+0x2e4>
 800373e:	68fb      	ldr	r3, [r7, #12]
 8003740:	8fdb      	ldrh	r3, [r3, #62]	@ 0x3e
 8003742:	b29b      	uxth	r3, r3
 8003744:	2b00      	cmp	r3, #0
 8003746:	d1ae      	bne.n	80036a6 <HAL_SPI_Transmit+0x1f0>
 8003748:	69fa      	ldr	r2, [r7, #28]
 800374a:	6839      	ldr	r1, [r7, #0]
 800374c:	68f8      	ldr	r0, [r7, #12]
 800374e:	f000 fb65 	bl	8003e1c <SPI_EndRxTxTransaction>
 8003752:	4603      	mov	r3, r0
 8003754:	2b00      	cmp	r3, #0
 8003756:	d002      	beq.n	800375e <HAL_SPI_Transmit+0x2a8>
 8003758:	68fb      	ldr	r3, [r7, #12]
 800375a:	2220      	movs	r2, #32
 800375c:	661a      	str	r2, [r3, #96]	@ 0x60
 800375e:	68fb      	ldr	r3, [r7, #12]
 8003760:	689b      	ldr	r3, [r3, #8]
 8003762:	2b00      	cmp	r3, #0
 8003764:	d10a      	bne.n	800377c <HAL_SPI_Transmit+0x2c6>
 8003766:	2300      	movs	r3, #0
 8003768:	617b      	str	r3, [r7, #20]
 800376a:	68fb      	ldr	r3, [r7, #12]
 800376c:	681b      	ldr	r3, [r3, #0]
 800376e:	68db      	ldr	r3, [r3, #12]
 8003770:	617b      	str	r3, [r7, #20]
 8003772:	68fb      	ldr	r3, [r7, #12]
 8003774:	681b      	ldr	r3, [r3, #0]
 8003776:	689b      	ldr	r3, [r3, #8]
 8003778:	617b      	str	r3, [r7, #20]
 800377a:	697b      	ldr	r3, [r7, #20]
 800377c:	68fb      	ldr	r3, [r7, #12]
 800377e:	2201      	movs	r2, #1
 8003780:	f883 205d 	strb.w	r2, [r3, #93]	@ 0x5d
 8003784:	68fb      	ldr	r3, [r7, #12]
 8003786:	2200      	movs	r2, #0
 8003788:	f883 205c 	strb.w	r2, [r3, #92]	@ 0x5c
 800378c:	68fb      	ldr	r3, [r7, #12]
 800378e:	6e1b      	ldr	r3, [r3, #96]	@ 0x60
 8003790:	2b00      	cmp	r3, #0
 8003792:	d001      	beq.n	8003798 <HAL_SPI_Transmit+0x2e2>
 8003794:	2301      	movs	r3, #1
 8003796:	e000      	b.n	800379a <HAL_SPI_Transmit+0x2e4>
 8003798:	2300      	movs	r3, #0
 800379a:	4618      	mov	r0, r3
 800379c:	3720      	adds	r7, #32
 800379e:	46bd      	mov	sp, r7
 80037a0:	bd80      	pop	{r7, pc}

080037a2 <HAL_SPI_TransmitReceive>:
 80037a2:	b580      	push	{r7, lr}
 80037a4:	b08a      	sub	sp, #40	@ 0x28
 80037a6:	af00      	add	r7, sp, #0
 80037a8:	60f8      	str	r0, [r7, #12]
 80037aa:	60b9      	str	r1, [r7, #8]
 80037ac:	607a      	str	r2, [r7, #4]
 80037ae:	807b      	strh	r3, [r7, #2]
 80037b0:	2301      	movs	r3, #1
 80037b2:	627b      	str	r3, [r7, #36]	@ 0x24
 80037b4:	f7fd ff36 	bl	8001624 <HAL_GetTick>
 80037b8:	6238      	str	r0, [r7, #32]
 80037ba:	68fb      	ldr	r3, [r7, #12]
 80037bc:	f893 305d 	ldrb.w	r3, [r3, #93]	@ 0x5d
 80037c0:	77fb      	strb	r3, [r7, #31]
 80037c2:	68fb      	ldr	r3, [r7, #12]
 80037c4:	685b      	ldr	r3, [r3, #4]
 80037c6:	61bb      	str	r3, [r7, #24]
 80037c8:	887b      	ldrh	r3, [r7, #2]
 80037ca:	82fb      	strh	r3, [r7, #22]
 80037cc:	887b      	ldrh	r3, [r7, #2]
 80037ce:	82bb      	strh	r3, [r7, #20]
 80037d0:	7ffb      	ldrb	r3, [r7, #31]
 80037d2:	2b01      	cmp	r3, #1
 80037d4:	d00c      	beq.n	80037f0 <HAL_SPI_TransmitReceive+0x4e>
 80037d6:	69bb      	ldr	r3, [r7, #24]
 80037d8:	f5b3 7f82 	cmp.w	r3, #260	@ 0x104
 80037dc:	d106      	bne.n	80037ec <HAL_SPI_TransmitReceive+0x4a>
 80037de:	68fb      	ldr	r3, [r7, #12]
 80037e0:	689b      	ldr	r3, [r3, #8]
 80037e2:	2b00      	cmp	r3, #0
 80037e4:	d102      	bne.n	80037ec <HAL_SPI_TransmitReceive+0x4a>
 80037e6:	7ffb      	ldrb	r3, [r7, #31]
 80037e8:	2b04      	cmp	r3, #4
 80037ea:	d001      	beq.n	80037f0 <HAL_SPI_TransmitReceive+0x4e>
 80037ec:	2302      	movs	r3, #2
 80037ee:	e1f3      	b.n	8003bd8 <HAL_SPI_TransmitReceive+0x436>
 80037f0:	68bb      	ldr	r3, [r7, #8]
 80037f2:	2b00      	cmp	r3, #0
 80037f4:	d005      	beq.n	8003802 <HAL_SPI_TransmitReceive+0x60>
 80037f6:	687b      	ldr	r3, [r7, #4]
 80037f8:	2b00      	cmp	r3, #0
 80037fa:	d002      	beq.n	8003802 <HAL_SPI_TransmitReceive+0x60>
 80037fc:	887b      	ldrh	r3, [r7, #2]
 80037fe:	2b00      	cmp	r3, #0
 8003800:	d101      	bne.n	8003806 <HAL_SPI_TransmitReceive+0x64>
 8003802:	2301      	movs	r3, #1
 8003804:	e1e8      	b.n	8003bd8 <HAL_SPI_TransmitReceive+0x436>
 8003806:	68fb      	ldr	r3, [r7, #12]
 8003808:	f893 305c 	ldrb.w	r3, [r3, #92]	@ 0x5c
 800380c:	2b01      	cmp	r3, #1
 800380e:	d101      	bne.n	8003814 <HAL_SPI_TransmitReceive+0x72>
 8003810:	2302      	movs	r3, #2
 8003812:	e1e1      	b.n	8003bd8 <HAL_SPI_TransmitReceive+0x436>
 8003814:	68fb      	ldr	r3, [r7, #12]
 8003816:	2201      	movs	r2, #1
 8003818:	f883 205c 	strb.w	r2, [r3, #92]	@ 0x5c
 800381c:	68fb      	ldr	r3, [r7, #12]
 800381e:	f893 305d 	ldrb.w	r3, [r3, #93]	@ 0x5d
 8003822:	b2db      	uxtb	r3, r3
 8003824:	2b04      	cmp	r3, #4
 8003826:	d003      	beq.n	8003830 <HAL_SPI_TransmitReceive+0x8e>
 8003828:	68fb      	ldr	r3, [r7, #12]
 800382a:	2205      	movs	r2, #5
 800382c:	f883 205d 	strb.w	r2, [r3, #93]	@ 0x5d
 8003830:	68fb      	ldr	r3, [r7, #12]
 8003832:	2200      	movs	r2, #0
 8003834:	661a      	str	r2, [r3, #96]	@ 0x60
 8003836:	68fb      	ldr	r3, [r7, #12]
 8003838:	687a      	ldr	r2, [r7, #4]
 800383a:	641a      	str	r2, [r3, #64]	@ 0x40
 800383c:	68fb      	ldr	r3, [r7, #12]
 800383e:	887a      	ldrh	r2, [r7, #2]
 8003840:	f8a3 2046 	strh.w	r2, [r3, #70]	@ 0x46
 8003844:	68fb      	ldr	r3, [r7, #12]
 8003846:	887a      	ldrh	r2, [r7, #2]
 8003848:	f8a3 2044 	strh.w	r2, [r3, #68]	@ 0x44
 800384c:	68fb      	ldr	r3, [r7, #12]
 800384e:	68ba      	ldr	r2, [r7, #8]
 8003850:	639a      	str	r2, [r3, #56]	@ 0x38
 8003852:	68fb      	ldr	r3, [r7, #12]
 8003854:	887a      	ldrh	r2, [r7, #2]
 8003856:	87da      	strh	r2, [r3, #62]	@ 0x3e
 8003858:	68fb      	ldr	r3, [r7, #12]
 800385a:	887a      	ldrh	r2, [r7, #2]
 800385c:	879a      	strh	r2, [r3, #60]	@ 0x3c
 800385e:	68fb      	ldr	r3, [r7, #12]
 8003860:	2200      	movs	r2, #0
 8003862:	64da      	str	r2, [r3, #76]	@ 0x4c
 8003864:	68fb      	ldr	r3, [r7, #12]
 8003866:	2200      	movs	r2, #0
 8003868:	651a      	str	r2, [r3, #80]	@ 0x50
 800386a:	68fb      	ldr	r3, [r7, #12]
 800386c:	68db      	ldr	r3, [r3, #12]
 800386e:	f5b3 6fe0 	cmp.w	r3, #1792	@ 0x700
 8003872:	d802      	bhi.n	800387a <HAL_SPI_TransmitReceive+0xd8>
 8003874:	8abb      	ldrh	r3, [r7, #20]
 8003876:	2b01      	cmp	r3, #1
 8003878:	d908      	bls.n	800388c <HAL_SPI_TransmitReceive+0xea>
 800387a:	68fb      	ldr	r3, [r7, #12]
 800387c:	681b      	ldr	r3, [r3, #0]
 800387e:	685a      	ldr	r2, [r3, #4]
 8003880:	68fb      	ldr	r3, [r7, #12]
 8003882:	681b      	ldr	r3, [r3, #0]
 8003884:	f422 5280 	bic.w	r2, r2, #4096	@ 0x1000
 8003888:	605a      	str	r2, [r3, #4]
 800388a:	e007      	b.n	800389c <HAL_SPI_TransmitReceive+0xfa>
 800388c:	68fb      	ldr	r3, [r7, #12]
 800388e:	681b      	ldr	r3, [r3, #0]
 8003890:	685a      	ldr	r2, [r3, #4]
 8003892:	68fb      	ldr	r3, [r7, #12]
 8003894:	681b      	ldr	r3, [r3, #0]
 8003896:	f442 5280 	orr.w	r2, r2, #4096	@ 0x1000
 800389a:	605a      	str	r2, [r3, #4]
 800389c:	68fb      	ldr	r3, [r7, #12]
 800389e:	681b      	ldr	r3, [r3, #0]
 80038a0:	681b      	ldr	r3, [r3, #0]
 80038a2:	f003 0340 	and.w	r3, r3, #64	@ 0x40
 80038a6:	2b40      	cmp	r3, #64	@ 0x40
 80038a8:	d007      	beq.n	80038ba <HAL_SPI_TransmitReceive+0x118>
 80038aa:	68fb      	ldr	r3, [r7, #12]
 80038ac:	681b      	ldr	r3, [r3, #0]
 80038ae:	681a      	ldr	r2, [r3, #0]
 80038b0:	68fb      	ldr	r3, [r7, #12]
 80038b2:	681b      	ldr	r3, [r3, #0]
 80038b4:	f042 0240 	orr.w	r2, r2, #64	@ 0x40
 80038b8:	601a      	str	r2, [r3, #0]
 80038ba:	68fb      	ldr	r3, [r7, #12]
 80038bc:	68db      	ldr	r3, [r3, #12]
 80038be:	f5b3 6fe0 	cmp.w	r3, #1792	@ 0x700
 80038c2:	f240 8083 	bls.w	80039cc <HAL_SPI_TransmitReceive+0x22a>
 80038c6:	68fb      	ldr	r3, [r7, #12]
 80038c8:	685b      	ldr	r3, [r3, #4]
 80038ca:	2b00      	cmp	r3, #0
 80038cc:	d002      	beq.n	80038d4 <HAL_SPI_TransmitReceive+0x132>
 80038ce:	8afb      	ldrh	r3, [r7, #22]
 80038d0:	2b01      	cmp	r3, #1
 80038d2:	d16f      	bne.n	80039b4 <HAL_SPI_TransmitReceive+0x212>
 80038d4:	68fb      	ldr	r3, [r7, #12]
 80038d6:	6b9b      	ldr	r3, [r3, #56]	@ 0x38
 80038d8:	881a      	ldrh	r2, [r3, #0]
 80038da:	68fb      	ldr	r3, [r7, #12]
 80038dc:	681b      	ldr	r3, [r3, #0]
 80038de:	60da      	str	r2, [r3, #12]
 80038e0:	68fb      	ldr	r3, [r7, #12]
 80038e2:	6b9b      	ldr	r3, [r3, #56]	@ 0x38
 80038e4:	1c9a      	adds	r2, r3, #2
 80038e6:	68fb      	ldr	r3, [r7, #12]
 80038e8:	639a      	str	r2, [r3, #56]	@ 0x38
 80038ea:	68fb      	ldr	r3, [r7, #12]
 80038ec:	8fdb      	ldrh	r3, [r3, #62]	@ 0x3e
 80038ee:	b29b      	uxth	r3, r3
 80038f0:	3b01      	subs	r3, #1
 80038f2:	b29a      	uxth	r2, r3
 80038f4:	68fb      	ldr	r3, [r7, #12]
 80038f6:	87da      	strh	r2, [r3, #62]	@ 0x3e
 80038f8:	e05c      	b.n	80039b4 <HAL_SPI_TransmitReceive+0x212>
 80038fa:	68fb      	ldr	r3, [r7, #12]
 80038fc:	681b      	ldr	r3, [r3, #0]
 80038fe:	689b      	ldr	r3, [r3, #8]
 8003900:	f003 0302 	and.w	r3, r3, #2
 8003904:	2b02      	cmp	r3, #2
 8003906:	d11b      	bne.n	8003940 <HAL_SPI_TransmitReceive+0x19e>
 8003908:	68fb      	ldr	r3, [r7, #12]
 800390a:	8fdb      	ldrh	r3, [r3, #62]	@ 0x3e
 800390c:	b29b      	uxth	r3, r3
 800390e:	2b00      	cmp	r3, #0
 8003910:	d016      	beq.n	8003940 <HAL_SPI_TransmitReceive+0x19e>
 8003912:	6a7b      	ldr	r3, [r7, #36]	@ 0x24
 8003914:	2b01      	cmp	r3, #1
 8003916:	d113      	bne.n	8003940 <HAL_SPI_TransmitReceive+0x19e>
 8003918:	68fb      	ldr	r3, [r7, #12]
 800391a:	6b9b      	ldr	r3, [r3, #56]	@ 0x38
 800391c:	881a      	ldrh	r2, [r3, #0]
 800391e:	68fb      	ldr	r3, [r7, #12]
 8003920:	681b      	ldr	r3, [r3, #0]
 8003922:	60da      	str	r2, [r3, #12]
 8003924:	68fb      	ldr	r3, [r7, #12]
 8003926:	6b9b      	ldr	r3, [r3, #56]	@ 0x38
 8003928:	1c9a      	adds	r2, r3, #2
 800392a:	68fb      	ldr	r3, [r7, #12]
 800392c:	639a      	str	r2, [r3, #56]	@ 0x38
 800392e:	68fb      	ldr	r3, [r7, #12]
 8003930:	8fdb      	ldrh	r3, [r3, #62]	@ 0x3e
 8003932:	b29b      	uxth	r3, r3
 8003934:	3b01      	subs	r3, #1
 8003936:	b29a      	uxth	r2, r3
 8003938:	68fb      	ldr	r3, [r7, #12]
 800393a:	87da      	strh	r2, [r3, #62]	@ 0x3e
 800393c:	2300      	movs	r3, #0
 800393e:	627b      	str	r3, [r7, #36]	@ 0x24
 8003940:	68fb      	ldr	r3, [r7, #12]
 8003942:	681b      	ldr	r3, [r3, #0]
 8003944:	689b      	ldr	r3, [r3, #8]
 8003946:	f003 0301 	and.w	r3, r3, #1
 800394a:	2b01      	cmp	r3, #1
 800394c:	d11c      	bne.n	8003988 <HAL_SPI_TransmitReceive+0x1e6>
 800394e:	68fb      	ldr	r3, [r7, #12]
 8003950:	f8b3 3046 	ldrh.w	r3, [r3, #70]	@ 0x46
 8003954:	b29b      	uxth	r3, r3
 8003956:	2b00      	cmp	r3, #0
 8003958:	d016      	beq.n	8003988 <HAL_SPI_TransmitReceive+0x1e6>
 800395a:	68fb      	ldr	r3, [r7, #12]
 800395c:	681b      	ldr	r3, [r3, #0]
 800395e:	68da      	ldr	r2, [r3, #12]
 8003960:	68fb      	ldr	r3, [r7, #12]
 8003962:	6c1b      	ldr	r3, [r3, #64]	@ 0x40
 8003964:	b292      	uxth	r2, r2
 8003966:	801a      	strh	r2, [r3, #0]
 8003968:	68fb      	ldr	r3, [r7, #12]
 800396a:	6c1b      	ldr	r3, [r3, #64]	@ 0x40
 800396c:	1c9a      	adds	r2, r3, #2
 800396e:	68fb      	ldr	r3, [r7, #12]
 8003970:	641a      	str	r2, [r3, #64]	@ 0x40
 8003972:	68fb      	ldr	r3, [r7, #12]
 8003974:	f8b3 3046 	ldrh.w	r3, [r3, #70]	@ 0x46
 8003978:	b29b      	uxth	r3, r3
 800397a:	3b01      	subs	r3, #1
 800397c:	b29a      	uxth	r2, r3
 800397e:	68fb      	ldr	r3, [r7, #12]
 8003980:	f8a3 2046 	strh.w	r2, [r3, #70]	@ 0x46
 8003984:	2301      	movs	r3, #1
 8003986:	627b      	str	r3, [r7, #36]	@ 0x24
 8003988:	f7fd fe4c 	bl	8001624 <HAL_GetTick>
 800398c:	4602      	mov	r2, r0
 800398e:	6a3b      	ldr	r3, [r7, #32]
 8003990:	1ad3      	subs	r3, r2, r3
 8003992:	6b3a      	ldr	r2, [r7, #48]	@ 0x30
 8003994:	429a      	cmp	r2, r3
 8003996:	d80d      	bhi.n	80039b4 <HAL_SPI_TransmitReceive+0x212>
 8003998:	6b3b      	ldr	r3, [r7, #48]	@ 0x30
 800399a:	f1b3 3fff 	cmp.w	r3, #4294967295
 800399e:	d009      	beq.n	80039b4 <HAL_SPI_TransmitReceive+0x212>
 80039a0:	68fb      	ldr	r3, [r7, #12]
 80039a2:	2201      	movs	r2, #1
 80039a4:	f883 205d 	strb.w	r2, [r3, #93]	@ 0x5d
 80039a8:	68fb      	ldr	r3, [r7, #12]
 80039aa:	2200      	movs	r2, #0
 80039ac:	f883 205c 	strb.w	r2, [r3, #92]	@ 0x5c
 80039b0:	2303      	movs	r3, #3
 80039b2:	e111      	b.n	8003bd8 <HAL_SPI_TransmitReceive+0x436>
 80039b4:	68fb      	ldr	r3, [r7, #12]
 80039b6:	8fdb      	ldrh	r3, [r3, #62]	@ 0x3e
 80039b8:	b29b      	uxth	r3, r3
 80039ba:	2b00      	cmp	r3, #0
 80039bc:	d19d      	bne.n	80038fa <HAL_SPI_TransmitReceive+0x158>
 80039be:	68fb      	ldr	r3, [r7, #12]
 80039c0:	f8b3 3046 	ldrh.w	r3, [r3, #70]	@ 0x46
 80039c4:	b29b      	uxth	r3, r3
 80039c6:	2b00      	cmp	r3, #0
 80039c8:	d197      	bne.n	80038fa <HAL_SPI_TransmitReceive+0x158>
 80039ca:	e0e5      	b.n	8003b98 <HAL_SPI_TransmitReceive+0x3f6>
 80039cc:	68fb      	ldr	r3, [r7, #12]
 80039ce:	685b      	ldr	r3, [r3, #4]
 80039d0:	2b00      	cmp	r3, #0
 80039d2:	d003      	beq.n	80039dc <HAL_SPI_TransmitReceive+0x23a>
 80039d4:	8afb      	ldrh	r3, [r7, #22]
 80039d6:	2b01      	cmp	r3, #1
 80039d8:	f040 80d1 	bne.w	8003b7e <HAL_SPI_TransmitReceive+0x3dc>
 80039dc:	68fb      	ldr	r3, [r7, #12]
 80039de:	8fdb      	ldrh	r3, [r3, #62]	@ 0x3e
 80039e0:	b29b      	uxth	r3, r3
 80039e2:	2b01      	cmp	r3, #1
 80039e4:	d912      	bls.n	8003a0c <HAL_SPI_TransmitReceive+0x26a>
 80039e6:	68fb      	ldr	r3, [r7, #12]
 80039e8:	6b9b      	ldr	r3, [r3, #56]	@ 0x38
 80039ea:	881a      	ldrh	r2, [r3, #0]
 80039ec:	68fb      	ldr	r3, [r7, #12]
 80039ee:	681b      	ldr	r3, [r3, #0]
 80039f0:	60da      	str	r2, [r3, #12]
 80039f2:	68fb      	ldr	r3, [r7, #12]
 80039f4:	6b9b      	ldr	r3, [r3, #56]	@ 0x38
 80039f6:	1c9a      	adds	r2, r3, #2
 80039f8:	68fb      	ldr	r3, [r7, #12]
 80039fa:	639a      	str	r2, [r3, #56]	@ 0x38
 80039fc:	68fb      	ldr	r3, [r7, #12]
 80039fe:	8fdb      	ldrh	r3, [r3, #62]	@ 0x3e
 8003a00:	b29b      	uxth	r3, r3
 8003a02:	3b02      	subs	r3, #2
 8003a04:	b29a      	uxth	r2, r3
 8003a06:	68fb      	ldr	r3, [r7, #12]
 8003a08:	87da      	strh	r2, [r3, #62]	@ 0x3e
 8003a0a:	e0b8      	b.n	8003b7e <HAL_SPI_TransmitReceive+0x3dc>
 8003a0c:	68fb      	ldr	r3, [r7, #12]
 8003a0e:	6b9a      	ldr	r2, [r3, #56]	@ 0x38
 8003a10:	68fb      	ldr	r3, [r7, #12]
 8003a12:	681b      	ldr	r3, [r3, #0]
 8003a14:	330c      	adds	r3, #12
 8003a16:	7812      	ldrb	r2, [r2, #0]
 8003a18:	701a      	strb	r2, [r3, #0]
 8003a1a:	68fb      	ldr	r3, [r7, #12]
 8003a1c:	6b9b      	ldr	r3, [r3, #56]	@ 0x38
 8003a1e:	1c5a      	adds	r2, r3, #1
 8003a20:	68fb      	ldr	r3, [r7, #12]
 8003a22:	639a      	str	r2, [r3, #56]	@ 0x38
 8003a24:	68fb      	ldr	r3, [r7, #12]
 8003a26:	8fdb      	ldrh	r3, [r3, #62]	@ 0x3e
 8003a28:	b29b      	uxth	r3, r3
 8003a2a:	3b01      	subs	r3, #1
 8003a2c:	b29a      	uxth	r2, r3
 8003a2e:	68fb      	ldr	r3, [r7, #12]
 8003a30:	87da      	strh	r2, [r3, #62]	@ 0x3e
 8003a32:	e0a4      	b.n	8003b7e <HAL_SPI_TransmitReceive+0x3dc>
 8003a34:	68fb      	ldr	r3, [r7, #12]
 8003a36:	681b      	ldr	r3, [r3, #0]
 8003a38:	689b      	ldr	r3, [r3, #8]
 8003a3a:	f003 0302 	and.w	r3, r3, #2
 8003a3e:	2b02      	cmp	r3, #2
 8003a40:	d134      	bne.n	8003aac <HAL_SPI_TransmitReceive+0x30a>
 8003a42:	68fb      	ldr	r3, [r7, #12]
 8003a44:	8fdb      	ldrh	r3, [r3, #62]	@ 0x3e
 8003a46:	b29b      	uxth	r3, r3
 8003a48:	2b00      	cmp	r3, #0
 8003a4a:	d02f      	beq.n	8003aac <HAL_SPI_TransmitReceive+0x30a>
 8003a4c:	6a7b      	ldr	r3, [r7, #36]	@ 0x24
 8003a4e:	2b01      	cmp	r3, #1
 8003a50:	d12c      	bne.n	8003aac <HAL_SPI_TransmitReceive+0x30a>
 8003a52:	68fb      	ldr	r3, [r7, #12]
 8003a54:	8fdb      	ldrh	r3, [r3, #62]	@ 0x3e
 8003a56:	b29b      	uxth	r3, r3
 8003a58:	2b01      	cmp	r3, #1
 8003a5a:	d912      	bls.n	8003a82 <HAL_SPI_TransmitReceive+0x2e0>
 8003a5c:	68fb      	ldr	r3, [r7, #12]
 8003a5e:	6b9b      	ldr	r3, [r3, #56]	@ 0x38
 8003a60:	881a      	ldrh	r2, [r3, #0]
 8003a62:	68fb      	ldr	r3, [r7, #12]
 8003a64:	681b      	ldr	r3, [r3, #0]
 8003a66:	60da      	str	r2, [r3, #12]
 8003a68:	68fb      	ldr	r3, [r7, #12]
 8003a6a:	6b9b      	ldr	r3, [r3, #56]	@ 0x38
 8003a6c:	1c9a      	adds	r2, r3, #2
 8003a6e:	68fb      	ldr	r3, [r7, #12]
 8003a70:	639a      	str	r2, [r3, #56]	@ 0x38
 8003a72:	68fb      	ldr	r3, [r7, #12]
 8003a74:	8fdb      	ldrh	r3, [r3, #62]	@ 0x3e
 8003a76:	b29b      	uxth	r3, r3
 8003a78:	3b02      	subs	r3, #2
 8003a7a:	b29a      	uxth	r2, r3
 8003a7c:	68fb      	ldr	r3, [r7, #12]
 8003a7e:	87da      	strh	r2, [r3, #62]	@ 0x3e
 8003a80:	e012      	b.n	8003aa8 <HAL_SPI_TransmitReceive+0x306>
 8003a82:	68fb      	ldr	r3, [r7, #12]
 8003a84:	6b9a      	ldr	r2, [r3, #56]	@ 0x38
 8003a86:	68fb      	ldr	r3, [r7, #12]
 8003a88:	681b      	ldr	r3, [r3, #0]
 8003a8a:	330c      	adds	r3, #12
 8003a8c:	7812      	ldrb	r2, [r2, #0]
 8003a8e:	701a      	strb	r2, [r3, #0]
 8003a90:	68fb      	ldr	r3, [r7, #12]
 8003a92:	6b9b      	ldr	r3, [r3, #56]	@ 0x38
 8003a94:	1c5a      	adds	r2, r3, #1
 8003a96:	68fb      	ldr	r3, [r7, #12]
 8003a98:	639a      	str	r2, [r3, #56]	@ 0x38
 8003a9a:	68fb      	ldr	r3, [r7, #12]
 8003a9c:	8fdb      	ldrh	r3, [r3, #62]	@ 0x3e
 8003a9e:	b29b      	uxth	r3, r3
 8003aa0:	3b01      	subs	r3, #1
 8003aa2:	b29a      	uxth	r2, r3
 8003aa4:	68fb      	ldr	r3, [r7, #12]
 8003aa6:	87da      	strh	r2, [r3, #62]	@ 0x3e
 8003aa8:	2300      	movs	r3, #0
 8003aaa:	627b      	str	r3, [r7, #36]	@ 0x24
 8003aac:	68fb      	ldr	r3, [r7, #12]
 8003aae:	681b      	ldr	r3, [r3, #0]
 8003ab0:	689b      	ldr	r3, [r3, #8]
 8003ab2:	f003 0301 	and.w	r3, r3, #1
 8003ab6:	2b01      	cmp	r3, #1
 8003ab8:	d148      	bne.n	8003b4c <HAL_SPI_TransmitReceive+0x3aa>
 8003aba:	68fb      	ldr	r3, [r7, #12]
 8003abc:	f8b3 3046 	ldrh.w	r3, [r3, #70]	@ 0x46
 8003ac0:	b29b      	uxth	r3, r3
 8003ac2:	2b00      	cmp	r3, #0
 8003ac4:	d042      	beq.n	8003b4c <HAL_SPI_TransmitReceive+0x3aa>
 8003ac6:	68fb      	ldr	r3, [r7, #12]
 8003ac8:	f8b3 3046 	ldrh.w	r3, [r3, #70]	@ 0x46
 8003acc:	b29b      	uxth	r3, r3
 8003ace:	2b01      	cmp	r3, #1
 8003ad0:	d923      	bls.n	8003b1a <HAL_SPI_TransmitReceive+0x378>
 8003ad2:	68fb      	ldr	r3, [r7, #12]
 8003ad4:	681b      	ldr	r3, [r3, #0]
 8003ad6:	68da      	ldr	r2, [r3, #12]
 8003ad8:	68fb      	ldr	r3, [r7, #12]
 8003ada:	6c1b      	ldr	r3, [r3, #64]	@ 0x40
 8003adc:	b292      	uxth	r2, r2
 8003ade:	801a      	strh	r2, [r3, #0]
 8003ae0:	68fb      	ldr	r3, [r7, #12]
 8003ae2:	6c1b      	ldr	r3, [r3, #64]	@ 0x40
 8003ae4:	1c9a      	adds	r2, r3, #2
 8003ae6:	68fb      	ldr	r3, [r7, #12]
 8003ae8:	641a      	str	r2, [r3, #64]	@ 0x40
 8003aea:	68fb      	ldr	r3, [r7, #12]
 8003aec:	f8b3 3046 	ldrh.w	r3, [r3, #70]	@ 0x46
 8003af0:	b29b      	uxth	r3, r3
 8003af2:	3b02      	subs	r3, #2
 8003af4:	b29a      	uxth	r2, r3
 8003af6:	68fb      	ldr	r3, [r7, #12]
 8003af8:	f8a3 2046 	strh.w	r2, [r3, #70]	@ 0x46
 8003afc:	68fb      	ldr	r3, [r7, #12]
 8003afe:	f8b3 3046 	ldrh.w	r3, [r3, #70]	@ 0x46
 8003b02:	b29b      	uxth	r3, r3
 8003b04:	2b01      	cmp	r3, #1
 8003b06:	d81f      	bhi.n	8003b48 <HAL_SPI_TransmitReceive+0x3a6>
 8003b08:	68fb      	ldr	r3, [r7, #12]
 8003b0a:	681b      	ldr	r3, [r3, #0]
 8003b0c:	685a      	ldr	r2, [r3, #4]
 8003b0e:	68fb      	ldr	r3, [r7, #12]
 8003b10:	681b      	ldr	r3, [r3, #0]
 8003b12:	f442 5280 	orr.w	r2, r2, #4096	@ 0x1000
 8003b16:	605a      	str	r2, [r3, #4]
 8003b18:	e016      	b.n	8003b48 <HAL_SPI_TransmitReceive+0x3a6>
 8003b1a:	68fb      	ldr	r3, [r7, #12]
 8003b1c:	681b      	ldr	r3, [r3, #0]
 8003b1e:	f103 020c 	add.w	r2, r3, #12
 8003b22:	68fb      	ldr	r3, [r7, #12]
 8003b24:	6c1b      	ldr	r3, [r3, #64]	@ 0x40
 8003b26:	7812      	ldrb	r2, [r2, #0]
 8003b28:	b2d2      	uxtb	r2, r2
 8003b2a:	701a      	strb	r2, [r3, #0]
 8003b2c:	68fb      	ldr	r3, [r7, #12]
 8003b2e:	6c1b      	ldr	r3, [r3, #64]	@ 0x40
 8003b30:	1c5a      	adds	r2, r3, #1
 8003b32:	68fb      	ldr	r3, [r7, #12]
 8003b34:	641a      	str	r2, [r3, #64]	@ 0x40
 8003b36:	68fb      	ldr	r3, [r7, #12]
 8003b38:	f8b3 3046 	ldrh.w	r3, [r3, #70]	@ 0x46
 8003b3c:	b29b      	uxth	r3, r3
 8003b3e:	3b01      	subs	r3, #1
 8003b40:	b29a      	uxth	r2, r3
 8003b42:	68fb      	ldr	r3, [r7, #12]
 8003b44:	f8a3 2046 	strh.w	r2, [r3, #70]	@ 0x46
 8003b48:	2301      	movs	r3, #1
 8003b4a:	627b      	str	r3, [r7, #36]	@ 0x24
 8003b4c:	f7fd fd6a 	bl	8001624 <HAL_GetTick>
 8003b50:	4602      	mov	r2, r0
 8003b52:	6a3b      	ldr	r3, [r7, #32]
 8003b54:	1ad3      	subs	r3, r2, r3
 8003b56:	6b3a      	ldr	r2, [r7, #48]	@ 0x30
 8003b58:	429a      	cmp	r2, r3
 8003b5a:	d803      	bhi.n	8003b64 <HAL_SPI_TransmitReceive+0x3c2>
 8003b5c:	6b3b      	ldr	r3, [r7, #48]	@ 0x30
 8003b5e:	f1b3 3fff 	cmp.w	r3, #4294967295
 8003b62:	d102      	bne.n	8003b6a <HAL_SPI_TransmitReceive+0x3c8>
 8003b64:	6b3b      	ldr	r3, [r7, #48]	@ 0x30
 8003b66:	2b00      	cmp	r3, #0
 8003b68:	d109      	bne.n	8003b7e <HAL_SPI_TransmitReceive+0x3dc>
 8003b6a:	68fb      	ldr	r3, [r7, #12]
 8003b6c:	2201      	movs	r2, #1
 8003b6e:	f883 205d 	strb.w	r2, [r3, #93]	@ 0x5d
 8003b72:	68fb      	ldr	r3, [r7, #12]
 8003b74:	2200      	movs	r2, #0
 8003b76:	f883 205c 	strb.w	r2, [r3, #92]	@ 0x5c
 8003b7a:	2303      	movs	r3, #3
 8003b7c:	e02c      	b.n	8003bd8 <HAL_SPI_TransmitReceive+0x436>
 8003b7e:	68fb      	ldr	r3, [r7, #12]
 8003b80:	8fdb      	ldrh	r3, [r3, #62]	@ 0x3e
 8003b82:	b29b      	uxth	r3, r3
 8003b84:	2b00      	cmp	r3, #0
 8003b86:	f47f af55 	bne.w	8003a34 <HAL_SPI_TransmitReceive+0x292>
 8003b8a:	68fb      	ldr	r3, [r7, #12]
 8003b8c:	f8b3 3046 	ldrh.w	r3, [r3, #70]	@ 0x46
 8003b90:	b29b      	uxth	r3, r3
 8003b92:	2b00      	cmp	r3, #0
 8003b94:	f47f af4e 	bne.w	8003a34 <HAL_SPI_TransmitReceive+0x292>
 8003b98:	6a3a      	ldr	r2, [r7, #32]
 8003b9a:	6b39      	ldr	r1, [r7, #48]	@ 0x30
 8003b9c:	68f8      	ldr	r0, [r7, #12]
 8003b9e:	f000 f93d 	bl	8003e1c <SPI_EndRxTxTransaction>
 8003ba2:	4603      	mov	r3, r0
 8003ba4:	2b00      	cmp	r3, #0
 8003ba6:	d008      	beq.n	8003bba <HAL_SPI_TransmitReceive+0x418>
 8003ba8:	68fb      	ldr	r3, [r7, #12]
 8003baa:	2220      	movs	r2, #32
 8003bac:	661a      	str	r2, [r3, #96]	@ 0x60
 8003bae:	68fb      	ldr	r3, [r7, #12]
 8003bb0:	2200      	movs	r2, #0
 8003bb2:	f883 205c 	strb.w	r2, [r3, #92]	@ 0x5c
 8003bb6:	2301      	movs	r3, #1
 8003bb8:	e00e      	b.n	8003bd8 <HAL_SPI_TransmitReceive+0x436>
 8003bba:	68fb      	ldr	r3, [r7, #12]
 8003bbc:	2201      	movs	r2, #1
 8003bbe:	f883 205d 	strb.w	r2, [r3, #93]	@ 0x5d
 8003bc2:	68fb      	ldr	r3, [r7, #12]
 8003bc4:	2200      	movs	r2, #0
 8003bc6:	f883 205c 	strb.w	r2, [r3, #92]	@ 0x5c
 8003bca:	68fb      	ldr	r3, [r7, #12]
 8003bcc:	6e1b      	ldr	r3, [r3, #96]	@ 0x60
 8003bce:	2b00      	cmp	r3, #0
 8003bd0:	d001      	beq.n	8003bd6 <HAL_SPI_TransmitReceive+0x434>
 8003bd2:	2301      	movs	r3, #1
 8003bd4:	e000      	b.n	8003bd8 <HAL_SPI_TransmitReceive+0x436>
 8003bd6:	2300      	movs	r3, #0
 8003bd8:	4618      	mov	r0, r3
 8003bda:	3728      	adds	r7, #40	@ 0x28
 8003bdc:	46bd      	mov	sp, r7
 8003bde:	bd80      	pop	{r7, pc}

08003be0 <SPI_WaitFlagStateUntilTimeout>:
 8003be0:	b580      	push	{r7, lr}
 8003be2:	b088      	sub	sp, #32
 8003be4:	af00      	add	r7, sp, #0
 8003be6:	60f8      	str	r0, [r7, #12]
 8003be8:	60b9      	str	r1, [r7, #8]
 8003bea:	603b      	str	r3, [r7, #0]
 8003bec:	4613      	mov	r3, r2
 8003bee:	71fb      	strb	r3, [r7, #7]
 8003bf0:	f7fd fd18 	bl	8001624 <HAL_GetTick>
 8003bf4:	4602      	mov	r2, r0
 8003bf6:	6abb      	ldr	r3, [r7, #40]	@ 0x28
 8003bf8:	1a9b      	subs	r3, r3, r2
 8003bfa:	683a      	ldr	r2, [r7, #0]
 8003bfc:	4413      	add	r3, r2
 8003bfe:	61fb      	str	r3, [r7, #28]
 8003c00:	f7fd fd10 	bl	8001624 <HAL_GetTick>
 8003c04:	61b8      	str	r0, [r7, #24]
 8003c06:	4b39      	ldr	r3, [pc, #228]	@ (8003cec <SPI_WaitFlagStateUntilTimeout+0x10c>)
 8003c08:	681b      	ldr	r3, [r3, #0]
 8003c0a:	015b      	lsls	r3, r3, #5
 8003c0c:	0d1b      	lsrs	r3, r3, #20
 8003c0e:	69fa      	ldr	r2, [r7, #28]
 8003c10:	fb02 f303 	mul.w	r3, r2, r3
 8003c14:	617b      	str	r3, [r7, #20]
 8003c16:	e054      	b.n	8003cc2 <SPI_WaitFlagStateUntilTimeout+0xe2>
 8003c18:	683b      	ldr	r3, [r7, #0]
 8003c1a:	f1b3 3fff 	cmp.w	r3, #4294967295
 8003c1e:	d050      	beq.n	8003cc2 <SPI_WaitFlagStateUntilTimeout+0xe2>
 8003c20:	f7fd fd00 	bl	8001624 <HAL_GetTick>
 8003c24:	4602      	mov	r2, r0
 8003c26:	69bb      	ldr	r3, [r7, #24]
 8003c28:	1ad3      	subs	r3, r2, r3
 8003c2a:	69fa      	ldr	r2, [r7, #28]
 8003c2c:	429a      	cmp	r2, r3
 8003c2e:	d902      	bls.n	8003c36 <SPI_WaitFlagStateUntilTimeout+0x56>
 8003c30:	69fb      	ldr	r3, [r7, #28]
 8003c32:	2b00      	cmp	r3, #0
 8003c34:	d13d      	bne.n	8003cb2 <SPI_WaitFlagStateUntilTimeout+0xd2>
 8003c36:	68fb      	ldr	r3, [r7, #12]
 8003c38:	681b      	ldr	r3, [r3, #0]
 8003c3a:	685a      	ldr	r2, [r3, #4]
 8003c3c:	68fb      	ldr	r3, [r7, #12]
 8003c3e:	681b      	ldr	r3, [r3, #0]
 8003c40:	f022 02e0 	bic.w	r2, r2, #224	@ 0xe0
 8003c44:	605a      	str	r2, [r3, #4]
 8003c46:	68fb      	ldr	r3, [r7, #12]
 8003c48:	685b      	ldr	r3, [r3, #4]
 8003c4a:	f5b3 7f82 	cmp.w	r3, #260	@ 0x104
 8003c4e:	d111      	bne.n	8003c74 <SPI_WaitFlagStateUntilTimeout+0x94>
 8003c50:	68fb      	ldr	r3, [r7, #12]
 8003c52:	689b      	ldr	r3, [r3, #8]
 8003c54:	f5b3 4f00 	cmp.w	r3, #32768	@ 0x8000
 8003c58:	d004      	beq.n	8003c64 <SPI_WaitFlagStateUntilTimeout+0x84>
 8003c5a:	68fb      	ldr	r3, [r7, #12]
 8003c5c:	689b      	ldr	r3, [r3, #8]
 8003c5e:	f5b3 6f80 	cmp.w	r3, #1024	@ 0x400
 8003c62:	d107      	bne.n	8003c74 <SPI_WaitFlagStateUntilTimeout+0x94>
 8003c64:	68fb      	ldr	r3, [r7, #12]
 8003c66:	681b      	ldr	r3, [r3, #0]
 8003c68:	681a      	ldr	r2, [r3, #0]
 8003c6a:	68fb      	ldr	r3, [r7, #12]
 8003c6c:	681b      	ldr	r3, [r3, #0]
 8003c6e:	f022 0240 	bic.w	r2, r2, #64	@ 0x40
 8003c72:	601a      	str	r2, [r3, #0]
 8003c74:	68fb      	ldr	r3, [r7, #12]
 8003c76:	6a9b      	ldr	r3, [r3, #40]	@ 0x28
 8003c78:	f5b3 5f00 	cmp.w	r3, #8192	@ 0x2000
 8003c7c:	d10f      	bne.n	8003c9e <SPI_WaitFlagStateUntilTimeout+0xbe>
 8003c7e:	68fb      	ldr	r3, [r7, #12]
 8003c80:	681b      	ldr	r3, [r3, #0]
 8003c82:	681a      	ldr	r2, [r3, #0]
 8003c84:	68fb      	ldr	r3, [r7, #12]
 8003c86:	681b      	ldr	r3, [r3, #0]
 8003c88:	f422 5200 	bic.w	r2, r2, #8192	@ 0x2000
 8003c8c:	601a      	str	r2, [r3, #0]
 8003c8e:	68fb      	ldr	r3, [r7, #12]
 8003c90:	681b      	ldr	r3, [r3, #0]
 8003c92:	681a      	ldr	r2, [r3, #0]
 8003c94:	68fb      	ldr	r3, [r7, #12]
 8003c96:	681b      	ldr	r3, [r3, #0]
 8003c98:	f442 5200 	orr.w	r2, r2, #8192	@ 0x2000
 8003c9c:	601a      	str	r2, [r3, #0]
 8003c9e:	68fb      	ldr	r3, [r7, #12]
 8003ca0:	2201      	movs	r2, #1
 8003ca2:	f883 205d 	strb.w	r2, [r3, #93]	@ 0x5d
 8003ca6:	68fb      	ldr	r3, [r7, #12]
 8003ca8:	2200      	movs	r2, #0
 8003caa:	f883 205c 	strb.w	r2, [r3, #92]	@ 0x5c
 8003cae:	2303      	movs	r3, #3
 8003cb0:	e017      	b.n	8003ce2 <SPI_WaitFlagStateUntilTimeout+0x102>
 8003cb2:	697b      	ldr	r3, [r7, #20]
 8003cb4:	2b00      	cmp	r3, #0
 8003cb6:	d101      	bne.n	8003cbc <SPI_WaitFlagStateUntilTimeout+0xdc>
 8003cb8:	2300      	movs	r3, #0
 8003cba:	61fb      	str	r3, [r7, #28]
 8003cbc:	697b      	ldr	r3, [r7, #20]
 8003cbe:	3b01      	subs	r3, #1
 8003cc0:	617b      	str	r3, [r7, #20]
 8003cc2:	68fb      	ldr	r3, [r7, #12]
 8003cc4:	681b      	ldr	r3, [r3, #0]
 8003cc6:	689a      	ldr	r2, [r3, #8]
 8003cc8:	68bb      	ldr	r3, [r7, #8]
 8003cca:	4013      	ands	r3, r2
 8003ccc:	68ba      	ldr	r2, [r7, #8]
 8003cce:	429a      	cmp	r2, r3
 8003cd0:	bf0c      	ite	eq
 8003cd2:	2301      	moveq	r3, #1
 8003cd4:	2300      	movne	r3, #0
 8003cd6:	b2db      	uxtb	r3, r3
 8003cd8:	461a      	mov	r2, r3
 8003cda:	79fb      	ldrb	r3, [r7, #7]
 8003cdc:	429a      	cmp	r2, r3
 8003cde:	d19b      	bne.n	8003c18 <SPI_WaitFlagStateUntilTimeout+0x38>
 8003ce0:	2300      	movs	r3, #0
 8003ce2:	4618      	mov	r0, r3
 8003ce4:	3720      	adds	r7, #32
 8003ce6:	46bd      	mov	sp, r7
 8003ce8:	bd80      	pop	{r7, pc}
 8003cea:	bf00      	nop
 8003cec:	20000000 	.word	0x20000000

08003cf0 <SPI_WaitFifoStateUntilTimeout>:
 8003cf0:	b580      	push	{r7, lr}
 8003cf2:	b08a      	sub	sp, #40	@ 0x28
 8003cf4:	af00      	add	r7, sp, #0
 8003cf6:	60f8      	str	r0, [r7, #12]
 8003cf8:	60b9      	str	r1, [r7, #8]
 8003cfa:	607a      	str	r2, [r7, #4]
 8003cfc:	603b      	str	r3, [r7, #0]
 8003cfe:	2300      	movs	r3, #0
 8003d00:	75fb      	strb	r3, [r7, #23]
 8003d02:	f7fd fc8f 	bl	8001624 <HAL_GetTick>
 8003d06:	4602      	mov	r2, r0
 8003d08:	6b3b      	ldr	r3, [r7, #48]	@ 0x30
 8003d0a:	1a9b      	subs	r3, r3, r2
 8003d0c:	683a      	ldr	r2, [r7, #0]
 8003d0e:	4413      	add	r3, r2
 8003d10:	627b      	str	r3, [r7, #36]	@ 0x24
 8003d12:	f7fd fc87 	bl	8001624 <HAL_GetTick>
 8003d16:	6238      	str	r0, [r7, #32]
 8003d18:	68fb      	ldr	r3, [r7, #12]
 8003d1a:	681b      	ldr	r3, [r3, #0]
 8003d1c:	330c      	adds	r3, #12
 8003d1e:	61fb      	str	r3, [r7, #28]
 8003d20:	4b3d      	ldr	r3, [pc, #244]	@ (8003e18 <SPI_WaitFifoStateUntilTimeout+0x128>)
 8003d22:	681a      	ldr	r2, [r3, #0]
 8003d24:	4613      	mov	r3, r2
 8003d26:	009b      	lsls	r3, r3, #2
 8003d28:	4413      	add	r3, r2
 8003d2a:	00da      	lsls	r2, r3, #3
 8003d2c:	1ad3      	subs	r3, r2, r3
 8003d2e:	0d1b      	lsrs	r3, r3, #20
 8003d30:	6a7a      	ldr	r2, [r7, #36]	@ 0x24
 8003d32:	fb02 f303 	mul.w	r3, r2, r3
 8003d36:	61bb      	str	r3, [r7, #24]
 8003d38:	e060      	b.n	8003dfc <SPI_WaitFifoStateUntilTimeout+0x10c>
 8003d3a:	68bb      	ldr	r3, [r7, #8]
 8003d3c:	f5b3 6fc0 	cmp.w	r3, #1536	@ 0x600
 8003d40:	d107      	bne.n	8003d52 <SPI_WaitFifoStateUntilTimeout+0x62>
 8003d42:	687b      	ldr	r3, [r7, #4]
 8003d44:	2b00      	cmp	r3, #0
 8003d46:	d104      	bne.n	8003d52 <SPI_WaitFifoStateUntilTimeout+0x62>
 8003d48:	69fb      	ldr	r3, [r7, #28]
 8003d4a:	781b      	ldrb	r3, [r3, #0]
 8003d4c:	b2db      	uxtb	r3, r3
 8003d4e:	75fb      	strb	r3, [r7, #23]
 8003d50:	7dfb      	ldrb	r3, [r7, #23]
 8003d52:	683b      	ldr	r3, [r7, #0]
 8003d54:	f1b3 3fff 	cmp.w	r3, #4294967295
 8003d58:	d050      	beq.n	8003dfc <SPI_WaitFifoStateUntilTimeout+0x10c>
 8003d5a:	f7fd fc63 	bl	8001624 <HAL_GetTick>
 8003d5e:	4602      	mov	r2, r0
 8003d60:	6a3b      	ldr	r3, [r7, #32]
 8003d62:	1ad3      	subs	r3, r2, r3
 8003d64:	6a7a      	ldr	r2, [r7, #36]	@ 0x24
 8003d66:	429a      	cmp	r2, r3
 8003d68:	d902      	bls.n	8003d70 <SPI_WaitFifoStateUntilTimeout+0x80>
 8003d6a:	6a7b      	ldr	r3, [r7, #36]	@ 0x24
 8003d6c:	2b00      	cmp	r3, #0
 8003d6e:	d13d      	bne.n	8003dec <SPI_WaitFifoStateUntilTimeout+0xfc>
 8003d70:	68fb      	ldr	r3, [r7, #12]
 8003d72:	681b      	ldr	r3, [r3, #0]
 8003d74:	685a      	ldr	r2, [r3, #4]
 8003d76:	68fb      	ldr	r3, [r7, #12]
 8003d78:	681b      	ldr	r3, [r3, #0]
 8003d7a:	f022 02e0 	bic.w	r2, r2, #224	@ 0xe0
 8003d7e:	605a      	str	r2, [r3, #4]
 8003d80:	68fb      	ldr	r3, [r7, #12]
 8003d82:	685b      	ldr	r3, [r3, #4]
 8003d84:	f5b3 7f82 	cmp.w	r3, #260	@ 0x104
 8003d88:	d111      	bne.n	8003dae <SPI_WaitFifoStateUntilTimeout+0xbe>
 8003d8a:	68fb      	ldr	r3, [r7, #12]
 8003d8c:	689b      	ldr	r3, [r3, #8]
 8003d8e:	f5b3 4f00 	cmp.w	r3, #32768	@ 0x8000
 8003d92:	d004      	beq.n	8003d9e <SPI_WaitFifoStateUntilTimeout+0xae>
 8003d94:	68fb      	ldr	r3, [r7, #12]
 8003d96:	689b      	ldr	r3, [r3, #8]
 8003d98:	f5b3 6f80 	cmp.w	r3, #1024	@ 0x400
 8003d9c:	d107      	bne.n	8003dae <SPI_WaitFifoStateUntilTimeout+0xbe>
 8003d9e:	68fb      	ldr	r3, [r7, #12]
 8003da0:	681b      	ldr	r3, [r3, #0]
 8003da2:	681a      	ldr	r2, [r3, #0]
 8003da4:	68fb      	ldr	r3, [r7, #12]
 8003da6:	681b      	ldr	r3, [r3, #0]
 8003da8:	f022 0240 	bic.w	r2, r2, #64	@ 0x40
 8003dac:	601a      	str	r2, [r3, #0]
 8003dae:	68fb      	ldr	r3, [r7, #12]
 8003db0:	6a9b      	ldr	r3, [r3, #40]	@ 0x28
 8003db2:	f5b3 5f00 	cmp.w	r3, #8192	@ 0x2000
 8003db6:	d10f      	bne.n	8003dd8 <SPI_WaitFifoStateUntilTimeout+0xe8>
 8003db8:	68fb      	ldr	r3, [r7, #12]
 8003dba:	681b      	ldr	r3, [r3, #0]
 8003dbc:	681a      	ldr	r2, [r3, #0]
 8003dbe:	68fb      	ldr	r3, [r7, #12]
 8003dc0:	681b      	ldr	r3, [r3, #0]
 8003dc2:	f422 5200 	bic.w	r2, r2, #8192	@ 0x2000
 8003dc6:	601a      	str	r2, [r3, #0]
 8003dc8:	68fb      	ldr	r3, [r7, #12]
 8003dca:	681b      	ldr	r3, [r3, #0]
 8003dcc:	681a      	ldr	r2, [r3, #0]
 8003dce:	68fb      	ldr	r3, [r7, #12]
 8003dd0:	681b      	ldr	r3, [r3, #0]
 8003dd2:	f442 5200 	orr.w	r2, r2, #8192	@ 0x2000
 8003dd6:	601a      	str	r2, [r3, #0]
 8003dd8:	68fb      	ldr	r3, [r7, #12]
 8003dda:	2201      	movs	r2, #1
 8003ddc:	f883 205d 	strb.w	r2, [r3, #93]	@ 0x5d
 8003de0:	68fb      	ldr	r3, [r7, #12]
 8003de2:	2200      	movs	r2, #0
 8003de4:	f883 205c 	strb.w	r2, [r3, #92]	@ 0x5c
 8003de8:	2303      	movs	r3, #3
 8003dea:	e010      	b.n	8003e0e <SPI_WaitFifoStateUntilTimeout+0x11e>
 8003dec:	69bb      	ldr	r3, [r7, #24]
 8003dee:	2b00      	cmp	r3, #0
 8003df0:	d101      	bne.n	8003df6 <SPI_WaitFifoStateUntilTimeout+0x106>
 8003df2:	2300      	movs	r3, #0
 8003df4:	627b      	str	r3, [r7, #36]	@ 0x24
 8003df6:	69bb      	ldr	r3, [r7, #24]
 8003df8:	3b01      	subs	r3, #1
 8003dfa:	61bb      	str	r3, [r7, #24]
 8003dfc:	68fb      	ldr	r3, [r7, #12]
 8003dfe:	681b      	ldr	r3, [r3, #0]
 8003e00:	689a      	ldr	r2, [r3, #8]
 8003e02:	68bb      	ldr	r3, [r7, #8]
 8003e04:	4013      	ands	r3, r2
 8003e06:	687a      	ldr	r2, [r7, #4]
 8003e08:	429a      	cmp	r2, r3
 8003e0a:	d196      	bne.n	8003d3a <SPI_WaitFifoStateUntilTimeout+0x4a>
 8003e0c:	2300      	movs	r3, #0
 8003e0e:	4618      	mov	r0, r3
 8003e10:	3728      	adds	r7, #40	@ 0x28
 8003e12:	46bd      	mov	sp, r7
 8003e14:	bd80      	pop	{r7, pc}
 8003e16:	bf00      	nop
 8003e18:	20000000 	.word	0x20000000

08003e1c <SPI_EndRxTxTransaction>:
 8003e1c:	b580      	push	{r7, lr}
 8003e1e:	b086      	sub	sp, #24
 8003e20:	af02      	add	r7, sp, #8
 8003e22:	60f8      	str	r0, [r7, #12]
 8003e24:	60b9      	str	r1, [r7, #8]
 8003e26:	607a      	str	r2, [r7, #4]
 8003e28:	687b      	ldr	r3, [r7, #4]
 8003e2a:	9300      	str	r3, [sp, #0]
 8003e2c:	68bb      	ldr	r3, [r7, #8]
 8003e2e:	2200      	movs	r2, #0
 8003e30:	f44f 51c0 	mov.w	r1, #6144	@ 0x1800
 8003e34:	68f8      	ldr	r0, [r7, #12]
 8003e36:	f7ff ff5b 	bl	8003cf0 <SPI_WaitFifoStateUntilTimeout>
 8003e3a:	4603      	mov	r3, r0
 8003e3c:	2b00      	cmp	r3, #0
 8003e3e:	d007      	beq.n	8003e50 <SPI_EndRxTxTransaction+0x34>
 8003e40:	68fb      	ldr	r3, [r7, #12]
 8003e42:	6e1b      	ldr	r3, [r3, #96]	@ 0x60
 8003e44:	f043 0220 	orr.w	r2, r3, #32
 8003e48:	68fb      	ldr	r3, [r7, #12]
 8003e4a:	661a      	str	r2, [r3, #96]	@ 0x60
 8003e4c:	2303      	movs	r3, #3
 8003e4e:	e027      	b.n	8003ea0 <SPI_EndRxTxTransaction+0x84>
 8003e50:	687b      	ldr	r3, [r7, #4]
 8003e52:	9300      	str	r3, [sp, #0]
 8003e54:	68bb      	ldr	r3, [r7, #8]
 8003e56:	2200      	movs	r2, #0
 8003e58:	2180      	movs	r1, #128	@ 0x80
 8003e5a:	68f8      	ldr	r0, [r7, #12]
 8003e5c:	f7ff fec0 	bl	8003be0 <SPI_WaitFlagStateUntilTimeout>
 8003e60:	4603      	mov	r3, r0
 8003e62:	2b00      	cmp	r3, #0
 8003e64:	d007      	beq.n	8003e76 <SPI_EndRxTxTransaction+0x5a>
 8003e66:	68fb      	ldr	r3, [r7, #12]
 8003e68:	6e1b      	ldr	r3, [r3, #96]	@ 0x60
 8003e6a:	f043 0220 	orr.w	r2, r3, #32
 8003e6e:	68fb      	ldr	r3, [r7, #12]
 8003e70:	661a      	str	r2, [r3, #96]	@ 0x60
 8003e72:	2303      	movs	r3, #3
 8003e74:	e014      	b.n	8003ea0 <SPI_EndRxTxTransaction+0x84>
 8003e76:	687b      	ldr	r3, [r7, #4]
 8003e78:	9300      	str	r3, [sp, #0]
 8003e7a:	68bb      	ldr	r3, [r7, #8]
 8003e7c:	2200      	movs	r2, #0
 8003e7e:	f44f 61c0 	mov.w	r1, #1536	@ 0x600
 8003e82:	68f8      	ldr	r0, [r7, #12]
 8003e84:	f7ff ff34 	bl	8003cf0 <SPI_WaitFifoStateUntilTimeout>
 8003e88:	4603      	mov	r3, r0
 8003e8a:	2b00      	cmp	r3, #0
 8003e8c:	d007      	beq.n	8003e9e <SPI_EndRxTxTransaction+0x82>
 8003e8e:	68fb      	ldr	r3, [r7, #12]
 8003e90:	6e1b      	ldr	r3, [r3, #96]	@ 0x60
 8003e92:	f043 0220 	orr.w	r2, r3, #32
 8003e96:	68fb      	ldr	r3, [r7, #12]
 8003e98:	661a      	str	r2, [r3, #96]	@ 0x60
 8003e9a:	2303      	movs	r3, #3
 8003e9c:	e000      	b.n	8003ea0 <SPI_EndRxTxTransaction+0x84>
 8003e9e:	2300      	movs	r3, #0
 8003ea0:	4618      	mov	r0, r3
 8003ea2:	3710      	adds	r7, #16
 8003ea4:	46bd      	mov	sp, r7
 8003ea6:	bd80      	pop	{r7, pc}

08003ea8 <HAL_TIM_Base_Init>:
 8003ea8:	b580      	push	{r7, lr}
 8003eaa:	b082      	sub	sp, #8
 8003eac:	af00      	add	r7, sp, #0
 8003eae:	6078      	str	r0, [r7, #4]
 8003eb0:	687b      	ldr	r3, [r7, #4]
 8003eb2:	2b00      	cmp	r3, #0
 8003eb4:	d101      	bne.n	8003eba <HAL_TIM_Base_Init+0x12>
 8003eb6:	2301      	movs	r3, #1
 8003eb8:	e049      	b.n	8003f4e <HAL_TIM_Base_Init+0xa6>
 8003eba:	687b      	ldr	r3, [r7, #4]
 8003ebc:	f893 303d 	ldrb.w	r3, [r3, #61]	@ 0x3d
 8003ec0:	b2db      	uxtb	r3, r3
 8003ec2:	2b00      	cmp	r3, #0
 8003ec4:	d106      	bne.n	8003ed4 <HAL_TIM_Base_Init+0x2c>
 8003ec6:	687b      	ldr	r3, [r7, #4]
 8003ec8:	2200      	movs	r2, #0
 8003eca:	f883 203c 	strb.w	r2, [r3, #60]	@ 0x3c
 8003ece:	6878      	ldr	r0, [r7, #4]
 8003ed0:	f000 f841 	bl	8003f56 <HAL_TIM_Base_MspInit>
 8003ed4:	687b      	ldr	r3, [r7, #4]
 8003ed6:	2202      	movs	r2, #2
 8003ed8:	f883 203d 	strb.w	r2, [r3, #61]	@ 0x3d
 8003edc:	687b      	ldr	r3, [r7, #4]
 8003ede:	681a      	ldr	r2, [r3, #0]
 8003ee0:	687b      	ldr	r3, [r7, #4]
 8003ee2:	3304      	adds	r3, #4
 8003ee4:	4619      	mov	r1, r3
 8003ee6:	4610      	mov	r0, r2
 8003ee8:	f000 f9e0 	bl	80042ac <TIM_Base_SetConfig>
 8003eec:	687b      	ldr	r3, [r7, #4]
 8003eee:	2201      	movs	r2, #1
 8003ef0:	f883 2048 	strb.w	r2, [r3, #72]	@ 0x48
 8003ef4:	687b      	ldr	r3, [r7, #4]
 8003ef6:	2201      	movs	r2, #1
 8003ef8:	f883 203e 	strb.w	r2, [r3, #62]	@ 0x3e
 8003efc:	687b      	ldr	r3, [r7, #4]
 8003efe:	2201      	movs	r2, #1
 8003f00:	f883 203f 	strb.w	r2, [r3, #63]	@ 0x3f
 8003f04:	687b      	ldr	r3, [r7, #4]
 8003f06:	2201      	movs	r2, #1
 8003f08:	f883 2040 	strb.w	r2, [r3, #64]	@ 0x40
 8003f0c:	687b      	ldr	r3, [r7, #4]
 8003f0e:	2201      	movs	r2, #1
 8003f10:	f883 2041 	strb.w	r2, [r3, #65]	@ 0x41
 8003f14:	687b      	ldr	r3, [r7, #4]
 8003f16:	2201      	movs	r2, #1
 8003f18:	f883 2042 	strb.w	r2, [r3, #66]	@ 0x42
 8003f1c:	687b      	ldr	r3, [r7, #4]
 8003f1e:	2201      	movs	r2, #1
 8003f20:	f883 2043 	strb.w	r2, [r3, #67]	@ 0x43
 8003f24:	687b      	ldr	r3, [r7, #4]
 8003f26:	2201      	movs	r2, #1
 8003f28:	f883 2044 	strb.w	r2, [r3, #68]	@ 0x44
 8003f2c:	687b      	ldr	r3, [r7, #4]
 8003f2e:	2201      	movs	r2, #1
 8003f30:	f883 2045 	strb.w	r2, [r3, #69]	@ 0x45
 8003f34:	687b      	ldr	r3, [r7, #4]
 8003f36:	2201      	movs	r2, #1
 8003f38:	f883 2046 	strb.w	r2, [r3, #70]	@ 0x46
 8003f3c:	687b      	ldr	r3, [r7, #4]
 8003f3e:	2201      	movs	r2, #1
 8003f40:	f883 2047 	strb.w	r2, [r3, #71]	@ 0x47
 8003f44:	687b      	ldr	r3, [r7, #4]
 8003f46:	2201      	movs	r2, #1
 8003f48:	f883 203d 	strb.w	r2, [r3, #61]	@ 0x3d
 8003f4c:	2300      	movs	r3, #0
 8003f4e:	4618      	mov	r0, r3
 8003f50:	3708      	adds	r7, #8
 8003f52:	46bd      	mov	sp, r7
 8003f54:	bd80      	pop	{r7, pc}

08003f56 <HAL_TIM_Base_MspInit>:
 8003f56:	b480      	push	{r7}
 8003f58:	b083      	sub	sp, #12
 8003f5a:	af00      	add	r7, sp, #0
 8003f5c:	6078      	str	r0, [r7, #4]
 8003f5e:	bf00      	nop
 8003f60:	370c      	adds	r7, #12
 8003f62:	46bd      	mov	sp, r7
 8003f64:	f85d 7b04 	ldr.w	r7, [sp], #4
 8003f68:	4770      	bx	lr
	...

08003f6c <HAL_TIM_Base_Start_IT>:
 8003f6c:	b480      	push	{r7}
 8003f6e:	b085      	sub	sp, #20
 8003f70:	af00      	add	r7, sp, #0
 8003f72:	6078      	str	r0, [r7, #4]
 8003f74:	687b      	ldr	r3, [r7, #4]
 8003f76:	f893 303d 	ldrb.w	r3, [r3, #61]	@ 0x3d
 8003f7a:	b2db      	uxtb	r3, r3
 8003f7c:	2b01      	cmp	r3, #1
 8003f7e:	d001      	beq.n	8003f84 <HAL_TIM_Base_Start_IT+0x18>
 8003f80:	2301      	movs	r3, #1
 8003f82:	e04f      	b.n	8004024 <HAL_TIM_Base_Start_IT+0xb8>
 8003f84:	687b      	ldr	r3, [r7, #4]
 8003f86:	2202      	movs	r2, #2
 8003f88:	f883 203d 	strb.w	r2, [r3, #61]	@ 0x3d
 8003f8c:	687b      	ldr	r3, [r7, #4]
 8003f8e:	681b      	ldr	r3, [r3, #0]
 8003f90:	68da      	ldr	r2, [r3, #12]
 8003f92:	687b      	ldr	r3, [r7, #4]
 8003f94:	681b      	ldr	r3, [r3, #0]
 8003f96:	f042 0201 	orr.w	r2, r2, #1
 8003f9a:	60da      	str	r2, [r3, #12]
 8003f9c:	687b      	ldr	r3, [r7, #4]
 8003f9e:	681b      	ldr	r3, [r3, #0]
 8003fa0:	4a23      	ldr	r2, [pc, #140]	@ (8004030 <HAL_TIM_Base_Start_IT+0xc4>)
 8003fa2:	4293      	cmp	r3, r2
 8003fa4:	d01d      	beq.n	8003fe2 <HAL_TIM_Base_Start_IT+0x76>
 8003fa6:	687b      	ldr	r3, [r7, #4]
 8003fa8:	681b      	ldr	r3, [r3, #0]
 8003faa:	f1b3 4f80 	cmp.w	r3, #1073741824	@ 0x40000000
 8003fae:	d018      	beq.n	8003fe2 <HAL_TIM_Base_Start_IT+0x76>
 8003fb0:	687b      	ldr	r3, [r7, #4]
 8003fb2:	681b      	ldr	r3, [r3, #0]
 8003fb4:	4a1f      	ldr	r2, [pc, #124]	@ (8004034 <HAL_TIM_Base_Start_IT+0xc8>)
 8003fb6:	4293      	cmp	r3, r2
 8003fb8:	d013      	beq.n	8003fe2 <HAL_TIM_Base_Start_IT+0x76>
 8003fba:	687b      	ldr	r3, [r7, #4]
 8003fbc:	681b      	ldr	r3, [r3, #0]
 8003fbe:	4a1e      	ldr	r2, [pc, #120]	@ (8004038 <HAL_TIM_Base_Start_IT+0xcc>)
 8003fc0:	4293      	cmp	r3, r2
 8003fc2:	d00e      	beq.n	8003fe2 <HAL_TIM_Base_Start_IT+0x76>
 8003fc4:	687b      	ldr	r3, [r7, #4]
 8003fc6:	681b      	ldr	r3, [r3, #0]
 8003fc8:	4a1c      	ldr	r2, [pc, #112]	@ (800403c <HAL_TIM_Base_Start_IT+0xd0>)
 8003fca:	4293      	cmp	r3, r2
 8003fcc:	d009      	beq.n	8003fe2 <HAL_TIM_Base_Start_IT+0x76>
 8003fce:	687b      	ldr	r3, [r7, #4]
 8003fd0:	681b      	ldr	r3, [r3, #0]
 8003fd2:	4a1b      	ldr	r2, [pc, #108]	@ (8004040 <HAL_TIM_Base_Start_IT+0xd4>)
 8003fd4:	4293      	cmp	r3, r2
 8003fd6:	d004      	beq.n	8003fe2 <HAL_TIM_Base_Start_IT+0x76>
 8003fd8:	687b      	ldr	r3, [r7, #4]
 8003fda:	681b      	ldr	r3, [r3, #0]
 8003fdc:	4a19      	ldr	r2, [pc, #100]	@ (8004044 <HAL_TIM_Base_Start_IT+0xd8>)
 8003fde:	4293      	cmp	r3, r2
 8003fe0:	d115      	bne.n	800400e <HAL_TIM_Base_Start_IT+0xa2>
 8003fe2:	687b      	ldr	r3, [r7, #4]
 8003fe4:	681b      	ldr	r3, [r3, #0]
 8003fe6:	689a      	ldr	r2, [r3, #8]
 8003fe8:	4b17      	ldr	r3, [pc, #92]	@ (8004048 <HAL_TIM_Base_Start_IT+0xdc>)
 8003fea:	4013      	ands	r3, r2
 8003fec:	60fb      	str	r3, [r7, #12]
 8003fee:	68fb      	ldr	r3, [r7, #12]
 8003ff0:	2b06      	cmp	r3, #6
 8003ff2:	d015      	beq.n	8004020 <HAL_TIM_Base_Start_IT+0xb4>
 8003ff4:	68fb      	ldr	r3, [r7, #12]
 8003ff6:	f5b3 3f80 	cmp.w	r3, #65536	@ 0x10000
 8003ffa:	d011      	beq.n	8004020 <HAL_TIM_Base_Start_IT+0xb4>
 8003ffc:	687b      	ldr	r3, [r7, #4]
 8003ffe:	681b      	ldr	r3, [r3, #0]
 8004000:	681a      	ldr	r2, [r3, #0]
 8004002:	687b      	ldr	r3, [r7, #4]
 8004004:	681b      	ldr	r3, [r3, #0]
 8004006:	f042 0201 	orr.w	r2, r2, #1
 800400a:	601a      	str	r2, [r3, #0]
 800400c:	e008      	b.n	8004020 <HAL_TIM_Base_Start_IT+0xb4>
 800400e:	687b      	ldr	r3, [r7, #4]
 8004010:	681b      	ldr	r3, [r3, #0]
 8004012:	681a      	ldr	r2, [r3, #0]
 8004014:	687b      	ldr	r3, [r7, #4]
 8004016:	681b      	ldr	r3, [r3, #0]
 8004018:	f042 0201 	orr.w	r2, r2, #1
 800401c:	601a      	str	r2, [r3, #0]
 800401e:	e000      	b.n	8004022 <HAL_TIM_Base_Start_IT+0xb6>
 8004020:	bf00      	nop
 8004022:	2300      	movs	r3, #0
 8004024:	4618      	mov	r0, r3
 8004026:	3714      	adds	r7, #20
 8004028:	46bd      	mov	sp, r7
 800402a:	f85d 7b04 	ldr.w	r7, [sp], #4
 800402e:	4770      	bx	lr
 8004030:	40012c00 	.word	0x40012c00
 8004034:	40000400 	.word	0x40000400
 8004038:	40000800 	.word	0x40000800
 800403c:	40000c00 	.word	0x40000c00
 8004040:	40013400 	.word	0x40013400
 8004044:	40014000 	.word	0x40014000
 8004048:	00010007 	.word	0x00010007

0800404c <HAL_TIM_IRQHandler>:
 800404c:	b580      	push	{r7, lr}
 800404e:	b084      	sub	sp, #16
 8004050:	af00      	add	r7, sp, #0
 8004052:	6078      	str	r0, [r7, #4]
 8004054:	687b      	ldr	r3, [r7, #4]
 8004056:	681b      	ldr	r3, [r3, #0]
 8004058:	68db      	ldr	r3, [r3, #12]
 800405a:	60fb      	str	r3, [r7, #12]
 800405c:	687b      	ldr	r3, [r7, #4]
 800405e:	681b      	ldr	r3, [r3, #0]
 8004060:	691b      	ldr	r3, [r3, #16]
 8004062:	60bb      	str	r3, [r7, #8]
 8004064:	68bb      	ldr	r3, [r7, #8]
 8004066:	f003 0302 	and.w	r3, r3, #2
 800406a:	2b00      	cmp	r3, #0
 800406c:	d020      	beq.n	80040b0 <HAL_TIM_IRQHandler+0x64>
 800406e:	68fb      	ldr	r3, [r7, #12]
 8004070:	f003 0302 	and.w	r3, r3, #2
 8004074:	2b00      	cmp	r3, #0
 8004076:	d01b      	beq.n	80040b0 <HAL_TIM_IRQHandler+0x64>
 8004078:	687b      	ldr	r3, [r7, #4]
 800407a:	681b      	ldr	r3, [r3, #0]
 800407c:	f06f 0202 	mvn.w	r2, #2
 8004080:	611a      	str	r2, [r3, #16]
 8004082:	687b      	ldr	r3, [r7, #4]
 8004084:	2201      	movs	r2, #1
 8004086:	771a      	strb	r2, [r3, #28]
 8004088:	687b      	ldr	r3, [r7, #4]
 800408a:	681b      	ldr	r3, [r3, #0]
 800408c:	699b      	ldr	r3, [r3, #24]
 800408e:	f003 0303 	and.w	r3, r3, #3
 8004092:	2b00      	cmp	r3, #0
 8004094:	d003      	beq.n	800409e <HAL_TIM_IRQHandler+0x52>
 8004096:	6878      	ldr	r0, [r7, #4]
 8004098:	f000 f8e9 	bl	800426e <HAL_TIM_IC_CaptureCallback>
 800409c:	e005      	b.n	80040aa <HAL_TIM_IRQHandler+0x5e>
 800409e:	6878      	ldr	r0, [r7, #4]
 80040a0:	f000 f8db 	bl	800425a <HAL_TIM_OC_DelayElapsedCallback>
 80040a4:	6878      	ldr	r0, [r7, #4]
 80040a6:	f000 f8ec 	bl	8004282 <HAL_TIM_PWM_PulseFinishedCallback>
 80040aa:	687b      	ldr	r3, [r7, #4]
 80040ac:	2200      	movs	r2, #0
 80040ae:	771a      	strb	r2, [r3, #28]
 80040b0:	68bb      	ldr	r3, [r7, #8]
 80040b2:	f003 0304 	and.w	r3, r3, #4
 80040b6:	2b00      	cmp	r3, #0
 80040b8:	d020      	beq.n	80040fc <HAL_TIM_IRQHandler+0xb0>
 80040ba:	68fb      	ldr	r3, [r7, #12]
 80040bc:	f003 0304 	and.w	r3, r3, #4
 80040c0:	2b00      	cmp	r3, #0
 80040c2:	d01b      	beq.n	80040fc <HAL_TIM_IRQHandler+0xb0>
 80040c4:	687b      	ldr	r3, [r7, #4]
 80040c6:	681b      	ldr	r3, [r3, #0]
 80040c8:	f06f 0204 	mvn.w	r2, #4
 80040cc:	611a      	str	r2, [r3, #16]
 80040ce:	687b      	ldr	r3, [r7, #4]
 80040d0:	2202      	movs	r2, #2
 80040d2:	771a      	strb	r2, [r3, #28]
 80040d4:	687b      	ldr	r3, [r7, #4]
 80040d6:	681b      	ldr	r3, [r3, #0]
 80040d8:	699b      	ldr	r3, [r3, #24]
 80040da:	f403 7340 	and.w	r3, r3, #768	@ 0x300
 80040de:	2b00      	cmp	r3, #0
 80040e0:	d003      	beq.n	80040ea <HAL_TIM_IRQHandler+0x9e>
 80040e2:	6878      	ldr	r0, [r7, #4]
 80040e4:	f000 f8c3 	bl	800426e <HAL_TIM_IC_CaptureCallback>
 80040e8:	e005      	b.n	80040f6 <HAL_TIM_IRQHandler+0xaa>
 80040ea:	6878      	ldr	r0, [r7, #4]
 80040ec:	f000 f8b5 	bl	800425a <HAL_TIM_OC_DelayElapsedCallback>
 80040f0:	6878      	ldr	r0, [r7, #4]
 80040f2:	f000 f8c6 	bl	8004282 <HAL_TIM_PWM_PulseFinishedCallback>
 80040f6:	687b      	ldr	r3, [r7, #4]
 80040f8:	2200      	movs	r2, #0
 80040fa:	771a      	strb	r2, [r3, #28]
 80040fc:	68bb      	ldr	r3, [r7, #8]
 80040fe:	f003 0308 	and.w	r3, r3, #8
 8004102:	2b00      	cmp	r3, #0
 8004104:	d020      	beq.n	8004148 <HAL_TIM_IRQHandler+0xfc>
 8004106:	68fb      	ldr	r3, [r7, #12]
 8004108:	f003 0308 	and.w	r3, r3, #8
 800410c:	2b00      	cmp	r3, #0
 800410e:	d01b      	beq.n	8004148 <HAL_TIM_IRQHandler+0xfc>
 8004110:	687b      	ldr	r3, [r7, #4]
 8004112:	681b      	ldr	r3, [r3, #0]
 8004114:	f06f 0208 	mvn.w	r2, #8
 8004118:	611a      	str	r2, [r3, #16]
 800411a:	687b      	ldr	r3, [r7, #4]
 800411c:	2204      	movs	r2, #4
 800411e:	771a      	strb	r2, [r3, #28]
 8004120:	687b      	ldr	r3, [r7, #4]
 8004122:	681b      	ldr	r3, [r3, #0]
 8004124:	69db      	ldr	r3, [r3, #28]
 8004126:	f003 0303 	and.w	r3, r3, #3
 800412a:	2b00      	cmp	r3, #0
 800412c:	d003      	beq.n	8004136 <HAL_TIM_IRQHandler+0xea>
 800412e:	6878      	ldr	r0, [r7, #4]
 8004130:	f000 f89d 	bl	800426e <HAL_TIM_IC_CaptureCallback>
 8004134:	e005      	b.n	8004142 <HAL_TIM_IRQHandler+0xf6>
 8004136:	6878      	ldr	r0, [r7, #4]
 8004138:	f000 f88f 	bl	800425a <HAL_TIM_OC_DelayElapsedCallback>
 800413c:	6878      	ldr	r0, [r7, #4]
 800413e:	f000 f8a0 	bl	8004282 <HAL_TIM_PWM_PulseFinishedCallback>
 8004142:	687b      	ldr	r3, [r7, #4]
 8004144:	2200      	movs	r2, #0
 8004146:	771a      	strb	r2, [r3, #28]
 8004148:	68bb      	ldr	r3, [r7, #8]
 800414a:	f003 0310 	and.w	r3, r3, #16
 800414e:	2b00      	cmp	r3, #0
 8004150:	d020      	beq.n	8004194 <HAL_TIM_IRQHandler+0x148>
 8004152:	68fb      	ldr	r3, [r7, #12]
 8004154:	f003 0310 	and.w	r3, r3, #16
 8004158:	2b00      	cmp	r3, #0
 800415a:	d01b      	beq.n	8004194 <HAL_TIM_IRQHandler+0x148>
 800415c:	687b      	ldr	r3, [r7, #4]
 800415e:	681b      	ldr	r3, [r3, #0]
 8004160:	f06f 0210 	mvn.w	r2, #16
 8004164:	611a      	str	r2, [r3, #16]
 8004166:	687b      	ldr	r3, [r7, #4]
 8004168:	2208      	movs	r2, #8
 800416a:	771a      	strb	r2, [r3, #28]
 800416c:	687b      	ldr	r3, [r7, #4]
 800416e:	681b      	ldr	r3, [r3, #0]
 8004170:	69db      	ldr	r3, [r3, #28]
 8004172:	f403 7340 	and.w	r3, r3, #768	@ 0x300
 8004176:	2b00      	cmp	r3, #0
 8004178:	d003      	beq.n	8004182 <HAL_TIM_IRQHandler+0x136>
 800417a:	6878      	ldr	r0, [r7, #4]
 800417c:	f000 f877 	bl	800426e <HAL_TIM_IC_CaptureCallback>
 8004180:	e005      	b.n	800418e <HAL_TIM_IRQHandler+0x142>
 8004182:	6878      	ldr	r0, [r7, #4]
 8004184:	f000 f869 	bl	800425a <HAL_TIM_OC_DelayElapsedCallback>
 8004188:	6878      	ldr	r0, [r7, #4]
 800418a:	f000 f87a 	bl	8004282 <HAL_TIM_PWM_PulseFinishedCallback>
 800418e:	687b      	ldr	r3, [r7, #4]
 8004190:	2200      	movs	r2, #0
 8004192:	771a      	strb	r2, [r3, #28]
 8004194:	68bb      	ldr	r3, [r7, #8]
 8004196:	f003 0301 	and.w	r3, r3, #1
 800419a:	2b00      	cmp	r3, #0
 800419c:	d00c      	beq.n	80041b8 <HAL_TIM_IRQHandler+0x16c>
 800419e:	68fb      	ldr	r3, [r7, #12]
 80041a0:	f003 0301 	and.w	r3, r3, #1
 80041a4:	2b00      	cmp	r3, #0
 80041a6:	d007      	beq.n	80041b8 <HAL_TIM_IRQHandler+0x16c>
 80041a8:	687b      	ldr	r3, [r7, #4]
 80041aa:	681b      	ldr	r3, [r3, #0]
 80041ac:	f06f 0201 	mvn.w	r2, #1
 80041b0:	611a      	str	r2, [r3, #16]
 80041b2:	6878      	ldr	r0, [r7, #4]
 80041b4:	f7fc fd62 	bl	8000c7c <HAL_TIM_PeriodElapsedCallback>
 80041b8:	68bb      	ldr	r3, [r7, #8]
 80041ba:	f003 0380 	and.w	r3, r3, #128	@ 0x80
 80041be:	2b00      	cmp	r3, #0
 80041c0:	d104      	bne.n	80041cc <HAL_TIM_IRQHandler+0x180>
 80041c2:	68bb      	ldr	r3, [r7, #8]
 80041c4:	f403 5300 	and.w	r3, r3, #8192	@ 0x2000
 80041c8:	2b00      	cmp	r3, #0
 80041ca:	d00c      	beq.n	80041e6 <HAL_TIM_IRQHandler+0x19a>
 80041cc:	68fb      	ldr	r3, [r7, #12]
 80041ce:	f003 0380 	and.w	r3, r3, #128	@ 0x80
 80041d2:	2b00      	cmp	r3, #0
 80041d4:	d007      	beq.n	80041e6 <HAL_TIM_IRQHandler+0x19a>
 80041d6:	687b      	ldr	r3, [r7, #4]
 80041d8:	681b      	ldr	r3, [r3, #0]
 80041da:	f46f 5202 	mvn.w	r2, #8320	@ 0x2080
 80041de:	611a      	str	r2, [r3, #16]
 80041e0:	6878      	ldr	r0, [r7, #4]
 80041e2:	f000 f913 	bl	800440c <HAL_TIMEx_BreakCallback>
 80041e6:	68bb      	ldr	r3, [r7, #8]
 80041e8:	f403 7380 	and.w	r3, r3, #256	@ 0x100
 80041ec:	2b00      	cmp	r3, #0
 80041ee:	d00c      	beq.n	800420a <HAL_TIM_IRQHandler+0x1be>
 80041f0:	68fb      	ldr	r3, [r7, #12]
 80041f2:	f003 0380 	and.w	r3, r3, #128	@ 0x80
 80041f6:	2b00      	cmp	r3, #0
 80041f8:	d007      	beq.n	800420a <HAL_TIM_IRQHandler+0x1be>
 80041fa:	687b      	ldr	r3, [r7, #4]
 80041fc:	681b      	ldr	r3, [r3, #0]
 80041fe:	f46f 7280 	mvn.w	r2, #256	@ 0x100
 8004202:	611a      	str	r2, [r3, #16]
 8004204:	6878      	ldr	r0, [r7, #4]
 8004206:	f000 f90b 	bl	8004420 <HAL_TIMEx_Break2Callback>
 800420a:	68bb      	ldr	r3, [r7, #8]
 800420c:	f003 0340 	and.w	r3, r3, #64	@ 0x40
 8004210:	2b00      	cmp	r3, #0
 8004212:	d00c      	beq.n	800422e <HAL_TIM_IRQHandler+0x1e2>
 8004214:	68fb      	ldr	r3, [r7, #12]
 8004216:	f003 0340 	and.w	r3, r3, #64	@ 0x40
 800421a:	2b00      	cmp	r3, #0
 800421c:	d007      	beq.n	800422e <HAL_TIM_IRQHandler+0x1e2>
 800421e:	687b      	ldr	r3, [r7, #4]
 8004220:	681b      	ldr	r3, [r3, #0]
 8004222:	f06f 0240 	mvn.w	r2, #64	@ 0x40
 8004226:	611a      	str	r2, [r3, #16]
 8004228:	6878      	ldr	r0, [r7, #4]
 800422a:	f000 f834 	bl	8004296 <HAL_TIM_TriggerCallback>
 800422e:	68bb      	ldr	r3, [r7, #8]
 8004230:	f003 0320 	and.w	r3, r3, #32
 8004234:	2b00      	cmp	r3, #0
 8004236:	d00c      	beq.n	8004252 <HAL_TIM_IRQHandler+0x206>
 8004238:	68fb      	ldr	r3, [r7, #12]
 800423a:	f003 0320 	and.w	r3, r3, #32
 800423e:	2b00      	cmp	r3, #0
 8004240:	d007      	beq.n	8004252 <HAL_TIM_IRQHandler+0x206>
 8004242:	687b      	ldr	r3, [r7, #4]
 8004244:	681b      	ldr	r3, [r3, #0]
 8004246:	f06f 0220 	mvn.w	r2, #32
 800424a:	611a      	str	r2, [r3, #16]
 800424c:	6878      	ldr	r0, [r7, #4]
 800424e:	f000 f8d3 	bl	80043f8 <HAL_TIMEx_CommutCallback>
 8004252:	bf00      	nop
 8004254:	3710      	adds	r7, #16
 8004256:	46bd      	mov	sp, r7
 8004258:	bd80      	pop	{r7, pc}

0800425a <HAL_TIM_OC_DelayElapsedCallback>:
 800425a:	b480      	push	{r7}
 800425c:	b083      	sub	sp, #12
 800425e:	af00      	add	r7, sp, #0
 8004260:	6078      	str	r0, [r7, #4]
 8004262:	bf00      	nop
 8004264:	370c      	adds	r7, #12
 8004266:	46bd      	mov	sp, r7
 8004268:	f85d 7b04 	ldr.w	r7, [sp], #4
 800426c:	4770      	bx	lr

0800426e <HAL_TIM_IC_CaptureCallback>:
 800426e:	b480      	push	{r7}
 8004270:	b083      	sub	sp, #12
 8004272:	af00      	add	r7, sp, #0
 8004274:	6078      	str	r0, [r7, #4]
 8004276:	bf00      	nop
 8004278:	370c      	adds	r7, #12
 800427a:	46bd      	mov	sp, r7
 800427c:	f85d 7b04 	ldr.w	r7, [sp], #4
 8004280:	4770      	bx	lr

08004282 <HAL_TIM_PWM_PulseFinishedCallback>:
 8004282:	b480      	push	{r7}
 8004284:	b083      	sub	sp, #12
 8004286:	af00      	add	r7, sp, #0
 8004288:	6078      	str	r0, [r7, #4]
 800428a:	bf00      	nop
 800428c:	370c      	adds	r7, #12
 800428e:	46bd      	mov	sp, r7
 8004290:	f85d 7b04 	ldr.w	r7, [sp], #4
 8004294:	4770      	bx	lr

08004296 <HAL_TIM_TriggerCallback>:
 8004296:	b480      	push	{r7}
 8004298:	b083      	sub	sp, #12
 800429a:	af00      	add	r7, sp, #0
 800429c:	6078      	str	r0, [r7, #4]
 800429e:	bf00      	nop
 80042a0:	370c      	adds	r7, #12
 80042a2:	46bd      	mov	sp, r7
 80042a4:	f85d 7b04 	ldr.w	r7, [sp], #4
 80042a8:	4770      	bx	lr
	...

080042ac <TIM_Base_SetConfig>:
 80042ac:	b480      	push	{r7}
 80042ae:	b085      	sub	sp, #20
 80042b0:	af00      	add	r7, sp, #0
 80042b2:	6078      	str	r0, [r7, #4]
 80042b4:	6039      	str	r1, [r7, #0]
 80042b6:	687b      	ldr	r3, [r7, #4]
 80042b8:	681b      	ldr	r3, [r3, #0]
 80042ba:	60fb      	str	r3, [r7, #12]
 80042bc:	687b      	ldr	r3, [r7, #4]
 80042be:	4a46      	ldr	r2, [pc, #280]	@ (80043d8 <TIM_Base_SetConfig+0x12c>)
 80042c0:	4293      	cmp	r3, r2
 80042c2:	d013      	beq.n	80042ec <TIM_Base_SetConfig+0x40>
 80042c4:	687b      	ldr	r3, [r7, #4]
 80042c6:	f1b3 4f80 	cmp.w	r3, #1073741824	@ 0x40000000
 80042ca:	d00f      	beq.n	80042ec <TIM_Base_SetConfig+0x40>
 80042cc:	687b      	ldr	r3, [r7, #4]
 80042ce:	4a43      	ldr	r2, [pc, #268]	@ (80043dc <TIM_Base_SetConfig+0x130>)
 80042d0:	4293      	cmp	r3, r2
 80042d2:	d00b      	beq.n	80042ec <TIM_Base_SetConfig+0x40>
 80042d4:	687b      	ldr	r3, [r7, #4]
 80042d6:	4a42      	ldr	r2, [pc, #264]	@ (80043e0 <TIM_Base_SetConfig+0x134>)
 80042d8:	4293      	cmp	r3, r2
 80042da:	d007      	beq.n	80042ec <TIM_Base_SetConfig+0x40>
 80042dc:	687b      	ldr	r3, [r7, #4]
 80042de:	4a41      	ldr	r2, [pc, #260]	@ (80043e4 <TIM_Base_SetConfig+0x138>)
 80042e0:	4293      	cmp	r3, r2
 80042e2:	d003      	beq.n	80042ec <TIM_Base_SetConfig+0x40>
 80042e4:	687b      	ldr	r3, [r7, #4]
 80042e6:	4a40      	ldr	r2, [pc, #256]	@ (80043e8 <TIM_Base_SetConfig+0x13c>)
 80042e8:	4293      	cmp	r3, r2
 80042ea:	d108      	bne.n	80042fe <TIM_Base_SetConfig+0x52>
 80042ec:	68fb      	ldr	r3, [r7, #12]
 80042ee:	f023 0370 	bic.w	r3, r3, #112	@ 0x70
 80042f2:	60fb      	str	r3, [r7, #12]
 80042f4:	683b      	ldr	r3, [r7, #0]
 80042f6:	685b      	ldr	r3, [r3, #4]
 80042f8:	68fa      	ldr	r2, [r7, #12]
 80042fa:	4313      	orrs	r3, r2
 80042fc:	60fb      	str	r3, [r7, #12]
 80042fe:	687b      	ldr	r3, [r7, #4]
 8004300:	4a35      	ldr	r2, [pc, #212]	@ (80043d8 <TIM_Base_SetConfig+0x12c>)
 8004302:	4293      	cmp	r3, r2
 8004304:	d01f      	beq.n	8004346 <TIM_Base_SetConfig+0x9a>
 8004306:	687b      	ldr	r3, [r7, #4]
 8004308:	f1b3 4f80 	cmp.w	r3, #1073741824	@ 0x40000000
 800430c:	d01b      	beq.n	8004346 <TIM_Base_SetConfig+0x9a>
 800430e:	687b      	ldr	r3, [r7, #4]
 8004310:	4a32      	ldr	r2, [pc, #200]	@ (80043dc <TIM_Base_SetConfig+0x130>)
 8004312:	4293      	cmp	r3, r2
 8004314:	d017      	beq.n	8004346 <TIM_Base_SetConfig+0x9a>
 8004316:	687b      	ldr	r3, [r7, #4]
 8004318:	4a31      	ldr	r2, [pc, #196]	@ (80043e0 <TIM_Base_SetConfig+0x134>)
 800431a:	4293      	cmp	r3, r2
 800431c:	d013      	beq.n	8004346 <TIM_Base_SetConfig+0x9a>
 800431e:	687b      	ldr	r3, [r7, #4]
 8004320:	4a30      	ldr	r2, [pc, #192]	@ (80043e4 <TIM_Base_SetConfig+0x138>)
 8004322:	4293      	cmp	r3, r2
 8004324:	d00f      	beq.n	8004346 <TIM_Base_SetConfig+0x9a>
 8004326:	687b      	ldr	r3, [r7, #4]
 8004328:	4a2f      	ldr	r2, [pc, #188]	@ (80043e8 <TIM_Base_SetConfig+0x13c>)
 800432a:	4293      	cmp	r3, r2
 800432c:	d00b      	beq.n	8004346 <TIM_Base_SetConfig+0x9a>
 800432e:	687b      	ldr	r3, [r7, #4]
 8004330:	4a2e      	ldr	r2, [pc, #184]	@ (80043ec <TIM_Base_SetConfig+0x140>)
 8004332:	4293      	cmp	r3, r2
 8004334:	d007      	beq.n	8004346 <TIM_Base_SetConfig+0x9a>
 8004336:	687b      	ldr	r3, [r7, #4]
 8004338:	4a2d      	ldr	r2, [pc, #180]	@ (80043f0 <TIM_Base_SetConfig+0x144>)
 800433a:	4293      	cmp	r3, r2
 800433c:	d003      	beq.n	8004346 <TIM_Base_SetConfig+0x9a>
 800433e:	687b      	ldr	r3, [r7, #4]
 8004340:	4a2c      	ldr	r2, [pc, #176]	@ (80043f4 <TIM_Base_SetConfig+0x148>)
 8004342:	4293      	cmp	r3, r2
 8004344:	d108      	bne.n	8004358 <TIM_Base_SetConfig+0xac>
 8004346:	68fb      	ldr	r3, [r7, #12]
 8004348:	f423 7340 	bic.w	r3, r3, #768	@ 0x300
 800434c:	60fb      	str	r3, [r7, #12]
 800434e:	683b      	ldr	r3, [r7, #0]
 8004350:	68db      	ldr	r3, [r3, #12]
 8004352:	68fa      	ldr	r2, [r7, #12]
 8004354:	4313      	orrs	r3, r2
 8004356:	60fb      	str	r3, [r7, #12]
 8004358:	68fb      	ldr	r3, [r7, #12]
 800435a:	f023 0280 	bic.w	r2, r3, #128	@ 0x80
 800435e:	683b      	ldr	r3, [r7, #0]
 8004360:	695b      	ldr	r3, [r3, #20]
 8004362:	4313      	orrs	r3, r2
 8004364:	60fb      	str	r3, [r7, #12]
 8004366:	687b      	ldr	r3, [r7, #4]
 8004368:	68fa      	ldr	r2, [r7, #12]
 800436a:	601a      	str	r2, [r3, #0]
 800436c:	683b      	ldr	r3, [r7, #0]
 800436e:	689a      	ldr	r2, [r3, #8]
 8004370:	687b      	ldr	r3, [r7, #4]
 8004372:	62da      	str	r2, [r3, #44]	@ 0x2c
 8004374:	683b      	ldr	r3, [r7, #0]
 8004376:	681a      	ldr	r2, [r3, #0]
 8004378:	687b      	ldr	r3, [r7, #4]
 800437a:	629a      	str	r2, [r3, #40]	@ 0x28
 800437c:	687b      	ldr	r3, [r7, #4]
 800437e:	4a16      	ldr	r2, [pc, #88]	@ (80043d8 <TIM_Base_SetConfig+0x12c>)
 8004380:	4293      	cmp	r3, r2
 8004382:	d00f      	beq.n	80043a4 <TIM_Base_SetConfig+0xf8>
 8004384:	687b      	ldr	r3, [r7, #4]
 8004386:	4a18      	ldr	r2, [pc, #96]	@ (80043e8 <TIM_Base_SetConfig+0x13c>)
 8004388:	4293      	cmp	r3, r2
 800438a:	d00b      	beq.n	80043a4 <TIM_Base_SetConfig+0xf8>
 800438c:	687b      	ldr	r3, [r7, #4]
 800438e:	4a17      	ldr	r2, [pc, #92]	@ (80043ec <TIM_Base_SetConfig+0x140>)
 8004390:	4293      	cmp	r3, r2
 8004392:	d007      	beq.n	80043a4 <TIM_Base_SetConfig+0xf8>
 8004394:	687b      	ldr	r3, [r7, #4]
 8004396:	4a16      	ldr	r2, [pc, #88]	@ (80043f0 <TIM_Base_SetConfig+0x144>)
 8004398:	4293      	cmp	r3, r2
 800439a:	d003      	beq.n	80043a4 <TIM_Base_SetConfig+0xf8>
 800439c:	687b      	ldr	r3, [r7, #4]
 800439e:	4a15      	ldr	r2, [pc, #84]	@ (80043f4 <TIM_Base_SetConfig+0x148>)
 80043a0:	4293      	cmp	r3, r2
 80043a2:	d103      	bne.n	80043ac <TIM_Base_SetConfig+0x100>
 80043a4:	683b      	ldr	r3, [r7, #0]
 80043a6:	691a      	ldr	r2, [r3, #16]
 80043a8:	687b      	ldr	r3, [r7, #4]
 80043aa:	631a      	str	r2, [r3, #48]	@ 0x30
 80043ac:	687b      	ldr	r3, [r7, #4]
 80043ae:	2201      	movs	r2, #1
 80043b0:	615a      	str	r2, [r3, #20]
 80043b2:	687b      	ldr	r3, [r7, #4]
 80043b4:	691b      	ldr	r3, [r3, #16]
 80043b6:	f003 0301 	and.w	r3, r3, #1
 80043ba:	2b01      	cmp	r3, #1
 80043bc:	d105      	bne.n	80043ca <TIM_Base_SetConfig+0x11e>
 80043be:	687b      	ldr	r3, [r7, #4]
 80043c0:	691b      	ldr	r3, [r3, #16]
 80043c2:	f023 0201 	bic.w	r2, r3, #1
 80043c6:	687b      	ldr	r3, [r7, #4]
 80043c8:	611a      	str	r2, [r3, #16]
 80043ca:	bf00      	nop
 80043cc:	3714      	adds	r7, #20
 80043ce:	46bd      	mov	sp, r7
 80043d0:	f85d 7b04 	ldr.w	r7, [sp], #4
 80043d4:	4770      	bx	lr
 80043d6:	bf00      	nop
 80043d8:	40012c00 	.word	0x40012c00
 80043dc:	40000400 	.word	0x40000400
 80043e0:	40000800 	.word	0x40000800
 80043e4:	40000c00 	.word	0x40000c00
 80043e8:	40013400 	.word	0x40013400
 80043ec:	40014000 	.word	0x40014000
 80043f0:	40014400 	.word	0x40014400
 80043f4:	40014800 	.word	0x40014800

080043f8 <HAL_TIMEx_CommutCallback>:
 80043f8:	b480      	push	{r7}
 80043fa:	b083      	sub	sp, #12
 80043fc:	af00      	add	r7, sp, #0
 80043fe:	6078      	str	r0, [r7, #4]
 8004400:	bf00      	nop
 8004402:	370c      	adds	r7, #12
 8004404:	46bd      	mov	sp, r7
 8004406:	f85d 7b04 	ldr.w	r7, [sp], #4
 800440a:	4770      	bx	lr

0800440c <HAL_TIMEx_BreakCallback>:
 800440c:	b480      	push	{r7}
 800440e:	b083      	sub	sp, #12
 8004410:	af00      	add	r7, sp, #0
 8004412:	6078      	str	r0, [r7, #4]
 8004414:	bf00      	nop
 8004416:	370c      	adds	r7, #12
 8004418:	46bd      	mov	sp, r7
 800441a:	f85d 7b04 	ldr.w	r7, [sp], #4
 800441e:	4770      	bx	lr

08004420 <HAL_TIMEx_Break2Callback>:
 8004420:	b480      	push	{r7}
 8004422:	b083      	sub	sp, #12
 8004424:	af00      	add	r7, sp, #0
 8004426:	6078      	str	r0, [r7, #4]
 8004428:	bf00      	nop
 800442a:	370c      	adds	r7, #12
 800442c:	46bd      	mov	sp, r7
 800442e:	f85d 7b04 	ldr.w	r7, [sp], #4
 8004432:	4770      	bx	lr

08004434 <HAL_UART_Init>:
 8004434:	b580      	push	{r7, lr}
 8004436:	b082      	sub	sp, #8
 8004438:	af00      	add	r7, sp, #0
 800443a:	6078      	str	r0, [r7, #4]
 800443c:	687b      	ldr	r3, [r7, #4]
 800443e:	2b00      	cmp	r3, #0
 8004440:	d101      	bne.n	8004446 <HAL_UART_Init+0x12>
 8004442:	2301      	movs	r3, #1
 8004444:	e040      	b.n	80044c8 <HAL_UART_Init+0x94>
 8004446:	687b      	ldr	r3, [r7, #4]
 8004448:	6fdb      	ldr	r3, [r3, #124]	@ 0x7c
 800444a:	2b00      	cmp	r3, #0
 800444c:	d106      	bne.n	800445c <HAL_UART_Init+0x28>
 800444e:	687b      	ldr	r3, [r7, #4]
 8004450:	2200      	movs	r2, #0
 8004452:	f883 2078 	strb.w	r2, [r3, #120]	@ 0x78
 8004456:	6878      	ldr	r0, [r7, #4]
 8004458:	f7fd f822 	bl	80014a0 <HAL_UART_MspInit>
 800445c:	687b      	ldr	r3, [r7, #4]
 800445e:	2224      	movs	r2, #36	@ 0x24
 8004460:	67da      	str	r2, [r3, #124]	@ 0x7c
 8004462:	687b      	ldr	r3, [r7, #4]
 8004464:	681b      	ldr	r3, [r3, #0]
 8004466:	681a      	ldr	r2, [r3, #0]
 8004468:	687b      	ldr	r3, [r7, #4]
 800446a:	681b      	ldr	r3, [r3, #0]
 800446c:	f022 0201 	bic.w	r2, r2, #1
 8004470:	601a      	str	r2, [r3, #0]
 8004472:	687b      	ldr	r3, [r7, #4]
 8004474:	6a5b      	ldr	r3, [r3, #36]	@ 0x24
 8004476:	2b00      	cmp	r3, #0
 8004478:	d002      	beq.n	8004480 <HAL_UART_Init+0x4c>
 800447a:	6878      	ldr	r0, [r7, #4]
 800447c:	f000 ff58 	bl	8005330 <UART_AdvFeatureConfig>
 8004480:	6878      	ldr	r0, [r7, #4]
 8004482:	f000 fc9d 	bl	8004dc0 <UART_SetConfig>
 8004486:	4603      	mov	r3, r0
 8004488:	2b01      	cmp	r3, #1
 800448a:	d101      	bne.n	8004490 <HAL_UART_Init+0x5c>
 800448c:	2301      	movs	r3, #1
 800448e:	e01b      	b.n	80044c8 <HAL_UART_Init+0x94>
 8004490:	687b      	ldr	r3, [r7, #4]
 8004492:	681b      	ldr	r3, [r3, #0]
 8004494:	685a      	ldr	r2, [r3, #4]
 8004496:	687b      	ldr	r3, [r7, #4]
 8004498:	681b      	ldr	r3, [r3, #0]
 800449a:	f422 4290 	bic.w	r2, r2, #18432	@ 0x4800
 800449e:	605a      	str	r2, [r3, #4]
 80044a0:	687b      	ldr	r3, [r7, #4]
 80044a2:	681b      	ldr	r3, [r3, #0]
 80044a4:	689a      	ldr	r2, [r3, #8]
 80044a6:	687b      	ldr	r3, [r7, #4]
 80044a8:	681b      	ldr	r3, [r3, #0]
 80044aa:	f022 022a 	bic.w	r2, r2, #42	@ 0x2a
 80044ae:	609a      	str	r2, [r3, #8]
 80044b0:	687b      	ldr	r3, [r7, #4]
 80044b2:	681b      	ldr	r3, [r3, #0]
 80044b4:	681a      	ldr	r2, [r3, #0]
 80044b6:	687b      	ldr	r3, [r7, #4]
 80044b8:	681b      	ldr	r3, [r3, #0]
 80044ba:	f042 0201 	orr.w	r2, r2, #1
 80044be:	601a      	str	r2, [r3, #0]
 80044c0:	6878      	ldr	r0, [r7, #4]
 80044c2:	f000 ffd7 	bl	8005474 <UART_CheckIdleState>
 80044c6:	4603      	mov	r3, r0
 80044c8:	4618      	mov	r0, r3
 80044ca:	3708      	adds	r7, #8
 80044cc:	46bd      	mov	sp, r7
 80044ce:	bd80      	pop	{r7, pc}

080044d0 <HAL_UART_Transmit>:
 80044d0:	b580      	push	{r7, lr}
 80044d2:	b08a      	sub	sp, #40	@ 0x28
 80044d4:	af02      	add	r7, sp, #8
 80044d6:	60f8      	str	r0, [r7, #12]
 80044d8:	60b9      	str	r1, [r7, #8]
 80044da:	603b      	str	r3, [r7, #0]
 80044dc:	4613      	mov	r3, r2
 80044de:	80fb      	strh	r3, [r7, #6]
 80044e0:	68fb      	ldr	r3, [r7, #12]
 80044e2:	6fdb      	ldr	r3, [r3, #124]	@ 0x7c
 80044e4:	2b20      	cmp	r3, #32
 80044e6:	d177      	bne.n	80045d8 <HAL_UART_Transmit+0x108>
 80044e8:	68bb      	ldr	r3, [r7, #8]
 80044ea:	2b00      	cmp	r3, #0
 80044ec:	d002      	beq.n	80044f4 <HAL_UART_Transmit+0x24>
 80044ee:	88fb      	ldrh	r3, [r7, #6]
 80044f0:	2b00      	cmp	r3, #0
 80044f2:	d101      	bne.n	80044f8 <HAL_UART_Transmit+0x28>
 80044f4:	2301      	movs	r3, #1
 80044f6:	e070      	b.n	80045da <HAL_UART_Transmit+0x10a>
 80044f8:	68fb      	ldr	r3, [r7, #12]
 80044fa:	2200      	movs	r2, #0
 80044fc:	f8c3 2084 	str.w	r2, [r3, #132]	@ 0x84
 8004500:	68fb      	ldr	r3, [r7, #12]
 8004502:	2221      	movs	r2, #33	@ 0x21
 8004504:	67da      	str	r2, [r3, #124]	@ 0x7c
 8004506:	f7fd f88d 	bl	8001624 <HAL_GetTick>
 800450a:	6178      	str	r0, [r7, #20]
 800450c:	68fb      	ldr	r3, [r7, #12]
 800450e:	88fa      	ldrh	r2, [r7, #6]
 8004510:	f8a3 2050 	strh.w	r2, [r3, #80]	@ 0x50
 8004514:	68fb      	ldr	r3, [r7, #12]
 8004516:	88fa      	ldrh	r2, [r7, #6]
 8004518:	f8a3 2052 	strh.w	r2, [r3, #82]	@ 0x52
 800451c:	68fb      	ldr	r3, [r7, #12]
 800451e:	689b      	ldr	r3, [r3, #8]
 8004520:	f5b3 5f80 	cmp.w	r3, #4096	@ 0x1000
 8004524:	d108      	bne.n	8004538 <HAL_UART_Transmit+0x68>
 8004526:	68fb      	ldr	r3, [r7, #12]
 8004528:	691b      	ldr	r3, [r3, #16]
 800452a:	2b00      	cmp	r3, #0
 800452c:	d104      	bne.n	8004538 <HAL_UART_Transmit+0x68>
 800452e:	2300      	movs	r3, #0
 8004530:	61fb      	str	r3, [r7, #28]
 8004532:	68bb      	ldr	r3, [r7, #8]
 8004534:	61bb      	str	r3, [r7, #24]
 8004536:	e003      	b.n	8004540 <HAL_UART_Transmit+0x70>
 8004538:	68bb      	ldr	r3, [r7, #8]
 800453a:	61fb      	str	r3, [r7, #28]
 800453c:	2300      	movs	r3, #0
 800453e:	61bb      	str	r3, [r7, #24]
 8004540:	e02f      	b.n	80045a2 <HAL_UART_Transmit+0xd2>
 8004542:	683b      	ldr	r3, [r7, #0]
 8004544:	9300      	str	r3, [sp, #0]
 8004546:	697b      	ldr	r3, [r7, #20]
 8004548:	2200      	movs	r2, #0
 800454a:	2180      	movs	r1, #128	@ 0x80
 800454c:	68f8      	ldr	r0, [r7, #12]
 800454e:	f001 f839 	bl	80055c4 <UART_WaitOnFlagUntilTimeout>
 8004552:	4603      	mov	r3, r0
 8004554:	2b00      	cmp	r3, #0
 8004556:	d004      	beq.n	8004562 <HAL_UART_Transmit+0x92>
 8004558:	68fb      	ldr	r3, [r7, #12]
 800455a:	2220      	movs	r2, #32
 800455c:	67da      	str	r2, [r3, #124]	@ 0x7c
 800455e:	2303      	movs	r3, #3
 8004560:	e03b      	b.n	80045da <HAL_UART_Transmit+0x10a>
 8004562:	69fb      	ldr	r3, [r7, #28]
 8004564:	2b00      	cmp	r3, #0
 8004566:	d10b      	bne.n	8004580 <HAL_UART_Transmit+0xb0>
 8004568:	69bb      	ldr	r3, [r7, #24]
 800456a:	881a      	ldrh	r2, [r3, #0]
 800456c:	68fb      	ldr	r3, [r7, #12]
 800456e:	681b      	ldr	r3, [r3, #0]
 8004570:	f3c2 0208 	ubfx	r2, r2, #0, #9
 8004574:	b292      	uxth	r2, r2
 8004576:	851a      	strh	r2, [r3, #40]	@ 0x28
 8004578:	69bb      	ldr	r3, [r7, #24]
 800457a:	3302      	adds	r3, #2
 800457c:	61bb      	str	r3, [r7, #24]
 800457e:	e007      	b.n	8004590 <HAL_UART_Transmit+0xc0>
 8004580:	69fb      	ldr	r3, [r7, #28]
 8004582:	781a      	ldrb	r2, [r3, #0]
 8004584:	68fb      	ldr	r3, [r7, #12]
 8004586:	681b      	ldr	r3, [r3, #0]
 8004588:	851a      	strh	r2, [r3, #40]	@ 0x28
 800458a:	69fb      	ldr	r3, [r7, #28]
 800458c:	3301      	adds	r3, #1
 800458e:	61fb      	str	r3, [r7, #28]
 8004590:	68fb      	ldr	r3, [r7, #12]
 8004592:	f8b3 3052 	ldrh.w	r3, [r3, #82]	@ 0x52
 8004596:	b29b      	uxth	r3, r3
 8004598:	3b01      	subs	r3, #1
 800459a:	b29a      	uxth	r2, r3
 800459c:	68fb      	ldr	r3, [r7, #12]
 800459e:	f8a3 2052 	strh.w	r2, [r3, #82]	@ 0x52
 80045a2:	68fb      	ldr	r3, [r7, #12]
 80045a4:	f8b3 3052 	ldrh.w	r3, [r3, #82]	@ 0x52
 80045a8:	b29b      	uxth	r3, r3
 80045aa:	2b00      	cmp	r3, #0
 80045ac:	d1c9      	bne.n	8004542 <HAL_UART_Transmit+0x72>
 80045ae:	683b      	ldr	r3, [r7, #0]
 80045b0:	9300      	str	r3, [sp, #0]
 80045b2:	697b      	ldr	r3, [r7, #20]
 80045b4:	2200      	movs	r2, #0
 80045b6:	2140      	movs	r1, #64	@ 0x40
 80045b8:	68f8      	ldr	r0, [r7, #12]
 80045ba:	f001 f803 	bl	80055c4 <UART_WaitOnFlagUntilTimeout>
 80045be:	4603      	mov	r3, r0
 80045c0:	2b00      	cmp	r3, #0
 80045c2:	d004      	beq.n	80045ce <HAL_UART_Transmit+0xfe>
 80045c4:	68fb      	ldr	r3, [r7, #12]
 80045c6:	2220      	movs	r2, #32
 80045c8:	67da      	str	r2, [r3, #124]	@ 0x7c
 80045ca:	2303      	movs	r3, #3
 80045cc:	e005      	b.n	80045da <HAL_UART_Transmit+0x10a>
 80045ce:	68fb      	ldr	r3, [r7, #12]
 80045d0:	2220      	movs	r2, #32
 80045d2:	67da      	str	r2, [r3, #124]	@ 0x7c
 80045d4:	2300      	movs	r3, #0
 80045d6:	e000      	b.n	80045da <HAL_UART_Transmit+0x10a>
 80045d8:	2302      	movs	r3, #2
 80045da:	4618      	mov	r0, r3
 80045dc:	3720      	adds	r7, #32
 80045de:	46bd      	mov	sp, r7
 80045e0:	bd80      	pop	{r7, pc}

080045e2 <HAL_UART_Receive>:
 80045e2:	b580      	push	{r7, lr}
 80045e4:	b08a      	sub	sp, #40	@ 0x28
 80045e6:	af02      	add	r7, sp, #8
 80045e8:	60f8      	str	r0, [r7, #12]
 80045ea:	60b9      	str	r1, [r7, #8]
 80045ec:	603b      	str	r3, [r7, #0]
 80045ee:	4613      	mov	r3, r2
 80045f0:	80fb      	strh	r3, [r7, #6]
 80045f2:	68fb      	ldr	r3, [r7, #12]
 80045f4:	f8d3 3080 	ldr.w	r3, [r3, #128]	@ 0x80
 80045f8:	2b20      	cmp	r3, #32
 80045fa:	f040 80b6 	bne.w	800476a <HAL_UART_Receive+0x188>
 80045fe:	68bb      	ldr	r3, [r7, #8]
 8004600:	2b00      	cmp	r3, #0
 8004602:	d002      	beq.n	800460a <HAL_UART_Receive+0x28>
 8004604:	88fb      	ldrh	r3, [r7, #6]
 8004606:	2b00      	cmp	r3, #0
 8004608:	d101      	bne.n	800460e <HAL_UART_Receive+0x2c>
 800460a:	2301      	movs	r3, #1
 800460c:	e0ae      	b.n	800476c <HAL_UART_Receive+0x18a>
 800460e:	68fb      	ldr	r3, [r7, #12]
 8004610:	2200      	movs	r2, #0
 8004612:	f8c3 2084 	str.w	r2, [r3, #132]	@ 0x84
 8004616:	68fb      	ldr	r3, [r7, #12]
 8004618:	2222      	movs	r2, #34	@ 0x22
 800461a:	f8c3 2080 	str.w	r2, [r3, #128]	@ 0x80
 800461e:	68fb      	ldr	r3, [r7, #12]
 8004620:	2200      	movs	r2, #0
 8004622:	661a      	str	r2, [r3, #96]	@ 0x60
 8004624:	f7fc fffe 	bl	8001624 <HAL_GetTick>
 8004628:	6178      	str	r0, [r7, #20]
 800462a:	68fb      	ldr	r3, [r7, #12]
 800462c:	88fa      	ldrh	r2, [r7, #6]
 800462e:	f8a3 2058 	strh.w	r2, [r3, #88]	@ 0x58
 8004632:	68fb      	ldr	r3, [r7, #12]
 8004634:	88fa      	ldrh	r2, [r7, #6]
 8004636:	f8a3 205a 	strh.w	r2, [r3, #90]	@ 0x5a
 800463a:	68fb      	ldr	r3, [r7, #12]
 800463c:	689b      	ldr	r3, [r3, #8]
 800463e:	f5b3 5f80 	cmp.w	r3, #4096	@ 0x1000
 8004642:	d10e      	bne.n	8004662 <HAL_UART_Receive+0x80>
 8004644:	68fb      	ldr	r3, [r7, #12]
 8004646:	691b      	ldr	r3, [r3, #16]
 8004648:	2b00      	cmp	r3, #0
 800464a:	d105      	bne.n	8004658 <HAL_UART_Receive+0x76>
 800464c:	68fb      	ldr	r3, [r7, #12]
 800464e:	f240 12ff 	movw	r2, #511	@ 0x1ff
 8004652:	f8a3 205c 	strh.w	r2, [r3, #92]	@ 0x5c
 8004656:	e02d      	b.n	80046b4 <HAL_UART_Receive+0xd2>
 8004658:	68fb      	ldr	r3, [r7, #12]
 800465a:	22ff      	movs	r2, #255	@ 0xff
 800465c:	f8a3 205c 	strh.w	r2, [r3, #92]	@ 0x5c
 8004660:	e028      	b.n	80046b4 <HAL_UART_Receive+0xd2>
 8004662:	68fb      	ldr	r3, [r7, #12]
 8004664:	689b      	ldr	r3, [r3, #8]
 8004666:	2b00      	cmp	r3, #0
 8004668:	d10d      	bne.n	8004686 <HAL_UART_Receive+0xa4>
 800466a:	68fb      	ldr	r3, [r7, #12]
 800466c:	691b      	ldr	r3, [r3, #16]
 800466e:	2b00      	cmp	r3, #0
 8004670:	d104      	bne.n	800467c <HAL_UART_Receive+0x9a>
 8004672:	68fb      	ldr	r3, [r7, #12]
 8004674:	22ff      	movs	r2, #255	@ 0xff
 8004676:	f8a3 205c 	strh.w	r2, [r3, #92]	@ 0x5c
 800467a:	e01b      	b.n	80046b4 <HAL_UART_Receive+0xd2>
 800467c:	68fb      	ldr	r3, [r7, #12]
 800467e:	227f      	movs	r2, #127	@ 0x7f
 8004680:	f8a3 205c 	strh.w	r2, [r3, #92]	@ 0x5c
 8004684:	e016      	b.n	80046b4 <HAL_UART_Receive+0xd2>
 8004686:	68fb      	ldr	r3, [r7, #12]
 8004688:	689b      	ldr	r3, [r3, #8]
 800468a:	f1b3 5f80 	cmp.w	r3, #268435456	@ 0x10000000
 800468e:	d10d      	bne.n	80046ac <HAL_UART_Receive+0xca>
 8004690:	68fb      	ldr	r3, [r7, #12]
 8004692:	691b      	ldr	r3, [r3, #16]
 8004694:	2b00      	cmp	r3, #0
 8004696:	d104      	bne.n	80046a2 <HAL_UART_Receive+0xc0>
 8004698:	68fb      	ldr	r3, [r7, #12]
 800469a:	227f      	movs	r2, #127	@ 0x7f
 800469c:	f8a3 205c 	strh.w	r2, [r3, #92]	@ 0x5c
 80046a0:	e008      	b.n	80046b4 <HAL_UART_Receive+0xd2>
 80046a2:	68fb      	ldr	r3, [r7, #12]
 80046a4:	223f      	movs	r2, #63	@ 0x3f
 80046a6:	f8a3 205c 	strh.w	r2, [r3, #92]	@ 0x5c
 80046aa:	e003      	b.n	80046b4 <HAL_UART_Receive+0xd2>
 80046ac:	68fb      	ldr	r3, [r7, #12]
 80046ae:	2200      	movs	r2, #0
 80046b0:	f8a3 205c 	strh.w	r2, [r3, #92]	@ 0x5c
 80046b4:	68fb      	ldr	r3, [r7, #12]
 80046b6:	f8b3 305c 	ldrh.w	r3, [r3, #92]	@ 0x5c
 80046ba:	827b      	strh	r3, [r7, #18]
 80046bc:	68fb      	ldr	r3, [r7, #12]
 80046be:	689b      	ldr	r3, [r3, #8]
 80046c0:	f5b3 5f80 	cmp.w	r3, #4096	@ 0x1000
 80046c4:	d108      	bne.n	80046d8 <HAL_UART_Receive+0xf6>
 80046c6:	68fb      	ldr	r3, [r7, #12]
 80046c8:	691b      	ldr	r3, [r3, #16]
 80046ca:	2b00      	cmp	r3, #0
 80046cc:	d104      	bne.n	80046d8 <HAL_UART_Receive+0xf6>
 80046ce:	2300      	movs	r3, #0
 80046d0:	61fb      	str	r3, [r7, #28]
 80046d2:	68bb      	ldr	r3, [r7, #8]
 80046d4:	61bb      	str	r3, [r7, #24]
 80046d6:	e003      	b.n	80046e0 <HAL_UART_Receive+0xfe>
 80046d8:	68bb      	ldr	r3, [r7, #8]
 80046da:	61fb      	str	r3, [r7, #28]
 80046dc:	2300      	movs	r3, #0
 80046de:	61bb      	str	r3, [r7, #24]
 80046e0:	e037      	b.n	8004752 <HAL_UART_Receive+0x170>
 80046e2:	683b      	ldr	r3, [r7, #0]
 80046e4:	9300      	str	r3, [sp, #0]
 80046e6:	697b      	ldr	r3, [r7, #20]
 80046e8:	2200      	movs	r2, #0
 80046ea:	2120      	movs	r1, #32
 80046ec:	68f8      	ldr	r0, [r7, #12]
 80046ee:	f000 ff69 	bl	80055c4 <UART_WaitOnFlagUntilTimeout>
 80046f2:	4603      	mov	r3, r0
 80046f4:	2b00      	cmp	r3, #0
 80046f6:	d005      	beq.n	8004704 <HAL_UART_Receive+0x122>
 80046f8:	68fb      	ldr	r3, [r7, #12]
 80046fa:	2220      	movs	r2, #32
 80046fc:	f8c3 2080 	str.w	r2, [r3, #128]	@ 0x80
 8004700:	2303      	movs	r3, #3
 8004702:	e033      	b.n	800476c <HAL_UART_Receive+0x18a>
 8004704:	69fb      	ldr	r3, [r7, #28]
 8004706:	2b00      	cmp	r3, #0
 8004708:	d10c      	bne.n	8004724 <HAL_UART_Receive+0x142>
 800470a:	68fb      	ldr	r3, [r7, #12]
 800470c:	681b      	ldr	r3, [r3, #0]
 800470e:	8c9b      	ldrh	r3, [r3, #36]	@ 0x24
 8004710:	b29a      	uxth	r2, r3
 8004712:	8a7b      	ldrh	r3, [r7, #18]
 8004714:	4013      	ands	r3, r2
 8004716:	b29a      	uxth	r2, r3
 8004718:	69bb      	ldr	r3, [r7, #24]
 800471a:	801a      	strh	r2, [r3, #0]
 800471c:	69bb      	ldr	r3, [r7, #24]
 800471e:	3302      	adds	r3, #2
 8004720:	61bb      	str	r3, [r7, #24]
 8004722:	e00d      	b.n	8004740 <HAL_UART_Receive+0x15e>
 8004724:	68fb      	ldr	r3, [r7, #12]
 8004726:	681b      	ldr	r3, [r3, #0]
 8004728:	8c9b      	ldrh	r3, [r3, #36]	@ 0x24
 800472a:	b29b      	uxth	r3, r3
 800472c:	b2da      	uxtb	r2, r3
 800472e:	8a7b      	ldrh	r3, [r7, #18]
 8004730:	b2db      	uxtb	r3, r3
 8004732:	4013      	ands	r3, r2
 8004734:	b2da      	uxtb	r2, r3
 8004736:	69fb      	ldr	r3, [r7, #28]
 8004738:	701a      	strb	r2, [r3, #0]
 800473a:	69fb      	ldr	r3, [r7, #28]
 800473c:	3301      	adds	r3, #1
 800473e:	61fb      	str	r3, [r7, #28]
 8004740:	68fb      	ldr	r3, [r7, #12]
 8004742:	f8b3 305a 	ldrh.w	r3, [r3, #90]	@ 0x5a
 8004746:	b29b      	uxth	r3, r3
 8004748:	3b01      	subs	r3, #1
 800474a:	b29a      	uxth	r2, r3
 800474c:	68fb      	ldr	r3, [r7, #12]
 800474e:	f8a3 205a 	strh.w	r2, [r3, #90]	@ 0x5a
 8004752:	68fb      	ldr	r3, [r7, #12]
 8004754:	f8b3 305a 	ldrh.w	r3, [r3, #90]	@ 0x5a
 8004758:	b29b      	uxth	r3, r3
 800475a:	2b00      	cmp	r3, #0
 800475c:	d1c1      	bne.n	80046e2 <HAL_UART_Receive+0x100>
 800475e:	68fb      	ldr	r3, [r7, #12]
 8004760:	2220      	movs	r2, #32
 8004762:	f8c3 2080 	str.w	r2, [r3, #128]	@ 0x80
 8004766:	2300      	movs	r3, #0
 8004768:	e000      	b.n	800476c <HAL_UART_Receive+0x18a>
 800476a:	2302      	movs	r3, #2
 800476c:	4618      	mov	r0, r3
 800476e:	3720      	adds	r7, #32
 8004770:	46bd      	mov	sp, r7
 8004772:	bd80      	pop	{r7, pc}

08004774 <HAL_UART_IRQHandler>:
 8004774:	b580      	push	{r7, lr}
 8004776:	b0ba      	sub	sp, #232	@ 0xe8
 8004778:	af00      	add	r7, sp, #0
 800477a:	6078      	str	r0, [r7, #4]
 800477c:	687b      	ldr	r3, [r7, #4]
 800477e:	681b      	ldr	r3, [r3, #0]
 8004780:	69db      	ldr	r3, [r3, #28]
 8004782:	f8c7 30e4 	str.w	r3, [r7, #228]	@ 0xe4
 8004786:	687b      	ldr	r3, [r7, #4]
 8004788:	681b      	ldr	r3, [r3, #0]
 800478a:	681b      	ldr	r3, [r3, #0]
 800478c:	f8c7 30e0 	str.w	r3, [r7, #224]	@ 0xe0
 8004790:	687b      	ldr	r3, [r7, #4]
 8004792:	681b      	ldr	r3, [r3, #0]
 8004794:	689b      	ldr	r3, [r3, #8]
 8004796:	f8c7 30dc 	str.w	r3, [r7, #220]	@ 0xdc
 800479a:	f8d7 20e4 	ldr.w	r2, [r7, #228]	@ 0xe4
 800479e:	f640 030f 	movw	r3, #2063	@ 0x80f
 80047a2:	4013      	ands	r3, r2
 80047a4:	f8c7 30d8 	str.w	r3, [r7, #216]	@ 0xd8
 80047a8:	f8d7 30d8 	ldr.w	r3, [r7, #216]	@ 0xd8
 80047ac:	2b00      	cmp	r3, #0
 80047ae:	d115      	bne.n	80047dc <HAL_UART_IRQHandler+0x68>
 80047b0:	f8d7 30e4 	ldr.w	r3, [r7, #228]	@ 0xe4
 80047b4:	f003 0320 	and.w	r3, r3, #32
 80047b8:	2b00      	cmp	r3, #0
 80047ba:	d00f      	beq.n	80047dc <HAL_UART_IRQHandler+0x68>
 80047bc:	f8d7 30e0 	ldr.w	r3, [r7, #224]	@ 0xe0
 80047c0:	f003 0320 	and.w	r3, r3, #32
 80047c4:	2b00      	cmp	r3, #0
 80047c6:	d009      	beq.n	80047dc <HAL_UART_IRQHandler+0x68>
 80047c8:	687b      	ldr	r3, [r7, #4]
 80047ca:	6e9b      	ldr	r3, [r3, #104]	@ 0x68
 80047cc:	2b00      	cmp	r3, #0
 80047ce:	f000 82ca 	beq.w	8004d66 <HAL_UART_IRQHandler+0x5f2>
 80047d2:	687b      	ldr	r3, [r7, #4]
 80047d4:	6e9b      	ldr	r3, [r3, #104]	@ 0x68
 80047d6:	6878      	ldr	r0, [r7, #4]
 80047d8:	4798      	blx	r3
 80047da:	e2c4      	b.n	8004d66 <HAL_UART_IRQHandler+0x5f2>
 80047dc:	f8d7 30d8 	ldr.w	r3, [r7, #216]	@ 0xd8
 80047e0:	2b00      	cmp	r3, #0
 80047e2:	f000 8117 	beq.w	8004a14 <HAL_UART_IRQHandler+0x2a0>
 80047e6:	f8d7 30dc 	ldr.w	r3, [r7, #220]	@ 0xdc
 80047ea:	f003 0301 	and.w	r3, r3, #1
 80047ee:	2b00      	cmp	r3, #0
 80047f0:	d106      	bne.n	8004800 <HAL_UART_IRQHandler+0x8c>
 80047f2:	f8d7 20e0 	ldr.w	r2, [r7, #224]	@ 0xe0
 80047f6:	4b85      	ldr	r3, [pc, #532]	@ (8004a0c <HAL_UART_IRQHandler+0x298>)
 80047f8:	4013      	ands	r3, r2
 80047fa:	2b00      	cmp	r3, #0
 80047fc:	f000 810a 	beq.w	8004a14 <HAL_UART_IRQHandler+0x2a0>
 8004800:	f8d7 30e4 	ldr.w	r3, [r7, #228]	@ 0xe4
 8004804:	f003 0301 	and.w	r3, r3, #1
 8004808:	2b00      	cmp	r3, #0
 800480a:	d011      	beq.n	8004830 <HAL_UART_IRQHandler+0xbc>
 800480c:	f8d7 30e0 	ldr.w	r3, [r7, #224]	@ 0xe0
 8004810:	f403 7380 	and.w	r3, r3, #256	@ 0x100
 8004814:	2b00      	cmp	r3, #0
 8004816:	d00b      	beq.n	8004830 <HAL_UART_IRQHandler+0xbc>
 8004818:	687b      	ldr	r3, [r7, #4]
 800481a:	681b      	ldr	r3, [r3, #0]
 800481c:	2201      	movs	r2, #1
 800481e:	621a      	str	r2, [r3, #32]
 8004820:	687b      	ldr	r3, [r7, #4]
 8004822:	f8d3 3084 	ldr.w	r3, [r3, #132]	@ 0x84
 8004826:	f043 0201 	orr.w	r2, r3, #1
 800482a:	687b      	ldr	r3, [r7, #4]
 800482c:	f8c3 2084 	str.w	r2, [r3, #132]	@ 0x84
 8004830:	f8d7 30e4 	ldr.w	r3, [r7, #228]	@ 0xe4
 8004834:	f003 0302 	and.w	r3, r3, #2
 8004838:	2b00      	cmp	r3, #0
 800483a:	d011      	beq.n	8004860 <HAL_UART_IRQHandler+0xec>
 800483c:	f8d7 30dc 	ldr.w	r3, [r7, #220]	@ 0xdc
 8004840:	f003 0301 	and.w	r3, r3, #1
 8004844:	2b00      	cmp	r3, #0
 8004846:	d00b      	beq.n	8004860 <HAL_UART_IRQHandler+0xec>
 8004848:	687b      	ldr	r3, [r7, #4]
 800484a:	681b      	ldr	r3, [r3, #0]
 800484c:	2202      	movs	r2, #2
 800484e:	621a      	str	r2, [r3, #32]
 8004850:	687b      	ldr	r3, [r7, #4]
 8004852:	f8d3 3084 	ldr.w	r3, [r3, #132]	@ 0x84
 8004856:	f043 0204 	orr.w	r2, r3, #4
 800485a:	687b      	ldr	r3, [r7, #4]
 800485c:	f8c3 2084 	str.w	r2, [r3, #132]	@ 0x84
 8004860:	f8d7 30e4 	ldr.w	r3, [r7, #228]	@ 0xe4
 8004864:	f003 0304 	and.w	r3, r3, #4
 8004868:	2b00      	cmp	r3, #0
 800486a:	d011      	beq.n	8004890 <HAL_UART_IRQHandler+0x11c>
 800486c:	f8d7 30dc 	ldr.w	r3, [r7, #220]	@ 0xdc
 8004870:	f003 0301 	and.w	r3, r3, #1
 8004874:	2b00      	cmp	r3, #0
 8004876:	d00b      	beq.n	8004890 <HAL_UART_IRQHandler+0x11c>
 8004878:	687b      	ldr	r3, [r7, #4]
 800487a:	681b      	ldr	r3, [r3, #0]
 800487c:	2204      	movs	r2, #4
 800487e:	621a      	str	r2, [r3, #32]
 8004880:	687b      	ldr	r3, [r7, #4]
 8004882:	f8d3 3084 	ldr.w	r3, [r3, #132]	@ 0x84
 8004886:	f043 0202 	orr.w	r2, r3, #2
 800488a:	687b      	ldr	r3, [r7, #4]
 800488c:	f8c3 2084 	str.w	r2, [r3, #132]	@ 0x84
 8004890:	f8d7 30e4 	ldr.w	r3, [r7, #228]	@ 0xe4
 8004894:	f003 0308 	and.w	r3, r3, #8
 8004898:	2b00      	cmp	r3, #0
 800489a:	d017      	beq.n	80048cc <HAL_UART_IRQHandler+0x158>
 800489c:	f8d7 30e0 	ldr.w	r3, [r7, #224]	@ 0xe0
 80048a0:	f003 0320 	and.w	r3, r3, #32
 80048a4:	2b00      	cmp	r3, #0
 80048a6:	d105      	bne.n	80048b4 <HAL_UART_IRQHandler+0x140>
 80048a8:	f8d7 30dc 	ldr.w	r3, [r7, #220]	@ 0xdc
 80048ac:	f003 0301 	and.w	r3, r3, #1
 80048b0:	2b00      	cmp	r3, #0
 80048b2:	d00b      	beq.n	80048cc <HAL_UART_IRQHandler+0x158>
 80048b4:	687b      	ldr	r3, [r7, #4]
 80048b6:	681b      	ldr	r3, [r3, #0]
 80048b8:	2208      	movs	r2, #8
 80048ba:	621a      	str	r2, [r3, #32]
 80048bc:	687b      	ldr	r3, [r7, #4]
 80048be:	f8d3 3084 	ldr.w	r3, [r3, #132]	@ 0x84
 80048c2:	f043 0208 	orr.w	r2, r3, #8
 80048c6:	687b      	ldr	r3, [r7, #4]
 80048c8:	f8c3 2084 	str.w	r2, [r3, #132]	@ 0x84
 80048cc:	f8d7 30e4 	ldr.w	r3, [r7, #228]	@ 0xe4
 80048d0:	f403 6300 	and.w	r3, r3, #2048	@ 0x800
 80048d4:	2b00      	cmp	r3, #0
 80048d6:	d012      	beq.n	80048fe <HAL_UART_IRQHandler+0x18a>
 80048d8:	f8d7 30e0 	ldr.w	r3, [r7, #224]	@ 0xe0
 80048dc:	f003 6380 	and.w	r3, r3, #67108864	@ 0x4000000
 80048e0:	2b00      	cmp	r3, #0
 80048e2:	d00c      	beq.n	80048fe <HAL_UART_IRQHandler+0x18a>
 80048e4:	687b      	ldr	r3, [r7, #4]
 80048e6:	681b      	ldr	r3, [r3, #0]
 80048e8:	f44f 6200 	mov.w	r2, #2048	@ 0x800
 80048ec:	621a      	str	r2, [r3, #32]
 80048ee:	687b      	ldr	r3, [r7, #4]
 80048f0:	f8d3 3084 	ldr.w	r3, [r3, #132]	@ 0x84
 80048f4:	f043 0220 	orr.w	r2, r3, #32
 80048f8:	687b      	ldr	r3, [r7, #4]
 80048fa:	f8c3 2084 	str.w	r2, [r3, #132]	@ 0x84
 80048fe:	687b      	ldr	r3, [r7, #4]
 8004900:	f8d3 3084 	ldr.w	r3, [r3, #132]	@ 0x84
 8004904:	2b00      	cmp	r3, #0
 8004906:	f000 8230 	beq.w	8004d6a <HAL_UART_IRQHandler+0x5f6>
 800490a:	f8d7 30e4 	ldr.w	r3, [r7, #228]	@ 0xe4
 800490e:	f003 0320 	and.w	r3, r3, #32
 8004912:	2b00      	cmp	r3, #0
 8004914:	d00d      	beq.n	8004932 <HAL_UART_IRQHandler+0x1be>
 8004916:	f8d7 30e0 	ldr.w	r3, [r7, #224]	@ 0xe0
 800491a:	f003 0320 	and.w	r3, r3, #32
 800491e:	2b00      	cmp	r3, #0
 8004920:	d007      	beq.n	8004932 <HAL_UART_IRQHandler+0x1be>
 8004922:	687b      	ldr	r3, [r7, #4]
 8004924:	6e9b      	ldr	r3, [r3, #104]	@ 0x68
 8004926:	2b00      	cmp	r3, #0
 8004928:	d003      	beq.n	8004932 <HAL_UART_IRQHandler+0x1be>
 800492a:	687b      	ldr	r3, [r7, #4]
 800492c:	6e9b      	ldr	r3, [r3, #104]	@ 0x68
 800492e:	6878      	ldr	r0, [r7, #4]
 8004930:	4798      	blx	r3
 8004932:	687b      	ldr	r3, [r7, #4]
 8004934:	f8d3 3084 	ldr.w	r3, [r3, #132]	@ 0x84
 8004938:	f8c7 30d4 	str.w	r3, [r7, #212]	@ 0xd4
 800493c:	687b      	ldr	r3, [r7, #4]
 800493e:	681b      	ldr	r3, [r3, #0]
 8004940:	689b      	ldr	r3, [r3, #8]
 8004942:	f003 0340 	and.w	r3, r3, #64	@ 0x40
 8004946:	2b40      	cmp	r3, #64	@ 0x40
 8004948:	d005      	beq.n	8004956 <HAL_UART_IRQHandler+0x1e2>
 800494a:	f8d7 30d4 	ldr.w	r3, [r7, #212]	@ 0xd4
 800494e:	f003 0328 	and.w	r3, r3, #40	@ 0x28
 8004952:	2b00      	cmp	r3, #0
 8004954:	d04f      	beq.n	80049f6 <HAL_UART_IRQHandler+0x282>
 8004956:	6878      	ldr	r0, [r7, #4]
 8004958:	f000 fea1 	bl	800569e <UART_EndRxTransfer>
 800495c:	687b      	ldr	r3, [r7, #4]
 800495e:	681b      	ldr	r3, [r3, #0]
 8004960:	689b      	ldr	r3, [r3, #8]
 8004962:	f003 0340 	and.w	r3, r3, #64	@ 0x40
 8004966:	2b40      	cmp	r3, #64	@ 0x40
 8004968:	d141      	bne.n	80049ee <HAL_UART_IRQHandler+0x27a>
 800496a:	687b      	ldr	r3, [r7, #4]
 800496c:	681b      	ldr	r3, [r3, #0]
 800496e:	3308      	adds	r3, #8
 8004970:	f8c7 309c 	str.w	r3, [r7, #156]	@ 0x9c
 8004974:	f8d7 309c 	ldr.w	r3, [r7, #156]	@ 0x9c
 8004978:	e853 3f00 	ldrex	r3, [r3]
 800497c:	f8c7 3098 	str.w	r3, [r7, #152]	@ 0x98
 8004980:	f8d7 3098 	ldr.w	r3, [r7, #152]	@ 0x98
 8004984:	f023 0340 	bic.w	r3, r3, #64	@ 0x40
 8004988:	f8c7 30d0 	str.w	r3, [r7, #208]	@ 0xd0
 800498c:	687b      	ldr	r3, [r7, #4]
 800498e:	681b      	ldr	r3, [r3, #0]
 8004990:	3308      	adds	r3, #8
 8004992:	f8d7 20d0 	ldr.w	r2, [r7, #208]	@ 0xd0
 8004996:	f8c7 20a8 	str.w	r2, [r7, #168]	@ 0xa8
 800499a:	f8c7 30a4 	str.w	r3, [r7, #164]	@ 0xa4
 800499e:	f8d7 10a4 	ldr.w	r1, [r7, #164]	@ 0xa4
 80049a2:	f8d7 20a8 	ldr.w	r2, [r7, #168]	@ 0xa8
 80049a6:	e841 2300 	strex	r3, r2, [r1]
 80049aa:	f8c7 30a0 	str.w	r3, [r7, #160]	@ 0xa0
 80049ae:	f8d7 30a0 	ldr.w	r3, [r7, #160]	@ 0xa0
 80049b2:	2b00      	cmp	r3, #0
 80049b4:	d1d9      	bne.n	800496a <HAL_UART_IRQHandler+0x1f6>
 80049b6:	687b      	ldr	r3, [r7, #4]
 80049b8:	6f5b      	ldr	r3, [r3, #116]	@ 0x74
 80049ba:	2b00      	cmp	r3, #0
 80049bc:	d013      	beq.n	80049e6 <HAL_UART_IRQHandler+0x272>
 80049be:	687b      	ldr	r3, [r7, #4]
 80049c0:	6f5b      	ldr	r3, [r3, #116]	@ 0x74
 80049c2:	4a13      	ldr	r2, [pc, #76]	@ (8004a10 <HAL_UART_IRQHandler+0x29c>)
 80049c4:	639a      	str	r2, [r3, #56]	@ 0x38
 80049c6:	687b      	ldr	r3, [r7, #4]
 80049c8:	6f5b      	ldr	r3, [r3, #116]	@ 0x74
 80049ca:	4618      	mov	r0, r3
 80049cc:	f7fc ff7a 	bl	80018c4 <HAL_DMA_Abort_IT>
 80049d0:	4603      	mov	r3, r0
 80049d2:	2b00      	cmp	r3, #0
 80049d4:	d017      	beq.n	8004a06 <HAL_UART_IRQHandler+0x292>
 80049d6:	687b      	ldr	r3, [r7, #4]
 80049d8:	6f5b      	ldr	r3, [r3, #116]	@ 0x74
 80049da:	6b9b      	ldr	r3, [r3, #56]	@ 0x38
 80049dc:	687a      	ldr	r2, [r7, #4]
 80049de:	6f52      	ldr	r2, [r2, #116]	@ 0x74
 80049e0:	4610      	mov	r0, r2
 80049e2:	4798      	blx	r3
 80049e4:	e00f      	b.n	8004a06 <HAL_UART_IRQHandler+0x292>
 80049e6:	6878      	ldr	r0, [r7, #4]
 80049e8:	f000 f9d4 	bl	8004d94 <HAL_UART_ErrorCallback>
 80049ec:	e00b      	b.n	8004a06 <HAL_UART_IRQHandler+0x292>
 80049ee:	6878      	ldr	r0, [r7, #4]
 80049f0:	f000 f9d0 	bl	8004d94 <HAL_UART_ErrorCallback>
 80049f4:	e007      	b.n	8004a06 <HAL_UART_IRQHandler+0x292>
 80049f6:	6878      	ldr	r0, [r7, #4]
 80049f8:	f000 f9cc 	bl	8004d94 <HAL_UART_ErrorCallback>
 80049fc:	687b      	ldr	r3, [r7, #4]
 80049fe:	2200      	movs	r2, #0
 8004a00:	f8c3 2084 	str.w	r2, [r3, #132]	@ 0x84
 8004a04:	e1b1      	b.n	8004d6a <HAL_UART_IRQHandler+0x5f6>
 8004a06:	bf00      	nop
 8004a08:	e1af      	b.n	8004d6a <HAL_UART_IRQHandler+0x5f6>
 8004a0a:	bf00      	nop
 8004a0c:	04000120 	.word	0x04000120
 8004a10:	08005767 	.word	0x08005767
 8004a14:	687b      	ldr	r3, [r7, #4]
 8004a16:	6e1b      	ldr	r3, [r3, #96]	@ 0x60
 8004a18:	2b01      	cmp	r3, #1
 8004a1a:	f040 816a 	bne.w	8004cf2 <HAL_UART_IRQHandler+0x57e>
 8004a1e:	f8d7 30e4 	ldr.w	r3, [r7, #228]	@ 0xe4
 8004a22:	f003 0310 	and.w	r3, r3, #16
 8004a26:	2b00      	cmp	r3, #0
 8004a28:	f000 8163 	beq.w	8004cf2 <HAL_UART_IRQHandler+0x57e>
 8004a2c:	f8d7 30e0 	ldr.w	r3, [r7, #224]	@ 0xe0
 8004a30:	f003 0310 	and.w	r3, r3, #16
 8004a34:	2b00      	cmp	r3, #0
 8004a36:	f000 815c 	beq.w	8004cf2 <HAL_UART_IRQHandler+0x57e>
 8004a3a:	687b      	ldr	r3, [r7, #4]
 8004a3c:	681b      	ldr	r3, [r3, #0]
 8004a3e:	2210      	movs	r2, #16
 8004a40:	621a      	str	r2, [r3, #32]
 8004a42:	687b      	ldr	r3, [r7, #4]
 8004a44:	681b      	ldr	r3, [r3, #0]
 8004a46:	689b      	ldr	r3, [r3, #8]
 8004a48:	f003 0340 	and.w	r3, r3, #64	@ 0x40
 8004a4c:	2b40      	cmp	r3, #64	@ 0x40
 8004a4e:	f040 80d4 	bne.w	8004bfa <HAL_UART_IRQHandler+0x486>
 8004a52:	687b      	ldr	r3, [r7, #4]
 8004a54:	6f5b      	ldr	r3, [r3, #116]	@ 0x74
 8004a56:	681b      	ldr	r3, [r3, #0]
 8004a58:	685b      	ldr	r3, [r3, #4]
 8004a5a:	f8a7 30be 	strh.w	r3, [r7, #190]	@ 0xbe
 8004a5e:	f8b7 30be 	ldrh.w	r3, [r7, #190]	@ 0xbe
 8004a62:	2b00      	cmp	r3, #0
 8004a64:	f000 80ad 	beq.w	8004bc2 <HAL_UART_IRQHandler+0x44e>
 8004a68:	687b      	ldr	r3, [r7, #4]
 8004a6a:	f8b3 3058 	ldrh.w	r3, [r3, #88]	@ 0x58
 8004a6e:	f8b7 20be 	ldrh.w	r2, [r7, #190]	@ 0xbe
 8004a72:	429a      	cmp	r2, r3
 8004a74:	f080 80a5 	bcs.w	8004bc2 <HAL_UART_IRQHandler+0x44e>
 8004a78:	687b      	ldr	r3, [r7, #4]
 8004a7a:	f8b7 20be 	ldrh.w	r2, [r7, #190]	@ 0xbe
 8004a7e:	f8a3 205a 	strh.w	r2, [r3, #90]	@ 0x5a
 8004a82:	687b      	ldr	r3, [r7, #4]
 8004a84:	6f5b      	ldr	r3, [r3, #116]	@ 0x74
 8004a86:	681b      	ldr	r3, [r3, #0]
 8004a88:	681b      	ldr	r3, [r3, #0]
 8004a8a:	f003 0320 	and.w	r3, r3, #32
 8004a8e:	2b00      	cmp	r3, #0
 8004a90:	f040 8086 	bne.w	8004ba0 <HAL_UART_IRQHandler+0x42c>
 8004a94:	687b      	ldr	r3, [r7, #4]
 8004a96:	681b      	ldr	r3, [r3, #0]
 8004a98:	f8c7 3088 	str.w	r3, [r7, #136]	@ 0x88
 8004a9c:	f8d7 3088 	ldr.w	r3, [r7, #136]	@ 0x88
 8004aa0:	e853 3f00 	ldrex	r3, [r3]
 8004aa4:	f8c7 3084 	str.w	r3, [r7, #132]	@ 0x84
 8004aa8:	f8d7 3084 	ldr.w	r3, [r7, #132]	@ 0x84
 8004aac:	f423 7380 	bic.w	r3, r3, #256	@ 0x100
 8004ab0:	f8c7 30b8 	str.w	r3, [r7, #184]	@ 0xb8
 8004ab4:	687b      	ldr	r3, [r7, #4]
 8004ab6:	681b      	ldr	r3, [r3, #0]
 8004ab8:	461a      	mov	r2, r3
 8004aba:	f8d7 30b8 	ldr.w	r3, [r7, #184]	@ 0xb8
 8004abe:	f8c7 3094 	str.w	r3, [r7, #148]	@ 0x94
 8004ac2:	f8c7 2090 	str.w	r2, [r7, #144]	@ 0x90
 8004ac6:	f8d7 1090 	ldr.w	r1, [r7, #144]	@ 0x90
 8004aca:	f8d7 2094 	ldr.w	r2, [r7, #148]	@ 0x94
 8004ace:	e841 2300 	strex	r3, r2, [r1]
 8004ad2:	f8c7 308c 	str.w	r3, [r7, #140]	@ 0x8c
 8004ad6:	f8d7 308c 	ldr.w	r3, [r7, #140]	@ 0x8c
 8004ada:	2b00      	cmp	r3, #0
 8004adc:	d1da      	bne.n	8004a94 <HAL_UART_IRQHandler+0x320>
 8004ade:	687b      	ldr	r3, [r7, #4]
 8004ae0:	681b      	ldr	r3, [r3, #0]
 8004ae2:	3308      	adds	r3, #8
 8004ae4:	677b      	str	r3, [r7, #116]	@ 0x74
 8004ae6:	6f7b      	ldr	r3, [r7, #116]	@ 0x74
 8004ae8:	e853 3f00 	ldrex	r3, [r3]
 8004aec:	673b      	str	r3, [r7, #112]	@ 0x70
 8004aee:	6f3b      	ldr	r3, [r7, #112]	@ 0x70
 8004af0:	f023 0301 	bic.w	r3, r3, #1
 8004af4:	f8c7 30b4 	str.w	r3, [r7, #180]	@ 0xb4
 8004af8:	687b      	ldr	r3, [r7, #4]
 8004afa:	681b      	ldr	r3, [r3, #0]
 8004afc:	3308      	adds	r3, #8
 8004afe:	f8d7 20b4 	ldr.w	r2, [r7, #180]	@ 0xb4
 8004b02:	f8c7 2080 	str.w	r2, [r7, #128]	@ 0x80
 8004b06:	67fb      	str	r3, [r7, #124]	@ 0x7c
 8004b08:	6ff9      	ldr	r1, [r7, #124]	@ 0x7c
 8004b0a:	f8d7 2080 	ldr.w	r2, [r7, #128]	@ 0x80
 8004b0e:	e841 2300 	strex	r3, r2, [r1]
 8004b12:	67bb      	str	r3, [r7, #120]	@ 0x78
 8004b14:	6fbb      	ldr	r3, [r7, #120]	@ 0x78
 8004b16:	2b00      	cmp	r3, #0
 8004b18:	d1e1      	bne.n	8004ade <HAL_UART_IRQHandler+0x36a>
 8004b1a:	687b      	ldr	r3, [r7, #4]
 8004b1c:	681b      	ldr	r3, [r3, #0]
 8004b1e:	3308      	adds	r3, #8
 8004b20:	663b      	str	r3, [r7, #96]	@ 0x60
 8004b22:	6e3b      	ldr	r3, [r7, #96]	@ 0x60
 8004b24:	e853 3f00 	ldrex	r3, [r3]
 8004b28:	65fb      	str	r3, [r7, #92]	@ 0x5c
 8004b2a:	6dfb      	ldr	r3, [r7, #92]	@ 0x5c
 8004b2c:	f023 0340 	bic.w	r3, r3, #64	@ 0x40
 8004b30:	f8c7 30b0 	str.w	r3, [r7, #176]	@ 0xb0
 8004b34:	687b      	ldr	r3, [r7, #4]
 8004b36:	681b      	ldr	r3, [r3, #0]
 8004b38:	3308      	adds	r3, #8
 8004b3a:	f8d7 20b0 	ldr.w	r2, [r7, #176]	@ 0xb0
 8004b3e:	66fa      	str	r2, [r7, #108]	@ 0x6c
 8004b40:	66bb      	str	r3, [r7, #104]	@ 0x68
 8004b42:	6eb9      	ldr	r1, [r7, #104]	@ 0x68
 8004b44:	6efa      	ldr	r2, [r7, #108]	@ 0x6c
 8004b46:	e841 2300 	strex	r3, r2, [r1]
 8004b4a:	667b      	str	r3, [r7, #100]	@ 0x64
 8004b4c:	6e7b      	ldr	r3, [r7, #100]	@ 0x64
 8004b4e:	2b00      	cmp	r3, #0
 8004b50:	d1e3      	bne.n	8004b1a <HAL_UART_IRQHandler+0x3a6>
 8004b52:	687b      	ldr	r3, [r7, #4]
 8004b54:	2220      	movs	r2, #32
 8004b56:	f8c3 2080 	str.w	r2, [r3, #128]	@ 0x80
 8004b5a:	687b      	ldr	r3, [r7, #4]
 8004b5c:	2200      	movs	r2, #0
 8004b5e:	661a      	str	r2, [r3, #96]	@ 0x60
 8004b60:	687b      	ldr	r3, [r7, #4]
 8004b62:	681b      	ldr	r3, [r3, #0]
 8004b64:	64fb      	str	r3, [r7, #76]	@ 0x4c
 8004b66:	6cfb      	ldr	r3, [r7, #76]	@ 0x4c
 8004b68:	e853 3f00 	ldrex	r3, [r3]
 8004b6c:	64bb      	str	r3, [r7, #72]	@ 0x48
 8004b6e:	6cbb      	ldr	r3, [r7, #72]	@ 0x48
 8004b70:	f023 0310 	bic.w	r3, r3, #16
 8004b74:	f8c7 30ac 	str.w	r3, [r7, #172]	@ 0xac
 8004b78:	687b      	ldr	r3, [r7, #4]
 8004b7a:	681b      	ldr	r3, [r3, #0]
 8004b7c:	461a      	mov	r2, r3
 8004b7e:	f8d7 30ac 	ldr.w	r3, [r7, #172]	@ 0xac
 8004b82:	65bb      	str	r3, [r7, #88]	@ 0x58
 8004b84:	657a      	str	r2, [r7, #84]	@ 0x54
 8004b86:	6d79      	ldr	r1, [r7, #84]	@ 0x54
 8004b88:	6dba      	ldr	r2, [r7, #88]	@ 0x58
 8004b8a:	e841 2300 	strex	r3, r2, [r1]
 8004b8e:	653b      	str	r3, [r7, #80]	@ 0x50
 8004b90:	6d3b      	ldr	r3, [r7, #80]	@ 0x50
 8004b92:	2b00      	cmp	r3, #0
 8004b94:	d1e4      	bne.n	8004b60 <HAL_UART_IRQHandler+0x3ec>
 8004b96:	687b      	ldr	r3, [r7, #4]
 8004b98:	6f5b      	ldr	r3, [r3, #116]	@ 0x74
 8004b9a:	4618      	mov	r0, r3
 8004b9c:	f7fc fe54 	bl	8001848 <HAL_DMA_Abort>
 8004ba0:	687b      	ldr	r3, [r7, #4]
 8004ba2:	2202      	movs	r2, #2
 8004ba4:	665a      	str	r2, [r3, #100]	@ 0x64
 8004ba6:	687b      	ldr	r3, [r7, #4]
 8004ba8:	f8b3 2058 	ldrh.w	r2, [r3, #88]	@ 0x58
 8004bac:	687b      	ldr	r3, [r7, #4]
 8004bae:	f8b3 305a 	ldrh.w	r3, [r3, #90]	@ 0x5a
 8004bb2:	b29b      	uxth	r3, r3
 8004bb4:	1ad3      	subs	r3, r2, r3
 8004bb6:	b29b      	uxth	r3, r3
 8004bb8:	4619      	mov	r1, r3
 8004bba:	6878      	ldr	r0, [r7, #4]
 8004bbc:	f000 f8f4 	bl	8004da8 <HAL_UARTEx_RxEventCallback>
 8004bc0:	e0d5      	b.n	8004d6e <HAL_UART_IRQHandler+0x5fa>
 8004bc2:	687b      	ldr	r3, [r7, #4]
 8004bc4:	f8b3 3058 	ldrh.w	r3, [r3, #88]	@ 0x58
 8004bc8:	f8b7 20be 	ldrh.w	r2, [r7, #190]	@ 0xbe
 8004bcc:	429a      	cmp	r2, r3
 8004bce:	f040 80ce 	bne.w	8004d6e <HAL_UART_IRQHandler+0x5fa>
 8004bd2:	687b      	ldr	r3, [r7, #4]
 8004bd4:	6f5b      	ldr	r3, [r3, #116]	@ 0x74
 8004bd6:	681b      	ldr	r3, [r3, #0]
 8004bd8:	681b      	ldr	r3, [r3, #0]
 8004bda:	f003 0320 	and.w	r3, r3, #32
 8004bde:	2b20      	cmp	r3, #32
 8004be0:	f040 80c5 	bne.w	8004d6e <HAL_UART_IRQHandler+0x5fa>
 8004be4:	687b      	ldr	r3, [r7, #4]
 8004be6:	2202      	movs	r2, #2
 8004be8:	665a      	str	r2, [r3, #100]	@ 0x64
 8004bea:	687b      	ldr	r3, [r7, #4]
 8004bec:	f8b3 3058 	ldrh.w	r3, [r3, #88]	@ 0x58
 8004bf0:	4619      	mov	r1, r3
 8004bf2:	6878      	ldr	r0, [r7, #4]
 8004bf4:	f000 f8d8 	bl	8004da8 <HAL_UARTEx_RxEventCallback>
 8004bf8:	e0b9      	b.n	8004d6e <HAL_UART_IRQHandler+0x5fa>
 8004bfa:	687b      	ldr	r3, [r7, #4]
 8004bfc:	f8b3 2058 	ldrh.w	r2, [r3, #88]	@ 0x58
 8004c00:	687b      	ldr	r3, [r7, #4]
 8004c02:	f8b3 305a 	ldrh.w	r3, [r3, #90]	@ 0x5a
 8004c06:	b29b      	uxth	r3, r3
 8004c08:	1ad3      	subs	r3, r2, r3
 8004c0a:	f8a7 30ce 	strh.w	r3, [r7, #206]	@ 0xce
 8004c0e:	687b      	ldr	r3, [r7, #4]
 8004c10:	f8b3 305a 	ldrh.w	r3, [r3, #90]	@ 0x5a
 8004c14:	b29b      	uxth	r3, r3
 8004c16:	2b00      	cmp	r3, #0
 8004c18:	f000 80ab 	beq.w	8004d72 <HAL_UART_IRQHandler+0x5fe>
 8004c1c:	f8b7 30ce 	ldrh.w	r3, [r7, #206]	@ 0xce
 8004c20:	2b00      	cmp	r3, #0
 8004c22:	f000 80a6 	beq.w	8004d72 <HAL_UART_IRQHandler+0x5fe>
 8004c26:	687b      	ldr	r3, [r7, #4]
 8004c28:	681b      	ldr	r3, [r3, #0]
 8004c2a:	63bb      	str	r3, [r7, #56]	@ 0x38
 8004c2c:	6bbb      	ldr	r3, [r7, #56]	@ 0x38
 8004c2e:	e853 3f00 	ldrex	r3, [r3]
 8004c32:	637b      	str	r3, [r7, #52]	@ 0x34
 8004c34:	6b7b      	ldr	r3, [r7, #52]	@ 0x34
 8004c36:	f423 7390 	bic.w	r3, r3, #288	@ 0x120
 8004c3a:	f8c7 30c8 	str.w	r3, [r7, #200]	@ 0xc8
 8004c3e:	687b      	ldr	r3, [r7, #4]
 8004c40:	681b      	ldr	r3, [r3, #0]
 8004c42:	461a      	mov	r2, r3
 8004c44:	f8d7 30c8 	ldr.w	r3, [r7, #200]	@ 0xc8
 8004c48:	647b      	str	r3, [r7, #68]	@ 0x44
 8004c4a:	643a      	str	r2, [r7, #64]	@ 0x40
 8004c4c:	6c39      	ldr	r1, [r7, #64]	@ 0x40
 8004c4e:	6c7a      	ldr	r2, [r7, #68]	@ 0x44
 8004c50:	e841 2300 	strex	r3, r2, [r1]
 8004c54:	63fb      	str	r3, [r7, #60]	@ 0x3c
 8004c56:	6bfb      	ldr	r3, [r7, #60]	@ 0x3c
 8004c58:	2b00      	cmp	r3, #0
 8004c5a:	d1e4      	bne.n	8004c26 <HAL_UART_IRQHandler+0x4b2>
 8004c5c:	687b      	ldr	r3, [r7, #4]
 8004c5e:	681b      	ldr	r3, [r3, #0]
 8004c60:	3308      	adds	r3, #8
 8004c62:	627b      	str	r3, [r7, #36]	@ 0x24
 8004c64:	6a7b      	ldr	r3, [r7, #36]	@ 0x24
 8004c66:	e853 3f00 	ldrex	r3, [r3]
 8004c6a:	623b      	str	r3, [r7, #32]
 8004c6c:	6a3b      	ldr	r3, [r7, #32]
 8004c6e:	f023 0301 	bic.w	r3, r3, #1
 8004c72:	f8c7 30c4 	str.w	r3, [r7, #196]	@ 0xc4
 8004c76:	687b      	ldr	r3, [r7, #4]
 8004c78:	681b      	ldr	r3, [r3, #0]
 8004c7a:	3308      	adds	r3, #8
 8004c7c:	f8d7 20c4 	ldr.w	r2, [r7, #196]	@ 0xc4
 8004c80:	633a      	str	r2, [r7, #48]	@ 0x30
 8004c82:	62fb      	str	r3, [r7, #44]	@ 0x2c
 8004c84:	6af9      	ldr	r1, [r7, #44]	@ 0x2c
 8004c86:	6b3a      	ldr	r2, [r7, #48]	@ 0x30
 8004c88:	e841 2300 	strex	r3, r2, [r1]
 8004c8c:	62bb      	str	r3, [r7, #40]	@ 0x28
 8004c8e:	6abb      	ldr	r3, [r7, #40]	@ 0x28
 8004c90:	2b00      	cmp	r3, #0
 8004c92:	d1e3      	bne.n	8004c5c <HAL_UART_IRQHandler+0x4e8>
 8004c94:	687b      	ldr	r3, [r7, #4]
 8004c96:	2220      	movs	r2, #32
 8004c98:	f8c3 2080 	str.w	r2, [r3, #128]	@ 0x80
 8004c9c:	687b      	ldr	r3, [r7, #4]
 8004c9e:	2200      	movs	r2, #0
 8004ca0:	661a      	str	r2, [r3, #96]	@ 0x60
 8004ca2:	687b      	ldr	r3, [r7, #4]
 8004ca4:	2200      	movs	r2, #0
 8004ca6:	669a      	str	r2, [r3, #104]	@ 0x68
 8004ca8:	687b      	ldr	r3, [r7, #4]
 8004caa:	681b      	ldr	r3, [r3, #0]
 8004cac:	613b      	str	r3, [r7, #16]
 8004cae:	693b      	ldr	r3, [r7, #16]
 8004cb0:	e853 3f00 	ldrex	r3, [r3]
 8004cb4:	60fb      	str	r3, [r7, #12]
 8004cb6:	68fb      	ldr	r3, [r7, #12]
 8004cb8:	f023 0310 	bic.w	r3, r3, #16
 8004cbc:	f8c7 30c0 	str.w	r3, [r7, #192]	@ 0xc0
 8004cc0:	687b      	ldr	r3, [r7, #4]
 8004cc2:	681b      	ldr	r3, [r3, #0]
 8004cc4:	461a      	mov	r2, r3
 8004cc6:	f8d7 30c0 	ldr.w	r3, [r7, #192]	@ 0xc0
 8004cca:	61fb      	str	r3, [r7, #28]
 8004ccc:	61ba      	str	r2, [r7, #24]
 8004cce:	69b9      	ldr	r1, [r7, #24]
 8004cd0:	69fa      	ldr	r2, [r7, #28]
 8004cd2:	e841 2300 	strex	r3, r2, [r1]
 8004cd6:	617b      	str	r3, [r7, #20]
 8004cd8:	697b      	ldr	r3, [r7, #20]
 8004cda:	2b00      	cmp	r3, #0
 8004cdc:	d1e4      	bne.n	8004ca8 <HAL_UART_IRQHandler+0x534>
 8004cde:	687b      	ldr	r3, [r7, #4]
 8004ce0:	2202      	movs	r2, #2
 8004ce2:	665a      	str	r2, [r3, #100]	@ 0x64
 8004ce4:	f8b7 30ce 	ldrh.w	r3, [r7, #206]	@ 0xce
 8004ce8:	4619      	mov	r1, r3
 8004cea:	6878      	ldr	r0, [r7, #4]
 8004cec:	f000 f85c 	bl	8004da8 <HAL_UARTEx_RxEventCallback>
 8004cf0:	e03f      	b.n	8004d72 <HAL_UART_IRQHandler+0x5fe>
 8004cf2:	f8d7 30e4 	ldr.w	r3, [r7, #228]	@ 0xe4
 8004cf6:	f403 1380 	and.w	r3, r3, #1048576	@ 0x100000
 8004cfa:	2b00      	cmp	r3, #0
 8004cfc:	d00e      	beq.n	8004d1c <HAL_UART_IRQHandler+0x5a8>
 8004cfe:	f8d7 30dc 	ldr.w	r3, [r7, #220]	@ 0xdc
 8004d02:	f403 0380 	and.w	r3, r3, #4194304	@ 0x400000
 8004d06:	2b00      	cmp	r3, #0
 8004d08:	d008      	beq.n	8004d1c <HAL_UART_IRQHandler+0x5a8>
 8004d0a:	687b      	ldr	r3, [r7, #4]
 8004d0c:	681b      	ldr	r3, [r3, #0]
 8004d0e:	f44f 1280 	mov.w	r2, #1048576	@ 0x100000
 8004d12:	621a      	str	r2, [r3, #32]
 8004d14:	6878      	ldr	r0, [r7, #4]
 8004d16:	f000 fd66 	bl	80057e6 <HAL_UARTEx_WakeupCallback>
 8004d1a:	e02d      	b.n	8004d78 <HAL_UART_IRQHandler+0x604>
 8004d1c:	f8d7 30e4 	ldr.w	r3, [r7, #228]	@ 0xe4
 8004d20:	f003 0380 	and.w	r3, r3, #128	@ 0x80
 8004d24:	2b00      	cmp	r3, #0
 8004d26:	d00e      	beq.n	8004d46 <HAL_UART_IRQHandler+0x5d2>
 8004d28:	f8d7 30e0 	ldr.w	r3, [r7, #224]	@ 0xe0
 8004d2c:	f003 0380 	and.w	r3, r3, #128	@ 0x80
 8004d30:	2b00      	cmp	r3, #0
 8004d32:	d008      	beq.n	8004d46 <HAL_UART_IRQHandler+0x5d2>
 8004d34:	687b      	ldr	r3, [r7, #4]
 8004d36:	6edb      	ldr	r3, [r3, #108]	@ 0x6c
 8004d38:	2b00      	cmp	r3, #0
 8004d3a:	d01c      	beq.n	8004d76 <HAL_UART_IRQHandler+0x602>
 8004d3c:	687b      	ldr	r3, [r7, #4]
 8004d3e:	6edb      	ldr	r3, [r3, #108]	@ 0x6c
 8004d40:	6878      	ldr	r0, [r7, #4]
 8004d42:	4798      	blx	r3
 8004d44:	e017      	b.n	8004d76 <HAL_UART_IRQHandler+0x602>
 8004d46:	f8d7 30e4 	ldr.w	r3, [r7, #228]	@ 0xe4
 8004d4a:	f003 0340 	and.w	r3, r3, #64	@ 0x40
 8004d4e:	2b00      	cmp	r3, #0
 8004d50:	d012      	beq.n	8004d78 <HAL_UART_IRQHandler+0x604>
 8004d52:	f8d7 30e0 	ldr.w	r3, [r7, #224]	@ 0xe0
 8004d56:	f003 0340 	and.w	r3, r3, #64	@ 0x40
 8004d5a:	2b00      	cmp	r3, #0
 8004d5c:	d00c      	beq.n	8004d78 <HAL_UART_IRQHandler+0x604>
 8004d5e:	6878      	ldr	r0, [r7, #4]
 8004d60:	f000 fd17 	bl	8005792 <UART_EndTransmit_IT>
 8004d64:	e008      	b.n	8004d78 <HAL_UART_IRQHandler+0x604>
 8004d66:	bf00      	nop
 8004d68:	e006      	b.n	8004d78 <HAL_UART_IRQHandler+0x604>
 8004d6a:	bf00      	nop
 8004d6c:	e004      	b.n	8004d78 <HAL_UART_IRQHandler+0x604>
 8004d6e:	bf00      	nop
 8004d70:	e002      	b.n	8004d78 <HAL_UART_IRQHandler+0x604>
 8004d72:	bf00      	nop
 8004d74:	e000      	b.n	8004d78 <HAL_UART_IRQHandler+0x604>
 8004d76:	bf00      	nop
 8004d78:	37e8      	adds	r7, #232	@ 0xe8
 8004d7a:	46bd      	mov	sp, r7
 8004d7c:	bd80      	pop	{r7, pc}
 8004d7e:	bf00      	nop

08004d80 <HAL_UART_TxCpltCallback>:
 8004d80:	b480      	push	{r7}
 8004d82:	b083      	sub	sp, #12
 8004d84:	af00      	add	r7, sp, #0
 8004d86:	6078      	str	r0, [r7, #4]
 8004d88:	bf00      	nop
 8004d8a:	370c      	adds	r7, #12
 8004d8c:	46bd      	mov	sp, r7
 8004d8e:	f85d 7b04 	ldr.w	r7, [sp], #4
 8004d92:	4770      	bx	lr

08004d94 <HAL_UART_ErrorCallback>:
 8004d94:	b480      	push	{r7}
 8004d96:	b083      	sub	sp, #12
 8004d98:	af00      	add	r7, sp, #0
 8004d9a:	6078      	str	r0, [r7, #4]
 8004d9c:	bf00      	nop
 8004d9e:	370c      	adds	r7, #12
 8004da0:	46bd      	mov	sp, r7
 8004da2:	f85d 7b04 	ldr.w	r7, [sp], #4
 8004da6:	4770      	bx	lr

08004da8 <HAL_UARTEx_RxEventCallback>:
 8004da8:	b480      	push	{r7}
 8004daa:	b083      	sub	sp, #12
 8004dac:	af00      	add	r7, sp, #0
 8004dae:	6078      	str	r0, [r7, #4]
 8004db0:	460b      	mov	r3, r1
 8004db2:	807b      	strh	r3, [r7, #2]
 8004db4:	bf00      	nop
 8004db6:	370c      	adds	r7, #12
 8004db8:	46bd      	mov	sp, r7
 8004dba:	f85d 7b04 	ldr.w	r7, [sp], #4
 8004dbe:	4770      	bx	lr

08004dc0 <UART_SetConfig>:
 8004dc0:	e92d 4fb0 	stmdb	sp!, {r4, r5, r7, r8, r9, sl, fp, lr}
 8004dc4:	b08a      	sub	sp, #40	@ 0x28
 8004dc6:	af00      	add	r7, sp, #0
 8004dc8:	60f8      	str	r0, [r7, #12]
 8004dca:	2300      	movs	r3, #0
 8004dcc:	f887 3022 	strb.w	r3, [r7, #34]	@ 0x22
 8004dd0:	68fb      	ldr	r3, [r7, #12]
 8004dd2:	689a      	ldr	r2, [r3, #8]
 8004dd4:	68fb      	ldr	r3, [r7, #12]
 8004dd6:	691b      	ldr	r3, [r3, #16]
 8004dd8:	431a      	orrs	r2, r3
 8004dda:	68fb      	ldr	r3, [r7, #12]
 8004ddc:	695b      	ldr	r3, [r3, #20]
 8004dde:	431a      	orrs	r2, r3
 8004de0:	68fb      	ldr	r3, [r7, #12]
 8004de2:	69db      	ldr	r3, [r3, #28]
 8004de4:	4313      	orrs	r3, r2
 8004de6:	627b      	str	r3, [r7, #36]	@ 0x24
 8004de8:	68fb      	ldr	r3, [r7, #12]
 8004dea:	681b      	ldr	r3, [r3, #0]
 8004dec:	681a      	ldr	r2, [r3, #0]
 8004dee:	4ba4      	ldr	r3, [pc, #656]	@ (8005080 <UART_SetConfig+0x2c0>)
 8004df0:	4013      	ands	r3, r2
 8004df2:	68fa      	ldr	r2, [r7, #12]
 8004df4:	6812      	ldr	r2, [r2, #0]
 8004df6:	6a79      	ldr	r1, [r7, #36]	@ 0x24
 8004df8:	430b      	orrs	r3, r1
 8004dfa:	6013      	str	r3, [r2, #0]
 8004dfc:	68fb      	ldr	r3, [r7, #12]
 8004dfe:	681b      	ldr	r3, [r3, #0]
 8004e00:	685b      	ldr	r3, [r3, #4]
 8004e02:	f423 5140 	bic.w	r1, r3, #12288	@ 0x3000
 8004e06:	68fb      	ldr	r3, [r7, #12]
 8004e08:	68da      	ldr	r2, [r3, #12]
 8004e0a:	68fb      	ldr	r3, [r7, #12]
 8004e0c:	681b      	ldr	r3, [r3, #0]
 8004e0e:	430a      	orrs	r2, r1
 8004e10:	605a      	str	r2, [r3, #4]
 8004e12:	68fb      	ldr	r3, [r7, #12]
 8004e14:	699b      	ldr	r3, [r3, #24]
 8004e16:	627b      	str	r3, [r7, #36]	@ 0x24
 8004e18:	68fb      	ldr	r3, [r7, #12]
 8004e1a:	681b      	ldr	r3, [r3, #0]
 8004e1c:	4a99      	ldr	r2, [pc, #612]	@ (8005084 <UART_SetConfig+0x2c4>)
 8004e1e:	4293      	cmp	r3, r2
 8004e20:	d004      	beq.n	8004e2c <UART_SetConfig+0x6c>
 8004e22:	68fb      	ldr	r3, [r7, #12]
 8004e24:	6a1b      	ldr	r3, [r3, #32]
 8004e26:	6a7a      	ldr	r2, [r7, #36]	@ 0x24
 8004e28:	4313      	orrs	r3, r2
 8004e2a:	627b      	str	r3, [r7, #36]	@ 0x24
 8004e2c:	68fb      	ldr	r3, [r7, #12]
 8004e2e:	681b      	ldr	r3, [r3, #0]
 8004e30:	689b      	ldr	r3, [r3, #8]
 8004e32:	f423 6130 	bic.w	r1, r3, #2816	@ 0xb00
 8004e36:	68fb      	ldr	r3, [r7, #12]
 8004e38:	681b      	ldr	r3, [r3, #0]
 8004e3a:	6a7a      	ldr	r2, [r7, #36]	@ 0x24
 8004e3c:	430a      	orrs	r2, r1
 8004e3e:	609a      	str	r2, [r3, #8]
 8004e40:	68fb      	ldr	r3, [r7, #12]
 8004e42:	681b      	ldr	r3, [r3, #0]
 8004e44:	4a90      	ldr	r2, [pc, #576]	@ (8005088 <UART_SetConfig+0x2c8>)
 8004e46:	4293      	cmp	r3, r2
 8004e48:	d126      	bne.n	8004e98 <UART_SetConfig+0xd8>
 8004e4a:	4b90      	ldr	r3, [pc, #576]	@ (800508c <UART_SetConfig+0x2cc>)
 8004e4c:	f8d3 3088 	ldr.w	r3, [r3, #136]	@ 0x88
 8004e50:	f003 0303 	and.w	r3, r3, #3
 8004e54:	2b03      	cmp	r3, #3
 8004e56:	d81b      	bhi.n	8004e90 <UART_SetConfig+0xd0>
 8004e58:	a201      	add	r2, pc, #4	@ (adr r2, 8004e60 <UART_SetConfig+0xa0>)
 8004e5a:	f852 f023 	ldr.w	pc, [r2, r3, lsl #2]
 8004e5e:	bf00      	nop
 8004e60:	08004e71 	.word	0x08004e71
 8004e64:	08004e81 	.word	0x08004e81
 8004e68:	08004e79 	.word	0x08004e79
 8004e6c:	08004e89 	.word	0x08004e89
 8004e70:	2301      	movs	r3, #1
 8004e72:	f887 3023 	strb.w	r3, [r7, #35]	@ 0x23
 8004e76:	e116      	b.n	80050a6 <UART_SetConfig+0x2e6>
 8004e78:	2302      	movs	r3, #2
 8004e7a:	f887 3023 	strb.w	r3, [r7, #35]	@ 0x23
 8004e7e:	e112      	b.n	80050a6 <UART_SetConfig+0x2e6>
 8004e80:	2304      	movs	r3, #4
 8004e82:	f887 3023 	strb.w	r3, [r7, #35]	@ 0x23
 8004e86:	e10e      	b.n	80050a6 <UART_SetConfig+0x2e6>
 8004e88:	2308      	movs	r3, #8
 8004e8a:	f887 3023 	strb.w	r3, [r7, #35]	@ 0x23
 8004e8e:	e10a      	b.n	80050a6 <UART_SetConfig+0x2e6>
 8004e90:	2310      	movs	r3, #16
 8004e92:	f887 3023 	strb.w	r3, [r7, #35]	@ 0x23
 8004e96:	e106      	b.n	80050a6 <UART_SetConfig+0x2e6>
 8004e98:	68fb      	ldr	r3, [r7, #12]
 8004e9a:	681b      	ldr	r3, [r3, #0]
 8004e9c:	4a7c      	ldr	r2, [pc, #496]	@ (8005090 <UART_SetConfig+0x2d0>)
 8004e9e:	4293      	cmp	r3, r2
 8004ea0:	d138      	bne.n	8004f14 <UART_SetConfig+0x154>
 8004ea2:	4b7a      	ldr	r3, [pc, #488]	@ (800508c <UART_SetConfig+0x2cc>)
 8004ea4:	f8d3 3088 	ldr.w	r3, [r3, #136]	@ 0x88
 8004ea8:	f003 030c 	and.w	r3, r3, #12
 8004eac:	2b0c      	cmp	r3, #12
 8004eae:	d82d      	bhi.n	8004f0c <UART_SetConfig+0x14c>
 8004eb0:	a201      	add	r2, pc, #4	@ (adr r2, 8004eb8 <UART_SetConfig+0xf8>)
 8004eb2:	f852 f023 	ldr.w	pc, [r2, r3, lsl #2]
 8004eb6:	bf00      	nop
 8004eb8:	08004eed 	.word	0x08004eed
 8004ebc:	08004f0d 	.word	0x08004f0d
 8004ec0:	08004f0d 	.word	0x08004f0d
 8004ec4:	08004f0d 	.word	0x08004f0d
 8004ec8:	08004efd 	.word	0x08004efd
 8004ecc:	08004f0d 	.word	0x08004f0d
 8004ed0:	08004f0d 	.word	0x08004f0d
 8004ed4:	08004f0d 	.word	0x08004f0d
 8004ed8:	08004ef5 	.word	0x08004ef5
 8004edc:	08004f0d 	.word	0x08004f0d
 8004ee0:	08004f0d 	.word	0x08004f0d
 8004ee4:	08004f0d 	.word	0x08004f0d
 8004ee8:	08004f05 	.word	0x08004f05
 8004eec:	2300      	movs	r3, #0
 8004eee:	f887 3023 	strb.w	r3, [r7, #35]	@ 0x23
 8004ef2:	e0d8      	b.n	80050a6 <UART_SetConfig+0x2e6>
 8004ef4:	2302      	movs	r3, #2
 8004ef6:	f887 3023 	strb.w	r3, [r7, #35]	@ 0x23
 8004efa:	e0d4      	b.n	80050a6 <UART_SetConfig+0x2e6>
 8004efc:	2304      	movs	r3, #4
 8004efe:	f887 3023 	strb.w	r3, [r7, #35]	@ 0x23
 8004f02:	e0d0      	b.n	80050a6 <UART_SetConfig+0x2e6>
 8004f04:	2308      	movs	r3, #8
 8004f06:	f887 3023 	strb.w	r3, [r7, #35]	@ 0x23
 8004f0a:	e0cc      	b.n	80050a6 <UART_SetConfig+0x2e6>
 8004f0c:	2310      	movs	r3, #16
 8004f0e:	f887 3023 	strb.w	r3, [r7, #35]	@ 0x23
 8004f12:	e0c8      	b.n	80050a6 <UART_SetConfig+0x2e6>
 8004f14:	68fb      	ldr	r3, [r7, #12]
 8004f16:	681b      	ldr	r3, [r3, #0]
 8004f18:	4a5e      	ldr	r2, [pc, #376]	@ (8005094 <UART_SetConfig+0x2d4>)
 8004f1a:	4293      	cmp	r3, r2
 8004f1c:	d125      	bne.n	8004f6a <UART_SetConfig+0x1aa>
 8004f1e:	4b5b      	ldr	r3, [pc, #364]	@ (800508c <UART_SetConfig+0x2cc>)
 8004f20:	f8d3 3088 	ldr.w	r3, [r3, #136]	@ 0x88
 8004f24:	f003 0330 	and.w	r3, r3, #48	@ 0x30
 8004f28:	2b30      	cmp	r3, #48	@ 0x30
 8004f2a:	d016      	beq.n	8004f5a <UART_SetConfig+0x19a>
 8004f2c:	2b30      	cmp	r3, #48	@ 0x30
 8004f2e:	d818      	bhi.n	8004f62 <UART_SetConfig+0x1a2>
 8004f30:	2b20      	cmp	r3, #32
 8004f32:	d00a      	beq.n	8004f4a <UART_SetConfig+0x18a>
 8004f34:	2b20      	cmp	r3, #32
 8004f36:	d814      	bhi.n	8004f62 <UART_SetConfig+0x1a2>
 8004f38:	2b00      	cmp	r3, #0
 8004f3a:	d002      	beq.n	8004f42 <UART_SetConfig+0x182>
 8004f3c:	2b10      	cmp	r3, #16
 8004f3e:	d008      	beq.n	8004f52 <UART_SetConfig+0x192>
 8004f40:	e00f      	b.n	8004f62 <UART_SetConfig+0x1a2>
 8004f42:	2300      	movs	r3, #0
 8004f44:	f887 3023 	strb.w	r3, [r7, #35]	@ 0x23
 8004f48:	e0ad      	b.n	80050a6 <UART_SetConfig+0x2e6>
 8004f4a:	2302      	movs	r3, #2
 8004f4c:	f887 3023 	strb.w	r3, [r7, #35]	@ 0x23
 8004f50:	e0a9      	b.n	80050a6 <UART_SetConfig+0x2e6>
 8004f52:	2304      	movs	r3, #4
 8004f54:	f887 3023 	strb.w	r3, [r7, #35]	@ 0x23
 8004f58:	e0a5      	b.n	80050a6 <UART_SetConfig+0x2e6>
 8004f5a:	2308      	movs	r3, #8
 8004f5c:	f887 3023 	strb.w	r3, [r7, #35]	@ 0x23
 8004f60:	e0a1      	b.n	80050a6 <UART_SetConfig+0x2e6>
 8004f62:	2310      	movs	r3, #16
 8004f64:	f887 3023 	strb.w	r3, [r7, #35]	@ 0x23
 8004f68:	e09d      	b.n	80050a6 <UART_SetConfig+0x2e6>
 8004f6a:	68fb      	ldr	r3, [r7, #12]
 8004f6c:	681b      	ldr	r3, [r3, #0]
 8004f6e:	4a4a      	ldr	r2, [pc, #296]	@ (8005098 <UART_SetConfig+0x2d8>)
 8004f70:	4293      	cmp	r3, r2
 8004f72:	d125      	bne.n	8004fc0 <UART_SetConfig+0x200>
 8004f74:	4b45      	ldr	r3, [pc, #276]	@ (800508c <UART_SetConfig+0x2cc>)
 8004f76:	f8d3 3088 	ldr.w	r3, [r3, #136]	@ 0x88
 8004f7a:	f003 03c0 	and.w	r3, r3, #192	@ 0xc0
 8004f7e:	2bc0      	cmp	r3, #192	@ 0xc0
 8004f80:	d016      	beq.n	8004fb0 <UART_SetConfig+0x1f0>
 8004f82:	2bc0      	cmp	r3, #192	@ 0xc0
 8004f84:	d818      	bhi.n	8004fb8 <UART_SetConfig+0x1f8>
 8004f86:	2b80      	cmp	r3, #128	@ 0x80
 8004f88:	d00a      	beq.n	8004fa0 <UART_SetConfig+0x1e0>
 8004f8a:	2b80      	cmp	r3, #128	@ 0x80
 8004f8c:	d814      	bhi.n	8004fb8 <UART_SetConfig+0x1f8>
 8004f8e:	2b00      	cmp	r3, #0
 8004f90:	d002      	beq.n	8004f98 <UART_SetConfig+0x1d8>
 8004f92:	2b40      	cmp	r3, #64	@ 0x40
 8004f94:	d008      	beq.n	8004fa8 <UART_SetConfig+0x1e8>
 8004f96:	e00f      	b.n	8004fb8 <UART_SetConfig+0x1f8>
 8004f98:	2300      	movs	r3, #0
 8004f9a:	f887 3023 	strb.w	r3, [r7, #35]	@ 0x23
 8004f9e:	e082      	b.n	80050a6 <UART_SetConfig+0x2e6>
 8004fa0:	2302      	movs	r3, #2
 8004fa2:	f887 3023 	strb.w	r3, [r7, #35]	@ 0x23
 8004fa6:	e07e      	b.n	80050a6 <UART_SetConfig+0x2e6>
 8004fa8:	2304      	movs	r3, #4
 8004faa:	f887 3023 	strb.w	r3, [r7, #35]	@ 0x23
 8004fae:	e07a      	b.n	80050a6 <UART_SetConfig+0x2e6>
 8004fb0:	2308      	movs	r3, #8
 8004fb2:	f887 3023 	strb.w	r3, [r7, #35]	@ 0x23
 8004fb6:	e076      	b.n	80050a6 <UART_SetConfig+0x2e6>
 8004fb8:	2310      	movs	r3, #16
 8004fba:	f887 3023 	strb.w	r3, [r7, #35]	@ 0x23
 8004fbe:	e072      	b.n	80050a6 <UART_SetConfig+0x2e6>
 8004fc0:	68fb      	ldr	r3, [r7, #12]
 8004fc2:	681b      	ldr	r3, [r3, #0]
 8004fc4:	4a35      	ldr	r2, [pc, #212]	@ (800509c <UART_SetConfig+0x2dc>)
 8004fc6:	4293      	cmp	r3, r2
 8004fc8:	d12a      	bne.n	8005020 <UART_SetConfig+0x260>
 8004fca:	4b30      	ldr	r3, [pc, #192]	@ (800508c <UART_SetConfig+0x2cc>)
 8004fcc:	f8d3 3088 	ldr.w	r3, [r3, #136]	@ 0x88
 8004fd0:	f403 7340 	and.w	r3, r3, #768	@ 0x300
 8004fd4:	f5b3 7f40 	cmp.w	r3, #768	@ 0x300
 8004fd8:	d01a      	beq.n	8005010 <UART_SetConfig+0x250>
 8004fda:	f5b3 7f40 	cmp.w	r3, #768	@ 0x300
 8004fde:	d81b      	bhi.n	8005018 <UART_SetConfig+0x258>
 8004fe0:	f5b3 7f00 	cmp.w	r3, #512	@ 0x200
 8004fe4:	d00c      	beq.n	8005000 <UART_SetConfig+0x240>
 8004fe6:	f5b3 7f00 	cmp.w	r3, #512	@ 0x200
 8004fea:	d815      	bhi.n	8005018 <UART_SetConfig+0x258>
 8004fec:	2b00      	cmp	r3, #0
 8004fee:	d003      	beq.n	8004ff8 <UART_SetConfig+0x238>
 8004ff0:	f5b3 7f80 	cmp.w	r3, #256	@ 0x100
 8004ff4:	d008      	beq.n	8005008 <UART_SetConfig+0x248>
 8004ff6:	e00f      	b.n	8005018 <UART_SetConfig+0x258>
 8004ff8:	2300      	movs	r3, #0
 8004ffa:	f887 3023 	strb.w	r3, [r7, #35]	@ 0x23
 8004ffe:	e052      	b.n	80050a6 <UART_SetConfig+0x2e6>
 8005000:	2302      	movs	r3, #2
 8005002:	f887 3023 	strb.w	r3, [r7, #35]	@ 0x23
 8005006:	e04e      	b.n	80050a6 <UART_SetConfig+0x2e6>
 8005008:	2304      	movs	r3, #4
 800500a:	f887 3023 	strb.w	r3, [r7, #35]	@ 0x23
 800500e:	e04a      	b.n	80050a6 <UART_SetConfig+0x2e6>
 8005010:	2308      	movs	r3, #8
 8005012:	f887 3023 	strb.w	r3, [r7, #35]	@ 0x23
 8005016:	e046      	b.n	80050a6 <UART_SetConfig+0x2e6>
 8005018:	2310      	movs	r3, #16
 800501a:	f887 3023 	strb.w	r3, [r7, #35]	@ 0x23
 800501e:	e042      	b.n	80050a6 <UART_SetConfig+0x2e6>
 8005020:	68fb      	ldr	r3, [r7, #12]
 8005022:	681b      	ldr	r3, [r3, #0]
 8005024:	4a17      	ldr	r2, [pc, #92]	@ (8005084 <UART_SetConfig+0x2c4>)
 8005026:	4293      	cmp	r3, r2
 8005028:	d13a      	bne.n	80050a0 <UART_SetConfig+0x2e0>
 800502a:	4b18      	ldr	r3, [pc, #96]	@ (800508c <UART_SetConfig+0x2cc>)
 800502c:	f8d3 3088 	ldr.w	r3, [r3, #136]	@ 0x88
 8005030:	f403 6340 	and.w	r3, r3, #3072	@ 0xc00
 8005034:	f5b3 6f40 	cmp.w	r3, #3072	@ 0xc00
 8005038:	d01a      	beq.n	8005070 <UART_SetConfig+0x2b0>
 800503a:	f5b3 6f40 	cmp.w	r3, #3072	@ 0xc00
 800503e:	d81b      	bhi.n	8005078 <UART_SetConfig+0x2b8>
 8005040:	f5b3 6f00 	cmp.w	r3, #2048	@ 0x800
 8005044:	d00c      	beq.n	8005060 <UART_SetConfig+0x2a0>
 8005046:	f5b3 6f00 	cmp.w	r3, #2048	@ 0x800
 800504a:	d815      	bhi.n	8005078 <UART_SetConfig+0x2b8>
 800504c:	2b00      	cmp	r3, #0
 800504e:	d003      	beq.n	8005058 <UART_SetConfig+0x298>
 8005050:	f5b3 6f80 	cmp.w	r3, #1024	@ 0x400
 8005054:	d008      	beq.n	8005068 <UART_SetConfig+0x2a8>
 8005056:	e00f      	b.n	8005078 <UART_SetConfig+0x2b8>
 8005058:	2300      	movs	r3, #0
 800505a:	f887 3023 	strb.w	r3, [r7, #35]	@ 0x23
 800505e:	e022      	b.n	80050a6 <UART_SetConfig+0x2e6>
 8005060:	2302      	movs	r3, #2
 8005062:	f887 3023 	strb.w	r3, [r7, #35]	@ 0x23
 8005066:	e01e      	b.n	80050a6 <UART_SetConfig+0x2e6>
 8005068:	2304      	movs	r3, #4
 800506a:	f887 3023 	strb.w	r3, [r7, #35]	@ 0x23
 800506e:	e01a      	b.n	80050a6 <UART_SetConfig+0x2e6>
 8005070:	2308      	movs	r3, #8
 8005072:	f887 3023 	strb.w	r3, [r7, #35]	@ 0x23
 8005076:	e016      	b.n	80050a6 <UART_SetConfig+0x2e6>
 8005078:	2310      	movs	r3, #16
 800507a:	f887 3023 	strb.w	r3, [r7, #35]	@ 0x23
 800507e:	e012      	b.n	80050a6 <UART_SetConfig+0x2e6>
 8005080:	efff69f3 	.word	0xefff69f3
 8005084:	40008000 	.word	0x40008000
 8005088:	40013800 	.word	0x40013800
 800508c:	40021000 	.word	0x40021000
 8005090:	40004400 	.word	0x40004400
 8005094:	40004800 	.word	0x40004800
 8005098:	40004c00 	.word	0x40004c00
 800509c:	40005000 	.word	0x40005000
 80050a0:	2310      	movs	r3, #16
 80050a2:	f887 3023 	strb.w	r3, [r7, #35]	@ 0x23
 80050a6:	68fb      	ldr	r3, [r7, #12]
 80050a8:	681b      	ldr	r3, [r3, #0]
 80050aa:	4a9f      	ldr	r2, [pc, #636]	@ (8005328 <UART_SetConfig+0x568>)
 80050ac:	4293      	cmp	r3, r2
 80050ae:	d17a      	bne.n	80051a6 <UART_SetConfig+0x3e6>
 80050b0:	f897 3023 	ldrb.w	r3, [r7, #35]	@ 0x23
 80050b4:	2b08      	cmp	r3, #8
 80050b6:	d824      	bhi.n	8005102 <UART_SetConfig+0x342>
 80050b8:	a201      	add	r2, pc, #4	@ (adr r2, 80050c0 <UART_SetConfig+0x300>)
 80050ba:	f852 f023 	ldr.w	pc, [r2, r3, lsl #2]
 80050be:	bf00      	nop
 80050c0:	080050e5 	.word	0x080050e5
 80050c4:	08005103 	.word	0x08005103
 80050c8:	080050ed 	.word	0x080050ed
 80050cc:	08005103 	.word	0x08005103
 80050d0:	080050f3 	.word	0x080050f3
 80050d4:	08005103 	.word	0x08005103
 80050d8:	08005103 	.word	0x08005103
 80050dc:	08005103 	.word	0x08005103
 80050e0:	080050fb 	.word	0x080050fb
 80050e4:	f7fd fbca 	bl	800287c <HAL_RCC_GetPCLK1Freq>
 80050e8:	61f8      	str	r0, [r7, #28]
 80050ea:	e010      	b.n	800510e <UART_SetConfig+0x34e>
 80050ec:	4b8f      	ldr	r3, [pc, #572]	@ (800532c <UART_SetConfig+0x56c>)
 80050ee:	61fb      	str	r3, [r7, #28]
 80050f0:	e00d      	b.n	800510e <UART_SetConfig+0x34e>
 80050f2:	f7fd fb2b 	bl	800274c <HAL_RCC_GetSysClockFreq>
 80050f6:	61f8      	str	r0, [r7, #28]
 80050f8:	e009      	b.n	800510e <UART_SetConfig+0x34e>
 80050fa:	f44f 4300 	mov.w	r3, #32768	@ 0x8000
 80050fe:	61fb      	str	r3, [r7, #28]
 8005100:	e005      	b.n	800510e <UART_SetConfig+0x34e>
 8005102:	2300      	movs	r3, #0
 8005104:	61fb      	str	r3, [r7, #28]
 8005106:	2301      	movs	r3, #1
 8005108:	f887 3022 	strb.w	r3, [r7, #34]	@ 0x22
 800510c:	bf00      	nop
 800510e:	69fb      	ldr	r3, [r7, #28]
 8005110:	2b00      	cmp	r3, #0
 8005112:	f000 80fb 	beq.w	800530c <UART_SetConfig+0x54c>
 8005116:	68fb      	ldr	r3, [r7, #12]
 8005118:	685a      	ldr	r2, [r3, #4]
 800511a:	4613      	mov	r3, r2
 800511c:	005b      	lsls	r3, r3, #1
 800511e:	4413      	add	r3, r2
 8005120:	69fa      	ldr	r2, [r7, #28]
 8005122:	429a      	cmp	r2, r3
 8005124:	d305      	bcc.n	8005132 <UART_SetConfig+0x372>
 8005126:	68fb      	ldr	r3, [r7, #12]
 8005128:	685b      	ldr	r3, [r3, #4]
 800512a:	031b      	lsls	r3, r3, #12
 800512c:	69fa      	ldr	r2, [r7, #28]
 800512e:	429a      	cmp	r2, r3
 8005130:	d903      	bls.n	800513a <UART_SetConfig+0x37a>
 8005132:	2301      	movs	r3, #1
 8005134:	f887 3022 	strb.w	r3, [r7, #34]	@ 0x22
 8005138:	e0e8      	b.n	800530c <UART_SetConfig+0x54c>
 800513a:	69fb      	ldr	r3, [r7, #28]
 800513c:	2200      	movs	r2, #0
 800513e:	461c      	mov	r4, r3
 8005140:	4615      	mov	r5, r2
 8005142:	f04f 0200 	mov.w	r2, #0
 8005146:	f04f 0300 	mov.w	r3, #0
 800514a:	022b      	lsls	r3, r5, #8
 800514c:	ea43 6314 	orr.w	r3, r3, r4, lsr #24
 8005150:	0222      	lsls	r2, r4, #8
 8005152:	68f9      	ldr	r1, [r7, #12]
 8005154:	6849      	ldr	r1, [r1, #4]
 8005156:	0849      	lsrs	r1, r1, #1
 8005158:	2000      	movs	r0, #0
 800515a:	4688      	mov	r8, r1
 800515c:	4681      	mov	r9, r0
 800515e:	eb12 0a08 	adds.w	sl, r2, r8
 8005162:	eb43 0b09 	adc.w	fp, r3, r9
 8005166:	68fb      	ldr	r3, [r7, #12]
 8005168:	685b      	ldr	r3, [r3, #4]
 800516a:	2200      	movs	r2, #0
 800516c:	603b      	str	r3, [r7, #0]
 800516e:	607a      	str	r2, [r7, #4]
 8005170:	e9d7 2300 	ldrd	r2, r3, [r7]
 8005174:	4650      	mov	r0, sl
 8005176:	4659      	mov	r1, fp
 8005178:	f7fb f882 	bl	8000280 <__aeabi_uldivmod>
 800517c:	4602      	mov	r2, r0
 800517e:	460b      	mov	r3, r1
 8005180:	4613      	mov	r3, r2
 8005182:	61bb      	str	r3, [r7, #24]
 8005184:	69bb      	ldr	r3, [r7, #24]
 8005186:	f5b3 7f40 	cmp.w	r3, #768	@ 0x300
 800518a:	d308      	bcc.n	800519e <UART_SetConfig+0x3de>
 800518c:	69bb      	ldr	r3, [r7, #24]
 800518e:	f5b3 1f80 	cmp.w	r3, #1048576	@ 0x100000
 8005192:	d204      	bcs.n	800519e <UART_SetConfig+0x3de>
 8005194:	68fb      	ldr	r3, [r7, #12]
 8005196:	681b      	ldr	r3, [r3, #0]
 8005198:	69ba      	ldr	r2, [r7, #24]
 800519a:	60da      	str	r2, [r3, #12]
 800519c:	e0b6      	b.n	800530c <UART_SetConfig+0x54c>
 800519e:	2301      	movs	r3, #1
 80051a0:	f887 3022 	strb.w	r3, [r7, #34]	@ 0x22
 80051a4:	e0b2      	b.n	800530c <UART_SetConfig+0x54c>
 80051a6:	68fb      	ldr	r3, [r7, #12]
 80051a8:	69db      	ldr	r3, [r3, #28]
 80051aa:	f5b3 4f00 	cmp.w	r3, #32768	@ 0x8000
 80051ae:	d15e      	bne.n	800526e <UART_SetConfig+0x4ae>
 80051b0:	f897 3023 	ldrb.w	r3, [r7, #35]	@ 0x23
 80051b4:	2b08      	cmp	r3, #8
 80051b6:	d828      	bhi.n	800520a <UART_SetConfig+0x44a>
 80051b8:	a201      	add	r2, pc, #4	@ (adr r2, 80051c0 <UART_SetConfig+0x400>)
 80051ba:	f852 f023 	ldr.w	pc, [r2, r3, lsl #2]
 80051be:	bf00      	nop
 80051c0:	080051e5 	.word	0x080051e5
 80051c4:	080051ed 	.word	0x080051ed
 80051c8:	080051f5 	.word	0x080051f5
 80051cc:	0800520b 	.word	0x0800520b
 80051d0:	080051fb 	.word	0x080051fb
 80051d4:	0800520b 	.word	0x0800520b
 80051d8:	0800520b 	.word	0x0800520b
 80051dc:	0800520b 	.word	0x0800520b
 80051e0:	08005203 	.word	0x08005203
 80051e4:	f7fd fb4a 	bl	800287c <HAL_RCC_GetPCLK1Freq>
 80051e8:	61f8      	str	r0, [r7, #28]
 80051ea:	e014      	b.n	8005216 <UART_SetConfig+0x456>
 80051ec:	f7fd fb5c 	bl	80028a8 <HAL_RCC_GetPCLK2Freq>
 80051f0:	61f8      	str	r0, [r7, #28]
 80051f2:	e010      	b.n	8005216 <UART_SetConfig+0x456>
 80051f4:	4b4d      	ldr	r3, [pc, #308]	@ (800532c <UART_SetConfig+0x56c>)
 80051f6:	61fb      	str	r3, [r7, #28]
 80051f8:	e00d      	b.n	8005216 <UART_SetConfig+0x456>
 80051fa:	f7fd faa7 	bl	800274c <HAL_RCC_GetSysClockFreq>
 80051fe:	61f8      	str	r0, [r7, #28]
 8005200:	e009      	b.n	8005216 <UART_SetConfig+0x456>
 8005202:	f44f 4300 	mov.w	r3, #32768	@ 0x8000
 8005206:	61fb      	str	r3, [r7, #28]
 8005208:	e005      	b.n	8005216 <UART_SetConfig+0x456>
 800520a:	2300      	movs	r3, #0
 800520c:	61fb      	str	r3, [r7, #28]
 800520e:	2301      	movs	r3, #1
 8005210:	f887 3022 	strb.w	r3, [r7, #34]	@ 0x22
 8005214:	bf00      	nop
 8005216:	69fb      	ldr	r3, [r7, #28]
 8005218:	2b00      	cmp	r3, #0
 800521a:	d077      	beq.n	800530c <UART_SetConfig+0x54c>
 800521c:	69fb      	ldr	r3, [r7, #28]
 800521e:	005a      	lsls	r2, r3, #1
 8005220:	68fb      	ldr	r3, [r7, #12]
 8005222:	685b      	ldr	r3, [r3, #4]
 8005224:	085b      	lsrs	r3, r3, #1
 8005226:	441a      	add	r2, r3
 8005228:	68fb      	ldr	r3, [r7, #12]
 800522a:	685b      	ldr	r3, [r3, #4]
 800522c:	fbb2 f3f3 	udiv	r3, r2, r3
 8005230:	61bb      	str	r3, [r7, #24]
 8005232:	69bb      	ldr	r3, [r7, #24]
 8005234:	2b0f      	cmp	r3, #15
 8005236:	d916      	bls.n	8005266 <UART_SetConfig+0x4a6>
 8005238:	69bb      	ldr	r3, [r7, #24]
 800523a:	f5b3 3f80 	cmp.w	r3, #65536	@ 0x10000
 800523e:	d212      	bcs.n	8005266 <UART_SetConfig+0x4a6>
 8005240:	69bb      	ldr	r3, [r7, #24]
 8005242:	b29b      	uxth	r3, r3
 8005244:	f023 030f 	bic.w	r3, r3, #15
 8005248:	82fb      	strh	r3, [r7, #22]
 800524a:	69bb      	ldr	r3, [r7, #24]
 800524c:	085b      	lsrs	r3, r3, #1
 800524e:	b29b      	uxth	r3, r3
 8005250:	f003 0307 	and.w	r3, r3, #7
 8005254:	b29a      	uxth	r2, r3
 8005256:	8afb      	ldrh	r3, [r7, #22]
 8005258:	4313      	orrs	r3, r2
 800525a:	82fb      	strh	r3, [r7, #22]
 800525c:	68fb      	ldr	r3, [r7, #12]
 800525e:	681b      	ldr	r3, [r3, #0]
 8005260:	8afa      	ldrh	r2, [r7, #22]
 8005262:	60da      	str	r2, [r3, #12]
 8005264:	e052      	b.n	800530c <UART_SetConfig+0x54c>
 8005266:	2301      	movs	r3, #1
 8005268:	f887 3022 	strb.w	r3, [r7, #34]	@ 0x22
 800526c:	e04e      	b.n	800530c <UART_SetConfig+0x54c>
 800526e:	f897 3023 	ldrb.w	r3, [r7, #35]	@ 0x23
 8005272:	2b08      	cmp	r3, #8
 8005274:	d827      	bhi.n	80052c6 <UART_SetConfig+0x506>
 8005276:	a201      	add	r2, pc, #4	@ (adr r2, 800527c <UART_SetConfig+0x4bc>)
 8005278:	f852 f023 	ldr.w	pc, [r2, r3, lsl #2]
 800527c:	080052a1 	.word	0x080052a1
 8005280:	080052a9 	.word	0x080052a9
 8005284:	080052b1 	.word	0x080052b1
 8005288:	080052c7 	.word	0x080052c7
 800528c:	080052b7 	.word	0x080052b7
 8005290:	080052c7 	.word	0x080052c7
 8005294:	080052c7 	.word	0x080052c7
 8005298:	080052c7 	.word	0x080052c7
 800529c:	080052bf 	.word	0x080052bf
 80052a0:	f7fd faec 	bl	800287c <HAL_RCC_GetPCLK1Freq>
 80052a4:	61f8      	str	r0, [r7, #28]
 80052a6:	e014      	b.n	80052d2 <UART_SetConfig+0x512>
 80052a8:	f7fd fafe 	bl	80028a8 <HAL_RCC_GetPCLK2Freq>
 80052ac:	61f8      	str	r0, [r7, #28]
 80052ae:	e010      	b.n	80052d2 <UART_SetConfig+0x512>
 80052b0:	4b1e      	ldr	r3, [pc, #120]	@ (800532c <UART_SetConfig+0x56c>)
 80052b2:	61fb      	str	r3, [r7, #28]
 80052b4:	e00d      	b.n	80052d2 <UART_SetConfig+0x512>
 80052b6:	f7fd fa49 	bl	800274c <HAL_RCC_GetSysClockFreq>
 80052ba:	61f8      	str	r0, [r7, #28]
 80052bc:	e009      	b.n	80052d2 <UART_SetConfig+0x512>
 80052be:	f44f 4300 	mov.w	r3, #32768	@ 0x8000
 80052c2:	61fb      	str	r3, [r7, #28]
 80052c4:	e005      	b.n	80052d2 <UART_SetConfig+0x512>
 80052c6:	2300      	movs	r3, #0
 80052c8:	61fb      	str	r3, [r7, #28]
 80052ca:	2301      	movs	r3, #1
 80052cc:	f887 3022 	strb.w	r3, [r7, #34]	@ 0x22
 80052d0:	bf00      	nop
 80052d2:	69fb      	ldr	r3, [r7, #28]
 80052d4:	2b00      	cmp	r3, #0
 80052d6:	d019      	beq.n	800530c <UART_SetConfig+0x54c>
 80052d8:	68fb      	ldr	r3, [r7, #12]
 80052da:	685b      	ldr	r3, [r3, #4]
 80052dc:	085a      	lsrs	r2, r3, #1
 80052de:	69fb      	ldr	r3, [r7, #28]
 80052e0:	441a      	add	r2, r3
 80052e2:	68fb      	ldr	r3, [r7, #12]
 80052e4:	685b      	ldr	r3, [r3, #4]
 80052e6:	fbb2 f3f3 	udiv	r3, r2, r3
 80052ea:	61bb      	str	r3, [r7, #24]
 80052ec:	69bb      	ldr	r3, [r7, #24]
 80052ee:	2b0f      	cmp	r3, #15
 80052f0:	d909      	bls.n	8005306 <UART_SetConfig+0x546>
 80052f2:	69bb      	ldr	r3, [r7, #24]
 80052f4:	f5b3 3f80 	cmp.w	r3, #65536	@ 0x10000
 80052f8:	d205      	bcs.n	8005306 <UART_SetConfig+0x546>
 80052fa:	69bb      	ldr	r3, [r7, #24]
 80052fc:	b29a      	uxth	r2, r3
 80052fe:	68fb      	ldr	r3, [r7, #12]
 8005300:	681b      	ldr	r3, [r3, #0]
 8005302:	60da      	str	r2, [r3, #12]
 8005304:	e002      	b.n	800530c <UART_SetConfig+0x54c>
 8005306:	2301      	movs	r3, #1
 8005308:	f887 3022 	strb.w	r3, [r7, #34]	@ 0x22
 800530c:	68fb      	ldr	r3, [r7, #12]
 800530e:	2200      	movs	r2, #0
 8005310:	669a      	str	r2, [r3, #104]	@ 0x68
 8005312:	68fb      	ldr	r3, [r7, #12]
 8005314:	2200      	movs	r2, #0
 8005316:	66da      	str	r2, [r3, #108]	@ 0x6c
 8005318:	f897 3022 	ldrb.w	r3, [r7, #34]	@ 0x22
 800531c:	4618      	mov	r0, r3
 800531e:	3728      	adds	r7, #40	@ 0x28
 8005320:	46bd      	mov	sp, r7
 8005322:	e8bd 8fb0 	ldmia.w	sp!, {r4, r5, r7, r8, r9, sl, fp, pc}
 8005326:	bf00      	nop
 8005328:	40008000 	.word	0x40008000
 800532c:	00f42400 	.word	0x00f42400

08005330 <UART_AdvFeatureConfig>:
 8005330:	b480      	push	{r7}
 8005332:	b083      	sub	sp, #12
 8005334:	af00      	add	r7, sp, #0
 8005336:	6078      	str	r0, [r7, #4]
 8005338:	687b      	ldr	r3, [r7, #4]
 800533a:	6a5b      	ldr	r3, [r3, #36]	@ 0x24
 800533c:	f003 0308 	and.w	r3, r3, #8
 8005340:	2b00      	cmp	r3, #0
 8005342:	d00a      	beq.n	800535a <UART_AdvFeatureConfig+0x2a>
 8005344:	687b      	ldr	r3, [r7, #4]
 8005346:	681b      	ldr	r3, [r3, #0]
 8005348:	685b      	ldr	r3, [r3, #4]
 800534a:	f423 4100 	bic.w	r1, r3, #32768	@ 0x8000
 800534e:	687b      	ldr	r3, [r7, #4]
 8005350:	6b5a      	ldr	r2, [r3, #52]	@ 0x34
 8005352:	687b      	ldr	r3, [r7, #4]
 8005354:	681b      	ldr	r3, [r3, #0]
 8005356:	430a      	orrs	r2, r1
 8005358:	605a      	str	r2, [r3, #4]
 800535a:	687b      	ldr	r3, [r7, #4]
 800535c:	6a5b      	ldr	r3, [r3, #36]	@ 0x24
 800535e:	f003 0301 	and.w	r3, r3, #1
 8005362:	2b00      	cmp	r3, #0
 8005364:	d00a      	beq.n	800537c <UART_AdvFeatureConfig+0x4c>
 8005366:	687b      	ldr	r3, [r7, #4]
 8005368:	681b      	ldr	r3, [r3, #0]
 800536a:	685b      	ldr	r3, [r3, #4]
 800536c:	f423 3100 	bic.w	r1, r3, #131072	@ 0x20000
 8005370:	687b      	ldr	r3, [r7, #4]
 8005372:	6a9a      	ldr	r2, [r3, #40]	@ 0x28
 8005374:	687b      	ldr	r3, [r7, #4]
 8005376:	681b      	ldr	r3, [r3, #0]
 8005378:	430a      	orrs	r2, r1
 800537a:	605a      	str	r2, [r3, #4]
 800537c:	687b      	ldr	r3, [r7, #4]
 800537e:	6a5b      	ldr	r3, [r3, #36]	@ 0x24
 8005380:	f003 0302 	and.w	r3, r3, #2
 8005384:	2b00      	cmp	r3, #0
 8005386:	d00a      	beq.n	800539e <UART_AdvFeatureConfig+0x6e>
 8005388:	687b      	ldr	r3, [r7, #4]
 800538a:	681b      	ldr	r3, [r3, #0]
 800538c:	685b      	ldr	r3, [r3, #4]
 800538e:	f423 3180 	bic.w	r1, r3, #65536	@ 0x10000
 8005392:	687b      	ldr	r3, [r7, #4]
 8005394:	6ada      	ldr	r2, [r3, #44]	@ 0x2c
 8005396:	687b      	ldr	r3, [r7, #4]
 8005398:	681b      	ldr	r3, [r3, #0]
 800539a:	430a      	orrs	r2, r1
 800539c:	605a      	str	r2, [r3, #4]
 800539e:	687b      	ldr	r3, [r7, #4]
 80053a0:	6a5b      	ldr	r3, [r3, #36]	@ 0x24
 80053a2:	f003 0304 	and.w	r3, r3, #4
 80053a6:	2b00      	cmp	r3, #0
 80053a8:	d00a      	beq.n	80053c0 <UART_AdvFeatureConfig+0x90>
 80053aa:	687b      	ldr	r3, [r7, #4]
 80053ac:	681b      	ldr	r3, [r3, #0]
 80053ae:	685b      	ldr	r3, [r3, #4]
 80053b0:	f423 2180 	bic.w	r1, r3, #262144	@ 0x40000
 80053b4:	687b      	ldr	r3, [r7, #4]
 80053b6:	6b1a      	ldr	r2, [r3, #48]	@ 0x30
 80053b8:	687b      	ldr	r3, [r7, #4]
 80053ba:	681b      	ldr	r3, [r3, #0]
 80053bc:	430a      	orrs	r2, r1
 80053be:	605a      	str	r2, [r3, #4]
 80053c0:	687b      	ldr	r3, [r7, #4]
 80053c2:	6a5b      	ldr	r3, [r3, #36]	@ 0x24
 80053c4:	f003 0310 	and.w	r3, r3, #16
 80053c8:	2b00      	cmp	r3, #0
 80053ca:	d00a      	beq.n	80053e2 <UART_AdvFeatureConfig+0xb2>
 80053cc:	687b      	ldr	r3, [r7, #4]
 80053ce:	681b      	ldr	r3, [r3, #0]
 80053d0:	689b      	ldr	r3, [r3, #8]
 80053d2:	f423 5180 	bic.w	r1, r3, #4096	@ 0x1000
 80053d6:	687b      	ldr	r3, [r7, #4]
 80053d8:	6b9a      	ldr	r2, [r3, #56]	@ 0x38
 80053da:	687b      	ldr	r3, [r7, #4]
 80053dc:	681b      	ldr	r3, [r3, #0]
 80053de:	430a      	orrs	r2, r1
 80053e0:	609a      	str	r2, [r3, #8]
 80053e2:	687b      	ldr	r3, [r7, #4]
 80053e4:	6a5b      	ldr	r3, [r3, #36]	@ 0x24
 80053e6:	f003 0320 	and.w	r3, r3, #32
 80053ea:	2b00      	cmp	r3, #0
 80053ec:	d00a      	beq.n	8005404 <UART_AdvFeatureConfig+0xd4>
 80053ee:	687b      	ldr	r3, [r7, #4]
 80053f0:	681b      	ldr	r3, [r3, #0]
 80053f2:	689b      	ldr	r3, [r3, #8]
 80053f4:	f423 5100 	bic.w	r1, r3, #8192	@ 0x2000
 80053f8:	687b      	ldr	r3, [r7, #4]
 80053fa:	6bda      	ldr	r2, [r3, #60]	@ 0x3c
 80053fc:	687b      	ldr	r3, [r7, #4]
 80053fe:	681b      	ldr	r3, [r3, #0]
 8005400:	430a      	orrs	r2, r1
 8005402:	609a      	str	r2, [r3, #8]
 8005404:	687b      	ldr	r3, [r7, #4]
 8005406:	6a5b      	ldr	r3, [r3, #36]	@ 0x24
 8005408:	f003 0340 	and.w	r3, r3, #64	@ 0x40
 800540c:	2b00      	cmp	r3, #0
 800540e:	d01a      	beq.n	8005446 <UART_AdvFeatureConfig+0x116>
 8005410:	687b      	ldr	r3, [r7, #4]
 8005412:	681b      	ldr	r3, [r3, #0]
 8005414:	685b      	ldr	r3, [r3, #4]
 8005416:	f423 1180 	bic.w	r1, r3, #1048576	@ 0x100000
 800541a:	687b      	ldr	r3, [r7, #4]
 800541c:	6c1a      	ldr	r2, [r3, #64]	@ 0x40
 800541e:	687b      	ldr	r3, [r7, #4]
 8005420:	681b      	ldr	r3, [r3, #0]
 8005422:	430a      	orrs	r2, r1
 8005424:	605a      	str	r2, [r3, #4]
 8005426:	687b      	ldr	r3, [r7, #4]
 8005428:	6c1b      	ldr	r3, [r3, #64]	@ 0x40
 800542a:	f5b3 1f80 	cmp.w	r3, #1048576	@ 0x100000
 800542e:	d10a      	bne.n	8005446 <UART_AdvFeatureConfig+0x116>
 8005430:	687b      	ldr	r3, [r7, #4]
 8005432:	681b      	ldr	r3, [r3, #0]
 8005434:	685b      	ldr	r3, [r3, #4]
 8005436:	f423 01c0 	bic.w	r1, r3, #6291456	@ 0x600000
 800543a:	687b      	ldr	r3, [r7, #4]
 800543c:	6c5a      	ldr	r2, [r3, #68]	@ 0x44
 800543e:	687b      	ldr	r3, [r7, #4]
 8005440:	681b      	ldr	r3, [r3, #0]
 8005442:	430a      	orrs	r2, r1
 8005444:	605a      	str	r2, [r3, #4]
 8005446:	687b      	ldr	r3, [r7, #4]
 8005448:	6a5b      	ldr	r3, [r3, #36]	@ 0x24
 800544a:	f003 0380 	and.w	r3, r3, #128	@ 0x80
 800544e:	2b00      	cmp	r3, #0
 8005450:	d00a      	beq.n	8005468 <UART_AdvFeatureConfig+0x138>
 8005452:	687b      	ldr	r3, [r7, #4]
 8005454:	681b      	ldr	r3, [r3, #0]
 8005456:	685b      	ldr	r3, [r3, #4]
 8005458:	f423 2100 	bic.w	r1, r3, #524288	@ 0x80000
 800545c:	687b      	ldr	r3, [r7, #4]
 800545e:	6c9a      	ldr	r2, [r3, #72]	@ 0x48
 8005460:	687b      	ldr	r3, [r7, #4]
 8005462:	681b      	ldr	r3, [r3, #0]
 8005464:	430a      	orrs	r2, r1
 8005466:	605a      	str	r2, [r3, #4]
 8005468:	bf00      	nop
 800546a:	370c      	adds	r7, #12
 800546c:	46bd      	mov	sp, r7
 800546e:	f85d 7b04 	ldr.w	r7, [sp], #4
 8005472:	4770      	bx	lr

08005474 <UART_CheckIdleState>:
 8005474:	b580      	push	{r7, lr}
 8005476:	b098      	sub	sp, #96	@ 0x60
 8005478:	af02      	add	r7, sp, #8
 800547a:	6078      	str	r0, [r7, #4]
 800547c:	687b      	ldr	r3, [r7, #4]
 800547e:	2200      	movs	r2, #0
 8005480:	f8c3 2084 	str.w	r2, [r3, #132]	@ 0x84
 8005484:	f7fc f8ce 	bl	8001624 <HAL_GetTick>
 8005488:	6578      	str	r0, [r7, #84]	@ 0x54
 800548a:	687b      	ldr	r3, [r7, #4]
 800548c:	681b      	ldr	r3, [r3, #0]
 800548e:	681b      	ldr	r3, [r3, #0]
 8005490:	f003 0308 	and.w	r3, r3, #8
 8005494:	2b08      	cmp	r3, #8
 8005496:	d12e      	bne.n	80054f6 <UART_CheckIdleState+0x82>
 8005498:	f06f 437e 	mvn.w	r3, #4261412864	@ 0xfe000000
 800549c:	9300      	str	r3, [sp, #0]
 800549e:	6d7b      	ldr	r3, [r7, #84]	@ 0x54
 80054a0:	2200      	movs	r2, #0
 80054a2:	f44f 1100 	mov.w	r1, #2097152	@ 0x200000
 80054a6:	6878      	ldr	r0, [r7, #4]
 80054a8:	f000 f88c 	bl	80055c4 <UART_WaitOnFlagUntilTimeout>
 80054ac:	4603      	mov	r3, r0
 80054ae:	2b00      	cmp	r3, #0
 80054b0:	d021      	beq.n	80054f6 <UART_CheckIdleState+0x82>
 80054b2:	687b      	ldr	r3, [r7, #4]
 80054b4:	681b      	ldr	r3, [r3, #0]
 80054b6:	63bb      	str	r3, [r7, #56]	@ 0x38
 80054b8:	6bbb      	ldr	r3, [r7, #56]	@ 0x38
 80054ba:	e853 3f00 	ldrex	r3, [r3]
 80054be:	637b      	str	r3, [r7, #52]	@ 0x34
 80054c0:	6b7b      	ldr	r3, [r7, #52]	@ 0x34
 80054c2:	f023 0380 	bic.w	r3, r3, #128	@ 0x80
 80054c6:	653b      	str	r3, [r7, #80]	@ 0x50
 80054c8:	687b      	ldr	r3, [r7, #4]
 80054ca:	681b      	ldr	r3, [r3, #0]
 80054cc:	461a      	mov	r2, r3
 80054ce:	6d3b      	ldr	r3, [r7, #80]	@ 0x50
 80054d0:	647b      	str	r3, [r7, #68]	@ 0x44
 80054d2:	643a      	str	r2, [r7, #64]	@ 0x40
 80054d4:	6c39      	ldr	r1, [r7, #64]	@ 0x40
 80054d6:	6c7a      	ldr	r2, [r7, #68]	@ 0x44
 80054d8:	e841 2300 	strex	r3, r2, [r1]
 80054dc:	63fb      	str	r3, [r7, #60]	@ 0x3c
 80054de:	6bfb      	ldr	r3, [r7, #60]	@ 0x3c
 80054e0:	2b00      	cmp	r3, #0
 80054e2:	d1e6      	bne.n	80054b2 <UART_CheckIdleState+0x3e>
 80054e4:	687b      	ldr	r3, [r7, #4]
 80054e6:	2220      	movs	r2, #32
 80054e8:	67da      	str	r2, [r3, #124]	@ 0x7c
 80054ea:	687b      	ldr	r3, [r7, #4]
 80054ec:	2200      	movs	r2, #0
 80054ee:	f883 2078 	strb.w	r2, [r3, #120]	@ 0x78
 80054f2:	2303      	movs	r3, #3
 80054f4:	e062      	b.n	80055bc <UART_CheckIdleState+0x148>
 80054f6:	687b      	ldr	r3, [r7, #4]
 80054f8:	681b      	ldr	r3, [r3, #0]
 80054fa:	681b      	ldr	r3, [r3, #0]
 80054fc:	f003 0304 	and.w	r3, r3, #4
 8005500:	2b04      	cmp	r3, #4
 8005502:	d149      	bne.n	8005598 <UART_CheckIdleState+0x124>
 8005504:	f06f 437e 	mvn.w	r3, #4261412864	@ 0xfe000000
 8005508:	9300      	str	r3, [sp, #0]
 800550a:	6d7b      	ldr	r3, [r7, #84]	@ 0x54
 800550c:	2200      	movs	r2, #0
 800550e:	f44f 0180 	mov.w	r1, #4194304	@ 0x400000
 8005512:	6878      	ldr	r0, [r7, #4]
 8005514:	f000 f856 	bl	80055c4 <UART_WaitOnFlagUntilTimeout>
 8005518:	4603      	mov	r3, r0
 800551a:	2b00      	cmp	r3, #0
 800551c:	d03c      	beq.n	8005598 <UART_CheckIdleState+0x124>
 800551e:	687b      	ldr	r3, [r7, #4]
 8005520:	681b      	ldr	r3, [r3, #0]
 8005522:	627b      	str	r3, [r7, #36]	@ 0x24
 8005524:	6a7b      	ldr	r3, [r7, #36]	@ 0x24
 8005526:	e853 3f00 	ldrex	r3, [r3]
 800552a:	623b      	str	r3, [r7, #32]
 800552c:	6a3b      	ldr	r3, [r7, #32]
 800552e:	f423 7390 	bic.w	r3, r3, #288	@ 0x120
 8005532:	64fb      	str	r3, [r7, #76]	@ 0x4c
 8005534:	687b      	ldr	r3, [r7, #4]
 8005536:	681b      	ldr	r3, [r3, #0]
 8005538:	461a      	mov	r2, r3
 800553a:	6cfb      	ldr	r3, [r7, #76]	@ 0x4c
 800553c:	633b      	str	r3, [r7, #48]	@ 0x30
 800553e:	62fa      	str	r2, [r7, #44]	@ 0x2c
 8005540:	6af9      	ldr	r1, [r7, #44]	@ 0x2c
 8005542:	6b3a      	ldr	r2, [r7, #48]	@ 0x30
 8005544:	e841 2300 	strex	r3, r2, [r1]
 8005548:	62bb      	str	r3, [r7, #40]	@ 0x28
 800554a:	6abb      	ldr	r3, [r7, #40]	@ 0x28
 800554c:	2b00      	cmp	r3, #0
 800554e:	d1e6      	bne.n	800551e <UART_CheckIdleState+0xaa>
 8005550:	687b      	ldr	r3, [r7, #4]
 8005552:	681b      	ldr	r3, [r3, #0]
 8005554:	3308      	adds	r3, #8
 8005556:	613b      	str	r3, [r7, #16]
 8005558:	693b      	ldr	r3, [r7, #16]
 800555a:	e853 3f00 	ldrex	r3, [r3]
 800555e:	60fb      	str	r3, [r7, #12]
 8005560:	68fb      	ldr	r3, [r7, #12]
 8005562:	f023 0301 	bic.w	r3, r3, #1
 8005566:	64bb      	str	r3, [r7, #72]	@ 0x48
 8005568:	687b      	ldr	r3, [r7, #4]
 800556a:	681b      	ldr	r3, [r3, #0]
 800556c:	3308      	adds	r3, #8
 800556e:	6cba      	ldr	r2, [r7, #72]	@ 0x48
 8005570:	61fa      	str	r2, [r7, #28]
 8005572:	61bb      	str	r3, [r7, #24]
 8005574:	69b9      	ldr	r1, [r7, #24]
 8005576:	69fa      	ldr	r2, [r7, #28]
 8005578:	e841 2300 	strex	r3, r2, [r1]
 800557c:	617b      	str	r3, [r7, #20]
 800557e:	697b      	ldr	r3, [r7, #20]
 8005580:	2b00      	cmp	r3, #0
 8005582:	d1e5      	bne.n	8005550 <UART_CheckIdleState+0xdc>
 8005584:	687b      	ldr	r3, [r7, #4]
 8005586:	2220      	movs	r2, #32
 8005588:	f8c3 2080 	str.w	r2, [r3, #128]	@ 0x80
 800558c:	687b      	ldr	r3, [r7, #4]
 800558e:	2200      	movs	r2, #0
 8005590:	f883 2078 	strb.w	r2, [r3, #120]	@ 0x78
 8005594:	2303      	movs	r3, #3
 8005596:	e011      	b.n	80055bc <UART_CheckIdleState+0x148>
 8005598:	687b      	ldr	r3, [r7, #4]
 800559a:	2220      	movs	r2, #32
 800559c:	67da      	str	r2, [r3, #124]	@ 0x7c
 800559e:	687b      	ldr	r3, [r7, #4]
 80055a0:	2220      	movs	r2, #32
 80055a2:	f8c3 2080 	str.w	r2, [r3, #128]	@ 0x80
 80055a6:	687b      	ldr	r3, [r7, #4]
 80055a8:	2200      	movs	r2, #0
 80055aa:	661a      	str	r2, [r3, #96]	@ 0x60
 80055ac:	687b      	ldr	r3, [r7, #4]
 80055ae:	2200      	movs	r2, #0
 80055b0:	665a      	str	r2, [r3, #100]	@ 0x64
 80055b2:	687b      	ldr	r3, [r7, #4]
 80055b4:	2200      	movs	r2, #0
 80055b6:	f883 2078 	strb.w	r2, [r3, #120]	@ 0x78
 80055ba:	2300      	movs	r3, #0
 80055bc:	4618      	mov	r0, r3
 80055be:	3758      	adds	r7, #88	@ 0x58
 80055c0:	46bd      	mov	sp, r7
 80055c2:	bd80      	pop	{r7, pc}

080055c4 <UART_WaitOnFlagUntilTimeout>:
 80055c4:	b580      	push	{r7, lr}
 80055c6:	b084      	sub	sp, #16
 80055c8:	af00      	add	r7, sp, #0
 80055ca:	60f8      	str	r0, [r7, #12]
 80055cc:	60b9      	str	r1, [r7, #8]
 80055ce:	603b      	str	r3, [r7, #0]
 80055d0:	4613      	mov	r3, r2
 80055d2:	71fb      	strb	r3, [r7, #7]
 80055d4:	e04f      	b.n	8005676 <UART_WaitOnFlagUntilTimeout+0xb2>
 80055d6:	69bb      	ldr	r3, [r7, #24]
 80055d8:	f1b3 3fff 	cmp.w	r3, #4294967295
 80055dc:	d04b      	beq.n	8005676 <UART_WaitOnFlagUntilTimeout+0xb2>
 80055de:	f7fc f821 	bl	8001624 <HAL_GetTick>
 80055e2:	4602      	mov	r2, r0
 80055e4:	683b      	ldr	r3, [r7, #0]
 80055e6:	1ad3      	subs	r3, r2, r3
 80055e8:	69ba      	ldr	r2, [r7, #24]
 80055ea:	429a      	cmp	r2, r3
 80055ec:	d302      	bcc.n	80055f4 <UART_WaitOnFlagUntilTimeout+0x30>
 80055ee:	69bb      	ldr	r3, [r7, #24]
 80055f0:	2b00      	cmp	r3, #0
 80055f2:	d101      	bne.n	80055f8 <UART_WaitOnFlagUntilTimeout+0x34>
 80055f4:	2303      	movs	r3, #3
 80055f6:	e04e      	b.n	8005696 <UART_WaitOnFlagUntilTimeout+0xd2>
 80055f8:	68fb      	ldr	r3, [r7, #12]
 80055fa:	681b      	ldr	r3, [r3, #0]
 80055fc:	681b      	ldr	r3, [r3, #0]
 80055fe:	f003 0304 	and.w	r3, r3, #4
 8005602:	2b00      	cmp	r3, #0
 8005604:	d037      	beq.n	8005676 <UART_WaitOnFlagUntilTimeout+0xb2>
 8005606:	68bb      	ldr	r3, [r7, #8]
 8005608:	2b80      	cmp	r3, #128	@ 0x80
 800560a:	d034      	beq.n	8005676 <UART_WaitOnFlagUntilTimeout+0xb2>
 800560c:	68bb      	ldr	r3, [r7, #8]
 800560e:	2b40      	cmp	r3, #64	@ 0x40
 8005610:	d031      	beq.n	8005676 <UART_WaitOnFlagUntilTimeout+0xb2>
 8005612:	68fb      	ldr	r3, [r7, #12]
 8005614:	681b      	ldr	r3, [r3, #0]
 8005616:	69db      	ldr	r3, [r3, #28]
 8005618:	f003 0308 	and.w	r3, r3, #8
 800561c:	2b08      	cmp	r3, #8
 800561e:	d110      	bne.n	8005642 <UART_WaitOnFlagUntilTimeout+0x7e>
 8005620:	68fb      	ldr	r3, [r7, #12]
 8005622:	681b      	ldr	r3, [r3, #0]
 8005624:	2208      	movs	r2, #8
 8005626:	621a      	str	r2, [r3, #32]
 8005628:	68f8      	ldr	r0, [r7, #12]
 800562a:	f000 f838 	bl	800569e <UART_EndRxTransfer>
 800562e:	68fb      	ldr	r3, [r7, #12]
 8005630:	2208      	movs	r2, #8
 8005632:	f8c3 2084 	str.w	r2, [r3, #132]	@ 0x84
 8005636:	68fb      	ldr	r3, [r7, #12]
 8005638:	2200      	movs	r2, #0
 800563a:	f883 2078 	strb.w	r2, [r3, #120]	@ 0x78
 800563e:	2301      	movs	r3, #1
 8005640:	e029      	b.n	8005696 <UART_WaitOnFlagUntilTimeout+0xd2>
 8005642:	68fb      	ldr	r3, [r7, #12]
 8005644:	681b      	ldr	r3, [r3, #0]
 8005646:	69db      	ldr	r3, [r3, #28]
 8005648:	f403 6300 	and.w	r3, r3, #2048	@ 0x800
 800564c:	f5b3 6f00 	cmp.w	r3, #2048	@ 0x800
 8005650:	d111      	bne.n	8005676 <UART_WaitOnFlagUntilTimeout+0xb2>
 8005652:	68fb      	ldr	r3, [r7, #12]
 8005654:	681b      	ldr	r3, [r3, #0]
 8005656:	f44f 6200 	mov.w	r2, #2048	@ 0x800
 800565a:	621a      	str	r2, [r3, #32]
 800565c:	68f8      	ldr	r0, [r7, #12]
 800565e:	f000 f81e 	bl	800569e <UART_EndRxTransfer>
 8005662:	68fb      	ldr	r3, [r7, #12]
 8005664:	2220      	movs	r2, #32
 8005666:	f8c3 2084 	str.w	r2, [r3, #132]	@ 0x84
 800566a:	68fb      	ldr	r3, [r7, #12]
 800566c:	2200      	movs	r2, #0
 800566e:	f883 2078 	strb.w	r2, [r3, #120]	@ 0x78
 8005672:	2303      	movs	r3, #3
 8005674:	e00f      	b.n	8005696 <UART_WaitOnFlagUntilTimeout+0xd2>
 8005676:	68fb      	ldr	r3, [r7, #12]
 8005678:	681b      	ldr	r3, [r3, #0]
 800567a:	69da      	ldr	r2, [r3, #28]
 800567c:	68bb      	ldr	r3, [r7, #8]
 800567e:	4013      	ands	r3, r2
 8005680:	68ba      	ldr	r2, [r7, #8]
 8005682:	429a      	cmp	r2, r3
 8005684:	bf0c      	ite	eq
 8005686:	2301      	moveq	r3, #1
 8005688:	2300      	movne	r3, #0
 800568a:	b2db      	uxtb	r3, r3
 800568c:	461a      	mov	r2, r3
 800568e:	79fb      	ldrb	r3, [r7, #7]
 8005690:	429a      	cmp	r2, r3
 8005692:	d0a0      	beq.n	80055d6 <UART_WaitOnFlagUntilTimeout+0x12>
 8005694:	2300      	movs	r3, #0
 8005696:	4618      	mov	r0, r3
 8005698:	3710      	adds	r7, #16
 800569a:	46bd      	mov	sp, r7
 800569c:	bd80      	pop	{r7, pc}

0800569e <UART_EndRxTransfer>:
 800569e:	b480      	push	{r7}
 80056a0:	b095      	sub	sp, #84	@ 0x54
 80056a2:	af00      	add	r7, sp, #0
 80056a4:	6078      	str	r0, [r7, #4]
 80056a6:	687b      	ldr	r3, [r7, #4]
 80056a8:	681b      	ldr	r3, [r3, #0]
 80056aa:	637b      	str	r3, [r7, #52]	@ 0x34
 80056ac:	6b7b      	ldr	r3, [r7, #52]	@ 0x34
 80056ae:	e853 3f00 	ldrex	r3, [r3]
 80056b2:	633b      	str	r3, [r7, #48]	@ 0x30
 80056b4:	6b3b      	ldr	r3, [r7, #48]	@ 0x30
 80056b6:	f423 7390 	bic.w	r3, r3, #288	@ 0x120
 80056ba:	64fb      	str	r3, [r7, #76]	@ 0x4c
 80056bc:	687b      	ldr	r3, [r7, #4]
 80056be:	681b      	ldr	r3, [r3, #0]
 80056c0:	461a      	mov	r2, r3
 80056c2:	6cfb      	ldr	r3, [r7, #76]	@ 0x4c
 80056c4:	643b      	str	r3, [r7, #64]	@ 0x40
 80056c6:	63fa      	str	r2, [r7, #60]	@ 0x3c
 80056c8:	6bf9      	ldr	r1, [r7, #60]	@ 0x3c
 80056ca:	6c3a      	ldr	r2, [r7, #64]	@ 0x40
 80056cc:	e841 2300 	strex	r3, r2, [r1]
 80056d0:	63bb      	str	r3, [r7, #56]	@ 0x38
 80056d2:	6bbb      	ldr	r3, [r7, #56]	@ 0x38
 80056d4:	2b00      	cmp	r3, #0
 80056d6:	d1e6      	bne.n	80056a6 <UART_EndRxTransfer+0x8>
 80056d8:	687b      	ldr	r3, [r7, #4]
 80056da:	681b      	ldr	r3, [r3, #0]
 80056dc:	3308      	adds	r3, #8
 80056de:	623b      	str	r3, [r7, #32]
 80056e0:	6a3b      	ldr	r3, [r7, #32]
 80056e2:	e853 3f00 	ldrex	r3, [r3]
 80056e6:	61fb      	str	r3, [r7, #28]
 80056e8:	69fb      	ldr	r3, [r7, #28]
 80056ea:	f023 0301 	bic.w	r3, r3, #1
 80056ee:	64bb      	str	r3, [r7, #72]	@ 0x48
 80056f0:	687b      	ldr	r3, [r7, #4]
 80056f2:	681b      	ldr	r3, [r3, #0]
 80056f4:	3308      	adds	r3, #8
 80056f6:	6cba      	ldr	r2, [r7, #72]	@ 0x48
 80056f8:	62fa      	str	r2, [r7, #44]	@ 0x2c
 80056fa:	62bb      	str	r3, [r7, #40]	@ 0x28
 80056fc:	6ab9      	ldr	r1, [r7, #40]	@ 0x28
 80056fe:	6afa      	ldr	r2, [r7, #44]	@ 0x2c
 8005700:	e841 2300 	strex	r3, r2, [r1]
 8005704:	627b      	str	r3, [r7, #36]	@ 0x24
 8005706:	6a7b      	ldr	r3, [r7, #36]	@ 0x24
 8005708:	2b00      	cmp	r3, #0
 800570a:	d1e5      	bne.n	80056d8 <UART_EndRxTransfer+0x3a>
 800570c:	687b      	ldr	r3, [r7, #4]
 800570e:	6e1b      	ldr	r3, [r3, #96]	@ 0x60
 8005710:	2b01      	cmp	r3, #1
 8005712:	d118      	bne.n	8005746 <UART_EndRxTransfer+0xa8>
 8005714:	687b      	ldr	r3, [r7, #4]
 8005716:	681b      	ldr	r3, [r3, #0]
 8005718:	60fb      	str	r3, [r7, #12]
 800571a:	68fb      	ldr	r3, [r7, #12]
 800571c:	e853 3f00 	ldrex	r3, [r3]
 8005720:	60bb      	str	r3, [r7, #8]
 8005722:	68bb      	ldr	r3, [r7, #8]
 8005724:	f023 0310 	bic.w	r3, r3, #16
 8005728:	647b      	str	r3, [r7, #68]	@ 0x44
 800572a:	687b      	ldr	r3, [r7, #4]
 800572c:	681b      	ldr	r3, [r3, #0]
 800572e:	461a      	mov	r2, r3
 8005730:	6c7b      	ldr	r3, [r7, #68]	@ 0x44
 8005732:	61bb      	str	r3, [r7, #24]
 8005734:	617a      	str	r2, [r7, #20]
 8005736:	6979      	ldr	r1, [r7, #20]
 8005738:	69ba      	ldr	r2, [r7, #24]
 800573a:	e841 2300 	strex	r3, r2, [r1]
 800573e:	613b      	str	r3, [r7, #16]
 8005740:	693b      	ldr	r3, [r7, #16]
 8005742:	2b00      	cmp	r3, #0
 8005744:	d1e6      	bne.n	8005714 <UART_EndRxTransfer+0x76>
 8005746:	687b      	ldr	r3, [r7, #4]
 8005748:	2220      	movs	r2, #32
 800574a:	f8c3 2080 	str.w	r2, [r3, #128]	@ 0x80
 800574e:	687b      	ldr	r3, [r7, #4]
 8005750:	2200      	movs	r2, #0
 8005752:	661a      	str	r2, [r3, #96]	@ 0x60
 8005754:	687b      	ldr	r3, [r7, #4]
 8005756:	2200      	movs	r2, #0
 8005758:	669a      	str	r2, [r3, #104]	@ 0x68
 800575a:	bf00      	nop
 800575c:	3754      	adds	r7, #84	@ 0x54
 800575e:	46bd      	mov	sp, r7
 8005760:	f85d 7b04 	ldr.w	r7, [sp], #4
 8005764:	4770      	bx	lr

08005766 <UART_DMAAbortOnError>:
 8005766:	b580      	push	{r7, lr}
 8005768:	b084      	sub	sp, #16
 800576a:	af00      	add	r7, sp, #0
 800576c:	6078      	str	r0, [r7, #4]
 800576e:	687b      	ldr	r3, [r7, #4]
 8005770:	6a9b      	ldr	r3, [r3, #40]	@ 0x28
 8005772:	60fb      	str	r3, [r7, #12]
 8005774:	68fb      	ldr	r3, [r7, #12]
 8005776:	2200      	movs	r2, #0
 8005778:	f8a3 205a 	strh.w	r2, [r3, #90]	@ 0x5a
 800577c:	68fb      	ldr	r3, [r7, #12]
 800577e:	2200      	movs	r2, #0
 8005780:	f8a3 2052 	strh.w	r2, [r3, #82]	@ 0x52
 8005784:	68f8      	ldr	r0, [r7, #12]
 8005786:	f7ff fb05 	bl	8004d94 <HAL_UART_ErrorCallback>
 800578a:	bf00      	nop
 800578c:	3710      	adds	r7, #16
 800578e:	46bd      	mov	sp, r7
 8005790:	bd80      	pop	{r7, pc}

08005792 <UART_EndTransmit_IT>:
 8005792:	b580      	push	{r7, lr}
 8005794:	b088      	sub	sp, #32
 8005796:	af00      	add	r7, sp, #0
 8005798:	6078      	str	r0, [r7, #4]
 800579a:	687b      	ldr	r3, [r7, #4]
 800579c:	681b      	ldr	r3, [r3, #0]
 800579e:	60fb      	str	r3, [r7, #12]
 80057a0:	68fb      	ldr	r3, [r7, #12]
 80057a2:	e853 3f00 	ldrex	r3, [r3]
 80057a6:	60bb      	str	r3, [r7, #8]
 80057a8:	68bb      	ldr	r3, [r7, #8]
 80057aa:	f023 0340 	bic.w	r3, r3, #64	@ 0x40
 80057ae:	61fb      	str	r3, [r7, #28]
 80057b0:	687b      	ldr	r3, [r7, #4]
 80057b2:	681b      	ldr	r3, [r3, #0]
 80057b4:	461a      	mov	r2, r3
 80057b6:	69fb      	ldr	r3, [r7, #28]
 80057b8:	61bb      	str	r3, [r7, #24]
 80057ba:	617a      	str	r2, [r7, #20]
 80057bc:	6979      	ldr	r1, [r7, #20]
 80057be:	69ba      	ldr	r2, [r7, #24]
 80057c0:	e841 2300 	strex	r3, r2, [r1]
 80057c4:	613b      	str	r3, [r7, #16]
 80057c6:	693b      	ldr	r3, [r7, #16]
 80057c8:	2b00      	cmp	r3, #0
 80057ca:	d1e6      	bne.n	800579a <UART_EndTransmit_IT+0x8>
 80057cc:	687b      	ldr	r3, [r7, #4]
 80057ce:	2220      	movs	r2, #32
 80057d0:	67da      	str	r2, [r3, #124]	@ 0x7c
 80057d2:	687b      	ldr	r3, [r7, #4]
 80057d4:	2200      	movs	r2, #0
 80057d6:	66da      	str	r2, [r3, #108]	@ 0x6c
 80057d8:	6878      	ldr	r0, [r7, #4]
 80057da:	f7ff fad1 	bl	8004d80 <HAL_UART_TxCpltCallback>
 80057de:	bf00      	nop
 80057e0:	3720      	adds	r7, #32
 80057e2:	46bd      	mov	sp, r7
 80057e4:	bd80      	pop	{r7, pc}

080057e6 <HAL_UARTEx_WakeupCallback>:
 80057e6:	b480      	push	{r7}
 80057e8:	b083      	sub	sp, #12
 80057ea:	af00      	add	r7, sp, #0
 80057ec:	6078      	str	r0, [r7, #4]
 80057ee:	bf00      	nop
 80057f0:	370c      	adds	r7, #12
 80057f2:	46bd      	mov	sp, r7
 80057f4:	f85d 7b04 	ldr.w	r7, [sp], #4
 80057f8:	4770      	bx	lr

080057fa <makeFreeRtosPriority>:
 80057fa:	b480      	push	{r7}
 80057fc:	b085      	sub	sp, #20
 80057fe:	af00      	add	r7, sp, #0
 8005800:	4603      	mov	r3, r0
 8005802:	80fb      	strh	r3, [r7, #6]
 8005804:	2300      	movs	r3, #0
 8005806:	60fb      	str	r3, [r7, #12]
 8005808:	f9b7 3006 	ldrsh.w	r3, [r7, #6]
 800580c:	2b84      	cmp	r3, #132	@ 0x84
 800580e:	d005      	beq.n	800581c <makeFreeRtosPriority+0x22>
 8005810:	f9b7 2006 	ldrsh.w	r2, [r7, #6]
 8005814:	68fb      	ldr	r3, [r7, #12]
 8005816:	4413      	add	r3, r2
 8005818:	3303      	adds	r3, #3
 800581a:	60fb      	str	r3, [r7, #12]
 800581c:	68fb      	ldr	r3, [r7, #12]
 800581e:	4618      	mov	r0, r3
 8005820:	3714      	adds	r7, #20
 8005822:	46bd      	mov	sp, r7
 8005824:	f85d 7b04 	ldr.w	r7, [sp], #4
 8005828:	4770      	bx	lr

0800582a <osKernelStart>:
 800582a:	b580      	push	{r7, lr}
 800582c:	af00      	add	r7, sp, #0
 800582e:	f000 fafd 	bl	8005e2c <vTaskStartScheduler>
 8005832:	2300      	movs	r3, #0
 8005834:	4618      	mov	r0, r3
 8005836:	bd80      	pop	{r7, pc}

08005838 <osThreadCreate>:
 8005838:	b5f0      	push	{r4, r5, r6, r7, lr}
 800583a:	b089      	sub	sp, #36	@ 0x24
 800583c:	af04      	add	r7, sp, #16
 800583e:	6078      	str	r0, [r7, #4]
 8005840:	6039      	str	r1, [r7, #0]
 8005842:	687b      	ldr	r3, [r7, #4]
 8005844:	695b      	ldr	r3, [r3, #20]
 8005846:	2b00      	cmp	r3, #0
 8005848:	d020      	beq.n	800588c <osThreadCreate+0x54>
 800584a:	687b      	ldr	r3, [r7, #4]
 800584c:	699b      	ldr	r3, [r3, #24]
 800584e:	2b00      	cmp	r3, #0
 8005850:	d01c      	beq.n	800588c <osThreadCreate+0x54>
 8005852:	687b      	ldr	r3, [r7, #4]
 8005854:	685c      	ldr	r4, [r3, #4]
 8005856:	687b      	ldr	r3, [r7, #4]
 8005858:	681d      	ldr	r5, [r3, #0]
 800585a:	687b      	ldr	r3, [r7, #4]
 800585c:	691e      	ldr	r6, [r3, #16]
 800585e:	687b      	ldr	r3, [r7, #4]
 8005860:	f9b3 3008 	ldrsh.w	r3, [r3, #8]
 8005864:	4618      	mov	r0, r3
 8005866:	f7ff ffc8 	bl	80057fa <makeFreeRtosPriority>
 800586a:	4601      	mov	r1, r0
 800586c:	687b      	ldr	r3, [r7, #4]
 800586e:	695b      	ldr	r3, [r3, #20]
 8005870:	687a      	ldr	r2, [r7, #4]
 8005872:	6992      	ldr	r2, [r2, #24]
 8005874:	9202      	str	r2, [sp, #8]
 8005876:	9301      	str	r3, [sp, #4]
 8005878:	9100      	str	r1, [sp, #0]
 800587a:	683b      	ldr	r3, [r7, #0]
 800587c:	4632      	mov	r2, r6
 800587e:	4629      	mov	r1, r5
 8005880:	4620      	mov	r0, r4
 8005882:	f000 f8ed 	bl	8005a60 <xTaskCreateStatic>
 8005886:	4603      	mov	r3, r0
 8005888:	60fb      	str	r3, [r7, #12]
 800588a:	e01c      	b.n	80058c6 <osThreadCreate+0x8e>
 800588c:	687b      	ldr	r3, [r7, #4]
 800588e:	685c      	ldr	r4, [r3, #4]
 8005890:	687b      	ldr	r3, [r7, #4]
 8005892:	681d      	ldr	r5, [r3, #0]
 8005894:	687b      	ldr	r3, [r7, #4]
 8005896:	691b      	ldr	r3, [r3, #16]
 8005898:	b29e      	uxth	r6, r3
 800589a:	687b      	ldr	r3, [r7, #4]
 800589c:	f9b3 3008 	ldrsh.w	r3, [r3, #8]
 80058a0:	4618      	mov	r0, r3
 80058a2:	f7ff ffaa 	bl	80057fa <makeFreeRtosPriority>
 80058a6:	4602      	mov	r2, r0
 80058a8:	f107 030c 	add.w	r3, r7, #12
 80058ac:	9301      	str	r3, [sp, #4]
 80058ae:	9200      	str	r2, [sp, #0]
 80058b0:	683b      	ldr	r3, [r7, #0]
 80058b2:	4632      	mov	r2, r6
 80058b4:	4629      	mov	r1, r5
 80058b6:	4620      	mov	r0, r4
 80058b8:	f000 f932 	bl	8005b20 <xTaskCreate>
 80058bc:	4603      	mov	r3, r0
 80058be:	2b01      	cmp	r3, #1
 80058c0:	d001      	beq.n	80058c6 <osThreadCreate+0x8e>
 80058c2:	2300      	movs	r3, #0
 80058c4:	e000      	b.n	80058c8 <osThreadCreate+0x90>
 80058c6:	68fb      	ldr	r3, [r7, #12]
 80058c8:	4618      	mov	r0, r3
 80058ca:	3714      	adds	r7, #20
 80058cc:	46bd      	mov	sp, r7
 80058ce:	bdf0      	pop	{r4, r5, r6, r7, pc}

080058d0 <osDelay>:
 80058d0:	b580      	push	{r7, lr}
 80058d2:	b084      	sub	sp, #16
 80058d4:	af00      	add	r7, sp, #0
 80058d6:	6078      	str	r0, [r7, #4]
 80058d8:	687b      	ldr	r3, [r7, #4]
 80058da:	60fb      	str	r3, [r7, #12]
 80058dc:	68fb      	ldr	r3, [r7, #12]
 80058de:	2b00      	cmp	r3, #0
 80058e0:	d001      	beq.n	80058e6 <osDelay+0x16>
 80058e2:	68fb      	ldr	r3, [r7, #12]
 80058e4:	e000      	b.n	80058e8 <osDelay+0x18>
 80058e6:	2301      	movs	r3, #1
 80058e8:	4618      	mov	r0, r3
 80058ea:	f000 fa69 	bl	8005dc0 <vTaskDelay>
 80058ee:	2300      	movs	r3, #0
 80058f0:	4618      	mov	r0, r3
 80058f2:	3710      	adds	r7, #16
 80058f4:	46bd      	mov	sp, r7
 80058f6:	bd80      	pop	{r7, pc}

080058f8 <vListInitialise>:
 80058f8:	b480      	push	{r7}
 80058fa:	b083      	sub	sp, #12
 80058fc:	af00      	add	r7, sp, #0
 80058fe:	6078      	str	r0, [r7, #4]
 8005900:	687b      	ldr	r3, [r7, #4]
 8005902:	f103 0208 	add.w	r2, r3, #8
 8005906:	687b      	ldr	r3, [r7, #4]
 8005908:	605a      	str	r2, [r3, #4]
 800590a:	687b      	ldr	r3, [r7, #4]
 800590c:	f04f 32ff 	mov.w	r2, #4294967295
 8005910:	609a      	str	r2, [r3, #8]
 8005912:	687b      	ldr	r3, [r7, #4]
 8005914:	f103 0208 	add.w	r2, r3, #8
 8005918:	687b      	ldr	r3, [r7, #4]
 800591a:	60da      	str	r2, [r3, #12]
 800591c:	687b      	ldr	r3, [r7, #4]
 800591e:	f103 0208 	add.w	r2, r3, #8
 8005922:	687b      	ldr	r3, [r7, #4]
 8005924:	611a      	str	r2, [r3, #16]
 8005926:	687b      	ldr	r3, [r7, #4]
 8005928:	2200      	movs	r2, #0
 800592a:	601a      	str	r2, [r3, #0]
 800592c:	bf00      	nop
 800592e:	370c      	adds	r7, #12
 8005930:	46bd      	mov	sp, r7
 8005932:	f85d 7b04 	ldr.w	r7, [sp], #4
 8005936:	4770      	bx	lr

08005938 <vListInitialiseItem>:
 8005938:	b480      	push	{r7}
 800593a:	b083      	sub	sp, #12
 800593c:	af00      	add	r7, sp, #0
 800593e:	6078      	str	r0, [r7, #4]
 8005940:	687b      	ldr	r3, [r7, #4]
 8005942:	2200      	movs	r2, #0
 8005944:	611a      	str	r2, [r3, #16]
 8005946:	bf00      	nop
 8005948:	370c      	adds	r7, #12
 800594a:	46bd      	mov	sp, r7
 800594c:	f85d 7b04 	ldr.w	r7, [sp], #4
 8005950:	4770      	bx	lr

08005952 <vListInsertEnd>:
 8005952:	b480      	push	{r7}
 8005954:	b085      	sub	sp, #20
 8005956:	af00      	add	r7, sp, #0
 8005958:	6078      	str	r0, [r7, #4]
 800595a:	6039      	str	r1, [r7, #0]
 800595c:	687b      	ldr	r3, [r7, #4]
 800595e:	685b      	ldr	r3, [r3, #4]
 8005960:	60fb      	str	r3, [r7, #12]
 8005962:	683b      	ldr	r3, [r7, #0]
 8005964:	68fa      	ldr	r2, [r7, #12]
 8005966:	605a      	str	r2, [r3, #4]
 8005968:	68fb      	ldr	r3, [r7, #12]
 800596a:	689a      	ldr	r2, [r3, #8]
 800596c:	683b      	ldr	r3, [r7, #0]
 800596e:	609a      	str	r2, [r3, #8]
 8005970:	68fb      	ldr	r3, [r7, #12]
 8005972:	689b      	ldr	r3, [r3, #8]
 8005974:	683a      	ldr	r2, [r7, #0]
 8005976:	605a      	str	r2, [r3, #4]
 8005978:	68fb      	ldr	r3, [r7, #12]
 800597a:	683a      	ldr	r2, [r7, #0]
 800597c:	609a      	str	r2, [r3, #8]
 800597e:	683b      	ldr	r3, [r7, #0]
 8005980:	687a      	ldr	r2, [r7, #4]
 8005982:	611a      	str	r2, [r3, #16]
 8005984:	687b      	ldr	r3, [r7, #4]
 8005986:	681b      	ldr	r3, [r3, #0]
 8005988:	1c5a      	adds	r2, r3, #1
 800598a:	687b      	ldr	r3, [r7, #4]
 800598c:	601a      	str	r2, [r3, #0]
 800598e:	bf00      	nop
 8005990:	3714      	adds	r7, #20
 8005992:	46bd      	mov	sp, r7
 8005994:	f85d 7b04 	ldr.w	r7, [sp], #4
 8005998:	4770      	bx	lr

0800599a <vListInsert>:
 800599a:	b480      	push	{r7}
 800599c:	b085      	sub	sp, #20
 800599e:	af00      	add	r7, sp, #0
 80059a0:	6078      	str	r0, [r7, #4]
 80059a2:	6039      	str	r1, [r7, #0]
 80059a4:	683b      	ldr	r3, [r7, #0]
 80059a6:	681b      	ldr	r3, [r3, #0]
 80059a8:	60bb      	str	r3, [r7, #8]
 80059aa:	68bb      	ldr	r3, [r7, #8]
 80059ac:	f1b3 3fff 	cmp.w	r3, #4294967295
 80059b0:	d103      	bne.n	80059ba <vListInsert+0x20>
 80059b2:	687b      	ldr	r3, [r7, #4]
 80059b4:	691b      	ldr	r3, [r3, #16]
 80059b6:	60fb      	str	r3, [r7, #12]
 80059b8:	e00c      	b.n	80059d4 <vListInsert+0x3a>
 80059ba:	687b      	ldr	r3, [r7, #4]
 80059bc:	3308      	adds	r3, #8
 80059be:	60fb      	str	r3, [r7, #12]
 80059c0:	e002      	b.n	80059c8 <vListInsert+0x2e>
 80059c2:	68fb      	ldr	r3, [r7, #12]
 80059c4:	685b      	ldr	r3, [r3, #4]
 80059c6:	60fb      	str	r3, [r7, #12]
 80059c8:	68fb      	ldr	r3, [r7, #12]
 80059ca:	685b      	ldr	r3, [r3, #4]
 80059cc:	681b      	ldr	r3, [r3, #0]
 80059ce:	68ba      	ldr	r2, [r7, #8]
 80059d0:	429a      	cmp	r2, r3
 80059d2:	d2f6      	bcs.n	80059c2 <vListInsert+0x28>
 80059d4:	68fb      	ldr	r3, [r7, #12]
 80059d6:	685a      	ldr	r2, [r3, #4]
 80059d8:	683b      	ldr	r3, [r7, #0]
 80059da:	605a      	str	r2, [r3, #4]
 80059dc:	683b      	ldr	r3, [r7, #0]
 80059de:	685b      	ldr	r3, [r3, #4]
 80059e0:	683a      	ldr	r2, [r7, #0]
 80059e2:	609a      	str	r2, [r3, #8]
 80059e4:	683b      	ldr	r3, [r7, #0]
 80059e6:	68fa      	ldr	r2, [r7, #12]
 80059e8:	609a      	str	r2, [r3, #8]
 80059ea:	68fb      	ldr	r3, [r7, #12]
 80059ec:	683a      	ldr	r2, [r7, #0]
 80059ee:	605a      	str	r2, [r3, #4]
 80059f0:	683b      	ldr	r3, [r7, #0]
 80059f2:	687a      	ldr	r2, [r7, #4]
 80059f4:	611a      	str	r2, [r3, #16]
 80059f6:	687b      	ldr	r3, [r7, #4]
 80059f8:	681b      	ldr	r3, [r3, #0]
 80059fa:	1c5a      	adds	r2, r3, #1
 80059fc:	687b      	ldr	r3, [r7, #4]
 80059fe:	601a      	str	r2, [r3, #0]
 8005a00:	bf00      	nop
 8005a02:	3714      	adds	r7, #20
 8005a04:	46bd      	mov	sp, r7
 8005a06:	f85d 7b04 	ldr.w	r7, [sp], #4
 8005a0a:	4770      	bx	lr

08005a0c <uxListRemove>:
 8005a0c:	b480      	push	{r7}
 8005a0e:	b085      	sub	sp, #20
 8005a10:	af00      	add	r7, sp, #0
 8005a12:	6078      	str	r0, [r7, #4]
 8005a14:	687b      	ldr	r3, [r7, #4]
 8005a16:	691b      	ldr	r3, [r3, #16]
 8005a18:	60fb      	str	r3, [r7, #12]
 8005a1a:	687b      	ldr	r3, [r7, #4]
 8005a1c:	685b      	ldr	r3, [r3, #4]
 8005a1e:	687a      	ldr	r2, [r7, #4]
 8005a20:	6892      	ldr	r2, [r2, #8]
 8005a22:	609a      	str	r2, [r3, #8]
 8005a24:	687b      	ldr	r3, [r7, #4]
 8005a26:	689b      	ldr	r3, [r3, #8]
 8005a28:	687a      	ldr	r2, [r7, #4]
 8005a2a:	6852      	ldr	r2, [r2, #4]
 8005a2c:	605a      	str	r2, [r3, #4]
 8005a2e:	68fb      	ldr	r3, [r7, #12]
 8005a30:	685b      	ldr	r3, [r3, #4]
 8005a32:	687a      	ldr	r2, [r7, #4]
 8005a34:	429a      	cmp	r2, r3
 8005a36:	d103      	bne.n	8005a40 <uxListRemove+0x34>
 8005a38:	687b      	ldr	r3, [r7, #4]
 8005a3a:	689a      	ldr	r2, [r3, #8]
 8005a3c:	68fb      	ldr	r3, [r7, #12]
 8005a3e:	605a      	str	r2, [r3, #4]
 8005a40:	687b      	ldr	r3, [r7, #4]
 8005a42:	2200      	movs	r2, #0
 8005a44:	611a      	str	r2, [r3, #16]
 8005a46:	68fb      	ldr	r3, [r7, #12]
 8005a48:	681b      	ldr	r3, [r3, #0]
 8005a4a:	1e5a      	subs	r2, r3, #1
 8005a4c:	68fb      	ldr	r3, [r7, #12]
 8005a4e:	601a      	str	r2, [r3, #0]
 8005a50:	68fb      	ldr	r3, [r7, #12]
 8005a52:	681b      	ldr	r3, [r3, #0]
 8005a54:	4618      	mov	r0, r3
 8005a56:	3714      	adds	r7, #20
 8005a58:	46bd      	mov	sp, r7
 8005a5a:	f85d 7b04 	ldr.w	r7, [sp], #4
 8005a5e:	4770      	bx	lr

08005a60 <xTaskCreateStatic>:
 8005a60:	b580      	push	{r7, lr}
 8005a62:	b08e      	sub	sp, #56	@ 0x38
 8005a64:	af04      	add	r7, sp, #16
 8005a66:	60f8      	str	r0, [r7, #12]
 8005a68:	60b9      	str	r1, [r7, #8]
 8005a6a:	607a      	str	r2, [r7, #4]
 8005a6c:	603b      	str	r3, [r7, #0]
 8005a6e:	6b7b      	ldr	r3, [r7, #52]	@ 0x34
 8005a70:	2b00      	cmp	r3, #0
 8005a72:	d10b      	bne.n	8005a8c <xTaskCreateStatic+0x2c>
 8005a74:	f04f 0350 	mov.w	r3, #80	@ 0x50
 8005a78:	f383 8811 	msr	BASEPRI, r3
 8005a7c:	f3bf 8f6f 	isb	sy
 8005a80:	f3bf 8f4f 	dsb	sy
 8005a84:	623b      	str	r3, [r7, #32]
 8005a86:	bf00      	nop
 8005a88:	bf00      	nop
 8005a8a:	e7fd      	b.n	8005a88 <xTaskCreateStatic+0x28>
 8005a8c:	6bbb      	ldr	r3, [r7, #56]	@ 0x38
 8005a8e:	2b00      	cmp	r3, #0
 8005a90:	d10b      	bne.n	8005aaa <xTaskCreateStatic+0x4a>
 8005a92:	f04f 0350 	mov.w	r3, #80	@ 0x50
 8005a96:	f383 8811 	msr	BASEPRI, r3
 8005a9a:	f3bf 8f6f 	isb	sy
 8005a9e:	f3bf 8f4f 	dsb	sy
 8005aa2:	61fb      	str	r3, [r7, #28]
 8005aa4:	bf00      	nop
 8005aa6:	bf00      	nop
 8005aa8:	e7fd      	b.n	8005aa6 <xTaskCreateStatic+0x46>
 8005aaa:	23a0      	movs	r3, #160	@ 0xa0
 8005aac:	613b      	str	r3, [r7, #16]
 8005aae:	693b      	ldr	r3, [r7, #16]
 8005ab0:	2ba0      	cmp	r3, #160	@ 0xa0
 8005ab2:	d00b      	beq.n	8005acc <xTaskCreateStatic+0x6c>
 8005ab4:	f04f 0350 	mov.w	r3, #80	@ 0x50
 8005ab8:	f383 8811 	msr	BASEPRI, r3
 8005abc:	f3bf 8f6f 	isb	sy
 8005ac0:	f3bf 8f4f 	dsb	sy
 8005ac4:	61bb      	str	r3, [r7, #24]
 8005ac6:	bf00      	nop
 8005ac8:	bf00      	nop
 8005aca:	e7fd      	b.n	8005ac8 <xTaskCreateStatic+0x68>
 8005acc:	693b      	ldr	r3, [r7, #16]
 8005ace:	6bbb      	ldr	r3, [r7, #56]	@ 0x38
 8005ad0:	2b00      	cmp	r3, #0
 8005ad2:	d01e      	beq.n	8005b12 <xTaskCreateStatic+0xb2>
 8005ad4:	6b7b      	ldr	r3, [r7, #52]	@ 0x34
 8005ad6:	2b00      	cmp	r3, #0
 8005ad8:	d01b      	beq.n	8005b12 <xTaskCreateStatic+0xb2>
 8005ada:	6bbb      	ldr	r3, [r7, #56]	@ 0x38
 8005adc:	627b      	str	r3, [r7, #36]	@ 0x24
 8005ade:	6a7b      	ldr	r3, [r7, #36]	@ 0x24
 8005ae0:	6b7a      	ldr	r2, [r7, #52]	@ 0x34
 8005ae2:	631a      	str	r2, [r3, #48]	@ 0x30
 8005ae4:	6a7b      	ldr	r3, [r7, #36]	@ 0x24
 8005ae6:	2202      	movs	r2, #2
 8005ae8:	f883 209d 	strb.w	r2, [r3, #157]	@ 0x9d
 8005aec:	2300      	movs	r3, #0
 8005aee:	9303      	str	r3, [sp, #12]
 8005af0:	6a7b      	ldr	r3, [r7, #36]	@ 0x24
 8005af2:	9302      	str	r3, [sp, #8]
 8005af4:	f107 0314 	add.w	r3, r7, #20
 8005af8:	9301      	str	r3, [sp, #4]
 8005afa:	6b3b      	ldr	r3, [r7, #48]	@ 0x30
 8005afc:	9300      	str	r3, [sp, #0]
 8005afe:	683b      	ldr	r3, [r7, #0]
 8005b00:	687a      	ldr	r2, [r7, #4]
 8005b02:	68b9      	ldr	r1, [r7, #8]
 8005b04:	68f8      	ldr	r0, [r7, #12]
 8005b06:	f000 f851 	bl	8005bac <prvInitialiseNewTask>
 8005b0a:	6a78      	ldr	r0, [r7, #36]	@ 0x24
 8005b0c:	f000 f8ee 	bl	8005cec <prvAddNewTaskToReadyList>
 8005b10:	e001      	b.n	8005b16 <xTaskCreateStatic+0xb6>
 8005b12:	2300      	movs	r3, #0
 8005b14:	617b      	str	r3, [r7, #20]
 8005b16:	697b      	ldr	r3, [r7, #20]
 8005b18:	4618      	mov	r0, r3
 8005b1a:	3728      	adds	r7, #40	@ 0x28
 8005b1c:	46bd      	mov	sp, r7
 8005b1e:	bd80      	pop	{r7, pc}

08005b20 <xTaskCreate>:
 8005b20:	b580      	push	{r7, lr}
 8005b22:	b08c      	sub	sp, #48	@ 0x30
 8005b24:	af04      	add	r7, sp, #16
 8005b26:	60f8      	str	r0, [r7, #12]
 8005b28:	60b9      	str	r1, [r7, #8]
 8005b2a:	603b      	str	r3, [r7, #0]
 8005b2c:	4613      	mov	r3, r2
 8005b2e:	80fb      	strh	r3, [r7, #6]
 8005b30:	88fb      	ldrh	r3, [r7, #6]
 8005b32:	009b      	lsls	r3, r3, #2
 8005b34:	4618      	mov	r0, r3
 8005b36:	f000 feff 	bl	8006938 <pvPortMalloc>
 8005b3a:	6178      	str	r0, [r7, #20]
 8005b3c:	697b      	ldr	r3, [r7, #20]
 8005b3e:	2b00      	cmp	r3, #0
 8005b40:	d00e      	beq.n	8005b60 <xTaskCreate+0x40>
 8005b42:	20a0      	movs	r0, #160	@ 0xa0
 8005b44:	f000 fef8 	bl	8006938 <pvPortMalloc>
 8005b48:	61f8      	str	r0, [r7, #28]
 8005b4a:	69fb      	ldr	r3, [r7, #28]
 8005b4c:	2b00      	cmp	r3, #0
 8005b4e:	d003      	beq.n	8005b58 <xTaskCreate+0x38>
 8005b50:	69fb      	ldr	r3, [r7, #28]
 8005b52:	697a      	ldr	r2, [r7, #20]
 8005b54:	631a      	str	r2, [r3, #48]	@ 0x30
 8005b56:	e005      	b.n	8005b64 <xTaskCreate+0x44>
 8005b58:	6978      	ldr	r0, [r7, #20]
 8005b5a:	f000 ffbb 	bl	8006ad4 <vPortFree>
 8005b5e:	e001      	b.n	8005b64 <xTaskCreate+0x44>
 8005b60:	2300      	movs	r3, #0
 8005b62:	61fb      	str	r3, [r7, #28]
 8005b64:	69fb      	ldr	r3, [r7, #28]
 8005b66:	2b00      	cmp	r3, #0
 8005b68:	d017      	beq.n	8005b9a <xTaskCreate+0x7a>
 8005b6a:	69fb      	ldr	r3, [r7, #28]
 8005b6c:	2200      	movs	r2, #0
 8005b6e:	f883 209d 	strb.w	r2, [r3, #157]	@ 0x9d
 8005b72:	88fa      	ldrh	r2, [r7, #6]
 8005b74:	2300      	movs	r3, #0
 8005b76:	9303      	str	r3, [sp, #12]
 8005b78:	69fb      	ldr	r3, [r7, #28]
 8005b7a:	9302      	str	r3, [sp, #8]
 8005b7c:	6afb      	ldr	r3, [r7, #44]	@ 0x2c
 8005b7e:	9301      	str	r3, [sp, #4]
 8005b80:	6abb      	ldr	r3, [r7, #40]	@ 0x28
 8005b82:	9300      	str	r3, [sp, #0]
 8005b84:	683b      	ldr	r3, [r7, #0]
 8005b86:	68b9      	ldr	r1, [r7, #8]
 8005b88:	68f8      	ldr	r0, [r7, #12]
 8005b8a:	f000 f80f 	bl	8005bac <prvInitialiseNewTask>
 8005b8e:	69f8      	ldr	r0, [r7, #28]
 8005b90:	f000 f8ac 	bl	8005cec <prvAddNewTaskToReadyList>
 8005b94:	2301      	movs	r3, #1
 8005b96:	61bb      	str	r3, [r7, #24]
 8005b98:	e002      	b.n	8005ba0 <xTaskCreate+0x80>
 8005b9a:	f04f 33ff 	mov.w	r3, #4294967295
 8005b9e:	61bb      	str	r3, [r7, #24]
 8005ba0:	69bb      	ldr	r3, [r7, #24]
 8005ba2:	4618      	mov	r0, r3
 8005ba4:	3720      	adds	r7, #32
 8005ba6:	46bd      	mov	sp, r7
 8005ba8:	bd80      	pop	{r7, pc}
	...

08005bac <prvInitialiseNewTask>:
 8005bac:	b580      	push	{r7, lr}
 8005bae:	b088      	sub	sp, #32
 8005bb0:	af00      	add	r7, sp, #0
 8005bb2:	60f8      	str	r0, [r7, #12]
 8005bb4:	60b9      	str	r1, [r7, #8]
 8005bb6:	607a      	str	r2, [r7, #4]
 8005bb8:	603b      	str	r3, [r7, #0]
 8005bba:	6b3b      	ldr	r3, [r7, #48]	@ 0x30
 8005bbc:	6b1a      	ldr	r2, [r3, #48]	@ 0x30
 8005bbe:	687b      	ldr	r3, [r7, #4]
 8005bc0:	f103 4380 	add.w	r3, r3, #1073741824	@ 0x40000000
 8005bc4:	3b01      	subs	r3, #1
 8005bc6:	009b      	lsls	r3, r3, #2
 8005bc8:	4413      	add	r3, r2
 8005bca:	61bb      	str	r3, [r7, #24]
 8005bcc:	69bb      	ldr	r3, [r7, #24]
 8005bce:	f023 0307 	bic.w	r3, r3, #7
 8005bd2:	61bb      	str	r3, [r7, #24]
 8005bd4:	69bb      	ldr	r3, [r7, #24]
 8005bd6:	f003 0307 	and.w	r3, r3, #7
 8005bda:	2b00      	cmp	r3, #0
 8005bdc:	d00b      	beq.n	8005bf6 <prvInitialiseNewTask+0x4a>
 8005bde:	f04f 0350 	mov.w	r3, #80	@ 0x50
 8005be2:	f383 8811 	msr	BASEPRI, r3
 8005be6:	f3bf 8f6f 	isb	sy
 8005bea:	f3bf 8f4f 	dsb	sy
 8005bee:	617b      	str	r3, [r7, #20]
 8005bf0:	bf00      	nop
 8005bf2:	bf00      	nop
 8005bf4:	e7fd      	b.n	8005bf2 <prvInitialiseNewTask+0x46>
 8005bf6:	68bb      	ldr	r3, [r7, #8]
 8005bf8:	2b00      	cmp	r3, #0
 8005bfa:	d01f      	beq.n	8005c3c <prvInitialiseNewTask+0x90>
 8005bfc:	2300      	movs	r3, #0
 8005bfe:	61fb      	str	r3, [r7, #28]
 8005c00:	e012      	b.n	8005c28 <prvInitialiseNewTask+0x7c>
 8005c02:	68ba      	ldr	r2, [r7, #8]
 8005c04:	69fb      	ldr	r3, [r7, #28]
 8005c06:	4413      	add	r3, r2
 8005c08:	7819      	ldrb	r1, [r3, #0]
 8005c0a:	6b3a      	ldr	r2, [r7, #48]	@ 0x30
 8005c0c:	69fb      	ldr	r3, [r7, #28]
 8005c0e:	4413      	add	r3, r2
 8005c10:	3334      	adds	r3, #52	@ 0x34
 8005c12:	460a      	mov	r2, r1
 8005c14:	701a      	strb	r2, [r3, #0]
 8005c16:	68ba      	ldr	r2, [r7, #8]
 8005c18:	69fb      	ldr	r3, [r7, #28]
 8005c1a:	4413      	add	r3, r2
 8005c1c:	781b      	ldrb	r3, [r3, #0]
 8005c1e:	2b00      	cmp	r3, #0
 8005c20:	d006      	beq.n	8005c30 <prvInitialiseNewTask+0x84>
 8005c22:	69fb      	ldr	r3, [r7, #28]
 8005c24:	3301      	adds	r3, #1
 8005c26:	61fb      	str	r3, [r7, #28]
 8005c28:	69fb      	ldr	r3, [r7, #28]
 8005c2a:	2b0f      	cmp	r3, #15
 8005c2c:	d9e9      	bls.n	8005c02 <prvInitialiseNewTask+0x56>
 8005c2e:	e000      	b.n	8005c32 <prvInitialiseNewTask+0x86>
 8005c30:	bf00      	nop
 8005c32:	6b3b      	ldr	r3, [r7, #48]	@ 0x30
 8005c34:	2200      	movs	r2, #0
 8005c36:	f883 2043 	strb.w	r2, [r3, #67]	@ 0x43
 8005c3a:	e003      	b.n	8005c44 <prvInitialiseNewTask+0x98>
 8005c3c:	6b3b      	ldr	r3, [r7, #48]	@ 0x30
 8005c3e:	2200      	movs	r2, #0
 8005c40:	f883 2034 	strb.w	r2, [r3, #52]	@ 0x34
 8005c44:	6abb      	ldr	r3, [r7, #40]	@ 0x28
 8005c46:	2b06      	cmp	r3, #6
 8005c48:	d901      	bls.n	8005c4e <prvInitialiseNewTask+0xa2>
 8005c4a:	2306      	movs	r3, #6
 8005c4c:	62bb      	str	r3, [r7, #40]	@ 0x28
 8005c4e:	6b3b      	ldr	r3, [r7, #48]	@ 0x30
 8005c50:	6aba      	ldr	r2, [r7, #40]	@ 0x28
 8005c52:	62da      	str	r2, [r3, #44]	@ 0x2c
 8005c54:	6b3b      	ldr	r3, [r7, #48]	@ 0x30
 8005c56:	6aba      	ldr	r2, [r7, #40]	@ 0x28
 8005c58:	645a      	str	r2, [r3, #68]	@ 0x44
 8005c5a:	6b3b      	ldr	r3, [r7, #48]	@ 0x30
 8005c5c:	2200      	movs	r2, #0
 8005c5e:	649a      	str	r2, [r3, #72]	@ 0x48
 8005c60:	6b3b      	ldr	r3, [r7, #48]	@ 0x30
 8005c62:	3304      	adds	r3, #4
 8005c64:	4618      	mov	r0, r3
 8005c66:	f7ff fe67 	bl	8005938 <vListInitialiseItem>
 8005c6a:	6b3b      	ldr	r3, [r7, #48]	@ 0x30
 8005c6c:	3318      	adds	r3, #24
 8005c6e:	4618      	mov	r0, r3
 8005c70:	f7ff fe62 	bl	8005938 <vListInitialiseItem>
 8005c74:	6b3b      	ldr	r3, [r7, #48]	@ 0x30
 8005c76:	6b3a      	ldr	r2, [r7, #48]	@ 0x30
 8005c78:	611a      	str	r2, [r3, #16]
 8005c7a:	6abb      	ldr	r3, [r7, #40]	@ 0x28
 8005c7c:	f1c3 0207 	rsb	r2, r3, #7
 8005c80:	6b3b      	ldr	r3, [r7, #48]	@ 0x30
 8005c82:	619a      	str	r2, [r3, #24]
 8005c84:	6b3b      	ldr	r3, [r7, #48]	@ 0x30
 8005c86:	6b3a      	ldr	r2, [r7, #48]	@ 0x30
 8005c88:	625a      	str	r2, [r3, #36]	@ 0x24
 8005c8a:	6b3b      	ldr	r3, [r7, #48]	@ 0x30
 8005c8c:	2200      	movs	r2, #0
 8005c8e:	f8c3 2098 	str.w	r2, [r3, #152]	@ 0x98
 8005c92:	6b3b      	ldr	r3, [r7, #48]	@ 0x30
 8005c94:	2200      	movs	r2, #0
 8005c96:	f883 209c 	strb.w	r2, [r3, #156]	@ 0x9c
 8005c9a:	6b3b      	ldr	r3, [r7, #48]	@ 0x30
 8005c9c:	334c      	adds	r3, #76	@ 0x4c
 8005c9e:	224c      	movs	r2, #76	@ 0x4c
 8005ca0:	2100      	movs	r1, #0
 8005ca2:	4618      	mov	r0, r3
 8005ca4:	f001 faea 	bl	800727c <memset>
 8005ca8:	6b3b      	ldr	r3, [r7, #48]	@ 0x30
 8005caa:	4a0d      	ldr	r2, [pc, #52]	@ (8005ce0 <prvInitialiseNewTask+0x134>)
 8005cac:	651a      	str	r2, [r3, #80]	@ 0x50
 8005cae:	6b3b      	ldr	r3, [r7, #48]	@ 0x30
 8005cb0:	4a0c      	ldr	r2, [pc, #48]	@ (8005ce4 <prvInitialiseNewTask+0x138>)
 8005cb2:	655a      	str	r2, [r3, #84]	@ 0x54
 8005cb4:	6b3b      	ldr	r3, [r7, #48]	@ 0x30
 8005cb6:	4a0c      	ldr	r2, [pc, #48]	@ (8005ce8 <prvInitialiseNewTask+0x13c>)
 8005cb8:	659a      	str	r2, [r3, #88]	@ 0x58
 8005cba:	683a      	ldr	r2, [r7, #0]
 8005cbc:	68f9      	ldr	r1, [r7, #12]
 8005cbe:	69b8      	ldr	r0, [r7, #24]
 8005cc0:	f000 fc2a 	bl	8006518 <pxPortInitialiseStack>
 8005cc4:	4602      	mov	r2, r0
 8005cc6:	6b3b      	ldr	r3, [r7, #48]	@ 0x30
 8005cc8:	601a      	str	r2, [r3, #0]
 8005cca:	6afb      	ldr	r3, [r7, #44]	@ 0x2c
 8005ccc:	2b00      	cmp	r3, #0
 8005cce:	d002      	beq.n	8005cd6 <prvInitialiseNewTask+0x12a>
 8005cd0:	6afb      	ldr	r3, [r7, #44]	@ 0x2c
 8005cd2:	6b3a      	ldr	r2, [r7, #48]	@ 0x30
 8005cd4:	601a      	str	r2, [r3, #0]
 8005cd6:	bf00      	nop
 8005cd8:	3720      	adds	r7, #32
 8005cda:	46bd      	mov	sp, r7
 8005cdc:	bd80      	pop	{r7, pc}
 8005cde:	bf00      	nop
 8005ce0:	200014ec 	.word	0x200014ec
 8005ce4:	20001554 	.word	0x20001554
 8005ce8:	200015bc 	.word	0x200015bc

08005cec <prvAddNewTaskToReadyList>:
 8005cec:	b580      	push	{r7, lr}
 8005cee:	b082      	sub	sp, #8
 8005cf0:	af00      	add	r7, sp, #0
 8005cf2:	6078      	str	r0, [r7, #4]
 8005cf4:	f000 fd40 	bl	8006778 <vPortEnterCritical>
 8005cf8:	4b2a      	ldr	r3, [pc, #168]	@ (8005da4 <prvAddNewTaskToReadyList+0xb8>)
 8005cfa:	681b      	ldr	r3, [r3, #0]
 8005cfc:	3301      	adds	r3, #1
 8005cfe:	4a29      	ldr	r2, [pc, #164]	@ (8005da4 <prvAddNewTaskToReadyList+0xb8>)
 8005d00:	6013      	str	r3, [r2, #0]
 8005d02:	4b29      	ldr	r3, [pc, #164]	@ (8005da8 <prvAddNewTaskToReadyList+0xbc>)
 8005d04:	681b      	ldr	r3, [r3, #0]
 8005d06:	2b00      	cmp	r3, #0
 8005d08:	d109      	bne.n	8005d1e <prvAddNewTaskToReadyList+0x32>
 8005d0a:	4a27      	ldr	r2, [pc, #156]	@ (8005da8 <prvAddNewTaskToReadyList+0xbc>)
 8005d0c:	687b      	ldr	r3, [r7, #4]
 8005d0e:	6013      	str	r3, [r2, #0]
 8005d10:	4b24      	ldr	r3, [pc, #144]	@ (8005da4 <prvAddNewTaskToReadyList+0xb8>)
 8005d12:	681b      	ldr	r3, [r3, #0]
 8005d14:	2b01      	cmp	r3, #1
 8005d16:	d110      	bne.n	8005d3a <prvAddNewTaskToReadyList+0x4e>
 8005d18:	f000 fad4 	bl	80062c4 <prvInitialiseTaskLists>
 8005d1c:	e00d      	b.n	8005d3a <prvAddNewTaskToReadyList+0x4e>
 8005d1e:	4b23      	ldr	r3, [pc, #140]	@ (8005dac <prvAddNewTaskToReadyList+0xc0>)
 8005d20:	681b      	ldr	r3, [r3, #0]
 8005d22:	2b00      	cmp	r3, #0
 8005d24:	d109      	bne.n	8005d3a <prvAddNewTaskToReadyList+0x4e>
 8005d26:	4b20      	ldr	r3, [pc, #128]	@ (8005da8 <prvAddNewTaskToReadyList+0xbc>)
 8005d28:	681b      	ldr	r3, [r3, #0]
 8005d2a:	6ada      	ldr	r2, [r3, #44]	@ 0x2c
 8005d2c:	687b      	ldr	r3, [r7, #4]
 8005d2e:	6adb      	ldr	r3, [r3, #44]	@ 0x2c
 8005d30:	429a      	cmp	r2, r3
 8005d32:	d802      	bhi.n	8005d3a <prvAddNewTaskToReadyList+0x4e>
 8005d34:	4a1c      	ldr	r2, [pc, #112]	@ (8005da8 <prvAddNewTaskToReadyList+0xbc>)
 8005d36:	687b      	ldr	r3, [r7, #4]
 8005d38:	6013      	str	r3, [r2, #0]
 8005d3a:	4b1d      	ldr	r3, [pc, #116]	@ (8005db0 <prvAddNewTaskToReadyList+0xc4>)
 8005d3c:	681b      	ldr	r3, [r3, #0]
 8005d3e:	3301      	adds	r3, #1
 8005d40:	4a1b      	ldr	r2, [pc, #108]	@ (8005db0 <prvAddNewTaskToReadyList+0xc4>)
 8005d42:	6013      	str	r3, [r2, #0]
 8005d44:	687b      	ldr	r3, [r7, #4]
 8005d46:	6adb      	ldr	r3, [r3, #44]	@ 0x2c
 8005d48:	2201      	movs	r2, #1
 8005d4a:	409a      	lsls	r2, r3
 8005d4c:	4b19      	ldr	r3, [pc, #100]	@ (8005db4 <prvAddNewTaskToReadyList+0xc8>)
 8005d4e:	681b      	ldr	r3, [r3, #0]
 8005d50:	4313      	orrs	r3, r2
 8005d52:	4a18      	ldr	r2, [pc, #96]	@ (8005db4 <prvAddNewTaskToReadyList+0xc8>)
 8005d54:	6013      	str	r3, [r2, #0]
 8005d56:	687b      	ldr	r3, [r7, #4]
 8005d58:	6ada      	ldr	r2, [r3, #44]	@ 0x2c
 8005d5a:	4613      	mov	r3, r2
 8005d5c:	009b      	lsls	r3, r3, #2
 8005d5e:	4413      	add	r3, r2
 8005d60:	009b      	lsls	r3, r3, #2
 8005d62:	4a15      	ldr	r2, [pc, #84]	@ (8005db8 <prvAddNewTaskToReadyList+0xcc>)
 8005d64:	441a      	add	r2, r3
 8005d66:	687b      	ldr	r3, [r7, #4]
 8005d68:	3304      	adds	r3, #4
 8005d6a:	4619      	mov	r1, r3
 8005d6c:	4610      	mov	r0, r2
 8005d6e:	f7ff fdf0 	bl	8005952 <vListInsertEnd>
 8005d72:	f000 fd33 	bl	80067dc <vPortExitCritical>
 8005d76:	4b0d      	ldr	r3, [pc, #52]	@ (8005dac <prvAddNewTaskToReadyList+0xc0>)
 8005d78:	681b      	ldr	r3, [r3, #0]
 8005d7a:	2b00      	cmp	r3, #0
 8005d7c:	d00e      	beq.n	8005d9c <prvAddNewTaskToReadyList+0xb0>
 8005d7e:	4b0a      	ldr	r3, [pc, #40]	@ (8005da8 <prvAddNewTaskToReadyList+0xbc>)
 8005d80:	681b      	ldr	r3, [r3, #0]
 8005d82:	6ada      	ldr	r2, [r3, #44]	@ 0x2c
 8005d84:	687b      	ldr	r3, [r7, #4]
 8005d86:	6adb      	ldr	r3, [r3, #44]	@ 0x2c
 8005d88:	429a      	cmp	r2, r3
 8005d8a:	d207      	bcs.n	8005d9c <prvAddNewTaskToReadyList+0xb0>
 8005d8c:	4b0b      	ldr	r3, [pc, #44]	@ (8005dbc <prvAddNewTaskToReadyList+0xd0>)
 8005d8e:	f04f 5280 	mov.w	r2, #268435456	@ 0x10000000
 8005d92:	601a      	str	r2, [r3, #0]
 8005d94:	f3bf 8f4f 	dsb	sy
 8005d98:	f3bf 8f6f 	isb	sy
 8005d9c:	bf00      	nop
 8005d9e:	3708      	adds	r7, #8
 8005da0:	46bd      	mov	sp, r7
 8005da2:	bd80      	pop	{r7, pc}
 8005da4:	200008e0 	.word	0x200008e0
 8005da8:	200007e0 	.word	0x200007e0
 8005dac:	200008ec 	.word	0x200008ec
 8005db0:	200008fc 	.word	0x200008fc
 8005db4:	200008e8 	.word	0x200008e8
 8005db8:	200007e4 	.word	0x200007e4
 8005dbc:	e000ed04 	.word	0xe000ed04

08005dc0 <vTaskDelay>:
 8005dc0:	b580      	push	{r7, lr}
 8005dc2:	b084      	sub	sp, #16
 8005dc4:	af00      	add	r7, sp, #0
 8005dc6:	6078      	str	r0, [r7, #4]
 8005dc8:	2300      	movs	r3, #0
 8005dca:	60fb      	str	r3, [r7, #12]
 8005dcc:	687b      	ldr	r3, [r7, #4]
 8005dce:	2b00      	cmp	r3, #0
 8005dd0:	d018      	beq.n	8005e04 <vTaskDelay+0x44>
 8005dd2:	4b14      	ldr	r3, [pc, #80]	@ (8005e24 <vTaskDelay+0x64>)
 8005dd4:	681b      	ldr	r3, [r3, #0]
 8005dd6:	2b00      	cmp	r3, #0
 8005dd8:	d00b      	beq.n	8005df2 <vTaskDelay+0x32>
 8005dda:	f04f 0350 	mov.w	r3, #80	@ 0x50
 8005dde:	f383 8811 	msr	BASEPRI, r3
 8005de2:	f3bf 8f6f 	isb	sy
 8005de6:	f3bf 8f4f 	dsb	sy
 8005dea:	60bb      	str	r3, [r7, #8]
 8005dec:	bf00      	nop
 8005dee:	bf00      	nop
 8005df0:	e7fd      	b.n	8005dee <vTaskDelay+0x2e>
 8005df2:	f000 f885 	bl	8005f00 <vTaskSuspendAll>
 8005df6:	2100      	movs	r1, #0
 8005df8:	6878      	ldr	r0, [r7, #4]
 8005dfa:	f000 fb27 	bl	800644c <prvAddCurrentTaskToDelayedList>
 8005dfe:	f000 f88d 	bl	8005f1c <xTaskResumeAll>
 8005e02:	60f8      	str	r0, [r7, #12]
 8005e04:	68fb      	ldr	r3, [r7, #12]
 8005e06:	2b00      	cmp	r3, #0
 8005e08:	d107      	bne.n	8005e1a <vTaskDelay+0x5a>
 8005e0a:	4b07      	ldr	r3, [pc, #28]	@ (8005e28 <vTaskDelay+0x68>)
 8005e0c:	f04f 5280 	mov.w	r2, #268435456	@ 0x10000000
 8005e10:	601a      	str	r2, [r3, #0]
 8005e12:	f3bf 8f4f 	dsb	sy
 8005e16:	f3bf 8f6f 	isb	sy
 8005e1a:	bf00      	nop
 8005e1c:	3710      	adds	r7, #16
 8005e1e:	46bd      	mov	sp, r7
 8005e20:	bd80      	pop	{r7, pc}
 8005e22:	bf00      	nop
 8005e24:	20000908 	.word	0x20000908
 8005e28:	e000ed04 	.word	0xe000ed04

08005e2c <vTaskStartScheduler>:
 8005e2c:	b580      	push	{r7, lr}
 8005e2e:	b08a      	sub	sp, #40	@ 0x28
 8005e30:	af04      	add	r7, sp, #16
 8005e32:	2300      	movs	r3, #0
 8005e34:	60bb      	str	r3, [r7, #8]
 8005e36:	2300      	movs	r3, #0
 8005e38:	607b      	str	r3, [r7, #4]
 8005e3a:	463a      	mov	r2, r7
 8005e3c:	1d39      	adds	r1, r7, #4
 8005e3e:	f107 0308 	add.w	r3, r7, #8
 8005e42:	4618      	mov	r0, r3
 8005e44:	f7fa fd62 	bl	800090c <vApplicationGetIdleTaskMemory>
 8005e48:	6839      	ldr	r1, [r7, #0]
 8005e4a:	687b      	ldr	r3, [r7, #4]
 8005e4c:	68ba      	ldr	r2, [r7, #8]
 8005e4e:	9202      	str	r2, [sp, #8]
 8005e50:	9301      	str	r3, [sp, #4]
 8005e52:	2300      	movs	r3, #0
 8005e54:	9300      	str	r3, [sp, #0]
 8005e56:	2300      	movs	r3, #0
 8005e58:	460a      	mov	r2, r1
 8005e5a:	4921      	ldr	r1, [pc, #132]	@ (8005ee0 <vTaskStartScheduler+0xb4>)
 8005e5c:	4821      	ldr	r0, [pc, #132]	@ (8005ee4 <vTaskStartScheduler+0xb8>)
 8005e5e:	f7ff fdff 	bl	8005a60 <xTaskCreateStatic>
 8005e62:	4603      	mov	r3, r0
 8005e64:	4a20      	ldr	r2, [pc, #128]	@ (8005ee8 <vTaskStartScheduler+0xbc>)
 8005e66:	6013      	str	r3, [r2, #0]
 8005e68:	4b1f      	ldr	r3, [pc, #124]	@ (8005ee8 <vTaskStartScheduler+0xbc>)
 8005e6a:	681b      	ldr	r3, [r3, #0]
 8005e6c:	2b00      	cmp	r3, #0
 8005e6e:	d002      	beq.n	8005e76 <vTaskStartScheduler+0x4a>
 8005e70:	2301      	movs	r3, #1
 8005e72:	617b      	str	r3, [r7, #20]
 8005e74:	e001      	b.n	8005e7a <vTaskStartScheduler+0x4e>
 8005e76:	2300      	movs	r3, #0
 8005e78:	617b      	str	r3, [r7, #20]
 8005e7a:	697b      	ldr	r3, [r7, #20]
 8005e7c:	2b01      	cmp	r3, #1
 8005e7e:	d11b      	bne.n	8005eb8 <vTaskStartScheduler+0x8c>
 8005e80:	f04f 0350 	mov.w	r3, #80	@ 0x50
 8005e84:	f383 8811 	msr	BASEPRI, r3
 8005e88:	f3bf 8f6f 	isb	sy
 8005e8c:	f3bf 8f4f 	dsb	sy
 8005e90:	613b      	str	r3, [r7, #16]
 8005e92:	bf00      	nop
 8005e94:	4b15      	ldr	r3, [pc, #84]	@ (8005eec <vTaskStartScheduler+0xc0>)
 8005e96:	681b      	ldr	r3, [r3, #0]
 8005e98:	334c      	adds	r3, #76	@ 0x4c
 8005e9a:	4a15      	ldr	r2, [pc, #84]	@ (8005ef0 <vTaskStartScheduler+0xc4>)
 8005e9c:	6013      	str	r3, [r2, #0]
 8005e9e:	4b15      	ldr	r3, [pc, #84]	@ (8005ef4 <vTaskStartScheduler+0xc8>)
 8005ea0:	f04f 32ff 	mov.w	r2, #4294967295
 8005ea4:	601a      	str	r2, [r3, #0]
 8005ea6:	4b14      	ldr	r3, [pc, #80]	@ (8005ef8 <vTaskStartScheduler+0xcc>)
 8005ea8:	2201      	movs	r2, #1
 8005eaa:	601a      	str	r2, [r3, #0]
 8005eac:	4b13      	ldr	r3, [pc, #76]	@ (8005efc <vTaskStartScheduler+0xd0>)
 8005eae:	2200      	movs	r2, #0
 8005eb0:	601a      	str	r2, [r3, #0]
 8005eb2:	f000 fbbd 	bl	8006630 <xPortStartScheduler>
 8005eb6:	e00f      	b.n	8005ed8 <vTaskStartScheduler+0xac>
 8005eb8:	697b      	ldr	r3, [r7, #20]
 8005eba:	f1b3 3fff 	cmp.w	r3, #4294967295
 8005ebe:	d10b      	bne.n	8005ed8 <vTaskStartScheduler+0xac>
 8005ec0:	f04f 0350 	mov.w	r3, #80	@ 0x50
 8005ec4:	f383 8811 	msr	BASEPRI, r3
 8005ec8:	f3bf 8f6f 	isb	sy
 8005ecc:	f3bf 8f4f 	dsb	sy
 8005ed0:	60fb      	str	r3, [r7, #12]
 8005ed2:	bf00      	nop
 8005ed4:	bf00      	nop
 8005ed6:	e7fd      	b.n	8005ed4 <vTaskStartScheduler+0xa8>
 8005ed8:	bf00      	nop
 8005eda:	3718      	adds	r7, #24
 8005edc:	46bd      	mov	sp, r7
 8005ede:	bd80      	pop	{r7, pc}
 8005ee0:	08008084 	.word	0x08008084
 8005ee4:	08006295 	.word	0x08006295
 8005ee8:	20000904 	.word	0x20000904
 8005eec:	200007e0 	.word	0x200007e0
 8005ef0:	2000001c 	.word	0x2000001c
 8005ef4:	20000900 	.word	0x20000900
 8005ef8:	200008ec 	.word	0x200008ec
 8005efc:	200008e4 	.word	0x200008e4

08005f00 <vTaskSuspendAll>:
 8005f00:	b480      	push	{r7}
 8005f02:	af00      	add	r7, sp, #0
 8005f04:	4b04      	ldr	r3, [pc, #16]	@ (8005f18 <vTaskSuspendAll+0x18>)
 8005f06:	681b      	ldr	r3, [r3, #0]
 8005f08:	3301      	adds	r3, #1
 8005f0a:	4a03      	ldr	r2, [pc, #12]	@ (8005f18 <vTaskSuspendAll+0x18>)
 8005f0c:	6013      	str	r3, [r2, #0]
 8005f0e:	bf00      	nop
 8005f10:	46bd      	mov	sp, r7
 8005f12:	f85d 7b04 	ldr.w	r7, [sp], #4
 8005f16:	4770      	bx	lr
 8005f18:	20000908 	.word	0x20000908

08005f1c <xTaskResumeAll>:
 8005f1c:	b580      	push	{r7, lr}
 8005f1e:	b084      	sub	sp, #16
 8005f20:	af00      	add	r7, sp, #0
 8005f22:	2300      	movs	r3, #0
 8005f24:	60fb      	str	r3, [r7, #12]
 8005f26:	2300      	movs	r3, #0
 8005f28:	60bb      	str	r3, [r7, #8]
 8005f2a:	4b42      	ldr	r3, [pc, #264]	@ (8006034 <xTaskResumeAll+0x118>)
 8005f2c:	681b      	ldr	r3, [r3, #0]
 8005f2e:	2b00      	cmp	r3, #0
 8005f30:	d10b      	bne.n	8005f4a <xTaskResumeAll+0x2e>
 8005f32:	f04f 0350 	mov.w	r3, #80	@ 0x50
 8005f36:	f383 8811 	msr	BASEPRI, r3
 8005f3a:	f3bf 8f6f 	isb	sy
 8005f3e:	f3bf 8f4f 	dsb	sy
 8005f42:	603b      	str	r3, [r7, #0]
 8005f44:	bf00      	nop
 8005f46:	bf00      	nop
 8005f48:	e7fd      	b.n	8005f46 <xTaskResumeAll+0x2a>
 8005f4a:	f000 fc15 	bl	8006778 <vPortEnterCritical>
 8005f4e:	4b39      	ldr	r3, [pc, #228]	@ (8006034 <xTaskResumeAll+0x118>)
 8005f50:	681b      	ldr	r3, [r3, #0]
 8005f52:	3b01      	subs	r3, #1
 8005f54:	4a37      	ldr	r2, [pc, #220]	@ (8006034 <xTaskResumeAll+0x118>)
 8005f56:	6013      	str	r3, [r2, #0]
 8005f58:	4b36      	ldr	r3, [pc, #216]	@ (8006034 <xTaskResumeAll+0x118>)
 8005f5a:	681b      	ldr	r3, [r3, #0]
 8005f5c:	2b00      	cmp	r3, #0
 8005f5e:	d161      	bne.n	8006024 <xTaskResumeAll+0x108>
 8005f60:	4b35      	ldr	r3, [pc, #212]	@ (8006038 <xTaskResumeAll+0x11c>)
 8005f62:	681b      	ldr	r3, [r3, #0]
 8005f64:	2b00      	cmp	r3, #0
 8005f66:	d05d      	beq.n	8006024 <xTaskResumeAll+0x108>
 8005f68:	e02e      	b.n	8005fc8 <xTaskResumeAll+0xac>
 8005f6a:	4b34      	ldr	r3, [pc, #208]	@ (800603c <xTaskResumeAll+0x120>)
 8005f6c:	68db      	ldr	r3, [r3, #12]
 8005f6e:	68db      	ldr	r3, [r3, #12]
 8005f70:	60fb      	str	r3, [r7, #12]
 8005f72:	68fb      	ldr	r3, [r7, #12]
 8005f74:	3318      	adds	r3, #24
 8005f76:	4618      	mov	r0, r3
 8005f78:	f7ff fd48 	bl	8005a0c <uxListRemove>
 8005f7c:	68fb      	ldr	r3, [r7, #12]
 8005f7e:	3304      	adds	r3, #4
 8005f80:	4618      	mov	r0, r3
 8005f82:	f7ff fd43 	bl	8005a0c <uxListRemove>
 8005f86:	68fb      	ldr	r3, [r7, #12]
 8005f88:	6adb      	ldr	r3, [r3, #44]	@ 0x2c
 8005f8a:	2201      	movs	r2, #1
 8005f8c:	409a      	lsls	r2, r3
 8005f8e:	4b2c      	ldr	r3, [pc, #176]	@ (8006040 <xTaskResumeAll+0x124>)
 8005f90:	681b      	ldr	r3, [r3, #0]
 8005f92:	4313      	orrs	r3, r2
 8005f94:	4a2a      	ldr	r2, [pc, #168]	@ (8006040 <xTaskResumeAll+0x124>)
 8005f96:	6013      	str	r3, [r2, #0]
 8005f98:	68fb      	ldr	r3, [r7, #12]
 8005f9a:	6ada      	ldr	r2, [r3, #44]	@ 0x2c
 8005f9c:	4613      	mov	r3, r2
 8005f9e:	009b      	lsls	r3, r3, #2
 8005fa0:	4413      	add	r3, r2
 8005fa2:	009b      	lsls	r3, r3, #2
 8005fa4:	4a27      	ldr	r2, [pc, #156]	@ (8006044 <xTaskResumeAll+0x128>)
 8005fa6:	441a      	add	r2, r3
 8005fa8:	68fb      	ldr	r3, [r7, #12]
 8005faa:	3304      	adds	r3, #4
 8005fac:	4619      	mov	r1, r3
 8005fae:	4610      	mov	r0, r2
 8005fb0:	f7ff fccf 	bl	8005952 <vListInsertEnd>
 8005fb4:	68fb      	ldr	r3, [r7, #12]
 8005fb6:	6ada      	ldr	r2, [r3, #44]	@ 0x2c
 8005fb8:	4b23      	ldr	r3, [pc, #140]	@ (8006048 <xTaskResumeAll+0x12c>)
 8005fba:	681b      	ldr	r3, [r3, #0]
 8005fbc:	6adb      	ldr	r3, [r3, #44]	@ 0x2c
 8005fbe:	429a      	cmp	r2, r3
 8005fc0:	d302      	bcc.n	8005fc8 <xTaskResumeAll+0xac>
 8005fc2:	4b22      	ldr	r3, [pc, #136]	@ (800604c <xTaskResumeAll+0x130>)
 8005fc4:	2201      	movs	r2, #1
 8005fc6:	601a      	str	r2, [r3, #0]
 8005fc8:	4b1c      	ldr	r3, [pc, #112]	@ (800603c <xTaskResumeAll+0x120>)
 8005fca:	681b      	ldr	r3, [r3, #0]
 8005fcc:	2b00      	cmp	r3, #0
 8005fce:	d1cc      	bne.n	8005f6a <xTaskResumeAll+0x4e>
 8005fd0:	68fb      	ldr	r3, [r7, #12]
 8005fd2:	2b00      	cmp	r3, #0
 8005fd4:	d001      	beq.n	8005fda <xTaskResumeAll+0xbe>
 8005fd6:	f000 fa19 	bl	800640c <prvResetNextTaskUnblockTime>
 8005fda:	4b1d      	ldr	r3, [pc, #116]	@ (8006050 <xTaskResumeAll+0x134>)
 8005fdc:	681b      	ldr	r3, [r3, #0]
 8005fde:	607b      	str	r3, [r7, #4]
 8005fe0:	687b      	ldr	r3, [r7, #4]
 8005fe2:	2b00      	cmp	r3, #0
 8005fe4:	d010      	beq.n	8006008 <xTaskResumeAll+0xec>
 8005fe6:	f000 f837 	bl	8006058 <xTaskIncrementTick>
 8005fea:	4603      	mov	r3, r0
 8005fec:	2b00      	cmp	r3, #0
 8005fee:	d002      	beq.n	8005ff6 <xTaskResumeAll+0xda>
 8005ff0:	4b16      	ldr	r3, [pc, #88]	@ (800604c <xTaskResumeAll+0x130>)
 8005ff2:	2201      	movs	r2, #1
 8005ff4:	601a      	str	r2, [r3, #0]
 8005ff6:	687b      	ldr	r3, [r7, #4]
 8005ff8:	3b01      	subs	r3, #1
 8005ffa:	607b      	str	r3, [r7, #4]
 8005ffc:	687b      	ldr	r3, [r7, #4]
 8005ffe:	2b00      	cmp	r3, #0
 8006000:	d1f1      	bne.n	8005fe6 <xTaskResumeAll+0xca>
 8006002:	4b13      	ldr	r3, [pc, #76]	@ (8006050 <xTaskResumeAll+0x134>)
 8006004:	2200      	movs	r2, #0
 8006006:	601a      	str	r2, [r3, #0]
 8006008:	4b10      	ldr	r3, [pc, #64]	@ (800604c <xTaskResumeAll+0x130>)
 800600a:	681b      	ldr	r3, [r3, #0]
 800600c:	2b00      	cmp	r3, #0
 800600e:	d009      	beq.n	8006024 <xTaskResumeAll+0x108>
 8006010:	2301      	movs	r3, #1
 8006012:	60bb      	str	r3, [r7, #8]
 8006014:	4b0f      	ldr	r3, [pc, #60]	@ (8006054 <xTaskResumeAll+0x138>)
 8006016:	f04f 5280 	mov.w	r2, #268435456	@ 0x10000000
 800601a:	601a      	str	r2, [r3, #0]
 800601c:	f3bf 8f4f 	dsb	sy
 8006020:	f3bf 8f6f 	isb	sy
 8006024:	f000 fbda 	bl	80067dc <vPortExitCritical>
 8006028:	68bb      	ldr	r3, [r7, #8]
 800602a:	4618      	mov	r0, r3
 800602c:	3710      	adds	r7, #16
 800602e:	46bd      	mov	sp, r7
 8006030:	bd80      	pop	{r7, pc}
 8006032:	bf00      	nop
 8006034:	20000908 	.word	0x20000908
 8006038:	200008e0 	.word	0x200008e0
 800603c:	200008a0 	.word	0x200008a0
 8006040:	200008e8 	.word	0x200008e8
 8006044:	200007e4 	.word	0x200007e4
 8006048:	200007e0 	.word	0x200007e0
 800604c:	200008f4 	.word	0x200008f4
 8006050:	200008f0 	.word	0x200008f0
 8006054:	e000ed04 	.word	0xe000ed04

08006058 <xTaskIncrementTick>:
 8006058:	b580      	push	{r7, lr}
 800605a:	b086      	sub	sp, #24
 800605c:	af00      	add	r7, sp, #0
 800605e:	2300      	movs	r3, #0
 8006060:	617b      	str	r3, [r7, #20]
 8006062:	4b4f      	ldr	r3, [pc, #316]	@ (80061a0 <xTaskIncrementTick+0x148>)
 8006064:	681b      	ldr	r3, [r3, #0]
 8006066:	2b00      	cmp	r3, #0
 8006068:	f040 808f 	bne.w	800618a <xTaskIncrementTick+0x132>
 800606c:	4b4d      	ldr	r3, [pc, #308]	@ (80061a4 <xTaskIncrementTick+0x14c>)
 800606e:	681b      	ldr	r3, [r3, #0]
 8006070:	3301      	adds	r3, #1
 8006072:	613b      	str	r3, [r7, #16]
 8006074:	4a4b      	ldr	r2, [pc, #300]	@ (80061a4 <xTaskIncrementTick+0x14c>)
 8006076:	693b      	ldr	r3, [r7, #16]
 8006078:	6013      	str	r3, [r2, #0]
 800607a:	693b      	ldr	r3, [r7, #16]
 800607c:	2b00      	cmp	r3, #0
 800607e:	d121      	bne.n	80060c4 <xTaskIncrementTick+0x6c>
 8006080:	4b49      	ldr	r3, [pc, #292]	@ (80061a8 <xTaskIncrementTick+0x150>)
 8006082:	681b      	ldr	r3, [r3, #0]
 8006084:	681b      	ldr	r3, [r3, #0]
 8006086:	2b00      	cmp	r3, #0
 8006088:	d00b      	beq.n	80060a2 <xTaskIncrementTick+0x4a>
 800608a:	f04f 0350 	mov.w	r3, #80	@ 0x50
 800608e:	f383 8811 	msr	BASEPRI, r3
 8006092:	f3bf 8f6f 	isb	sy
 8006096:	f3bf 8f4f 	dsb	sy
 800609a:	603b      	str	r3, [r7, #0]
 800609c:	bf00      	nop
 800609e:	bf00      	nop
 80060a0:	e7fd      	b.n	800609e <xTaskIncrementTick+0x46>
 80060a2:	4b41      	ldr	r3, [pc, #260]	@ (80061a8 <xTaskIncrementTick+0x150>)
 80060a4:	681b      	ldr	r3, [r3, #0]
 80060a6:	60fb      	str	r3, [r7, #12]
 80060a8:	4b40      	ldr	r3, [pc, #256]	@ (80061ac <xTaskIncrementTick+0x154>)
 80060aa:	681b      	ldr	r3, [r3, #0]
 80060ac:	4a3e      	ldr	r2, [pc, #248]	@ (80061a8 <xTaskIncrementTick+0x150>)
 80060ae:	6013      	str	r3, [r2, #0]
 80060b0:	4a3e      	ldr	r2, [pc, #248]	@ (80061ac <xTaskIncrementTick+0x154>)
 80060b2:	68fb      	ldr	r3, [r7, #12]
 80060b4:	6013      	str	r3, [r2, #0]
 80060b6:	4b3e      	ldr	r3, [pc, #248]	@ (80061b0 <xTaskIncrementTick+0x158>)
 80060b8:	681b      	ldr	r3, [r3, #0]
 80060ba:	3301      	adds	r3, #1
 80060bc:	4a3c      	ldr	r2, [pc, #240]	@ (80061b0 <xTaskIncrementTick+0x158>)
 80060be:	6013      	str	r3, [r2, #0]
 80060c0:	f000 f9a4 	bl	800640c <prvResetNextTaskUnblockTime>
 80060c4:	4b3b      	ldr	r3, [pc, #236]	@ (80061b4 <xTaskIncrementTick+0x15c>)
 80060c6:	681b      	ldr	r3, [r3, #0]
 80060c8:	693a      	ldr	r2, [r7, #16]
 80060ca:	429a      	cmp	r2, r3
 80060cc:	d348      	bcc.n	8006160 <xTaskIncrementTick+0x108>
 80060ce:	4b36      	ldr	r3, [pc, #216]	@ (80061a8 <xTaskIncrementTick+0x150>)
 80060d0:	681b      	ldr	r3, [r3, #0]
 80060d2:	681b      	ldr	r3, [r3, #0]
 80060d4:	2b00      	cmp	r3, #0
 80060d6:	d104      	bne.n	80060e2 <xTaskIncrementTick+0x8a>
 80060d8:	4b36      	ldr	r3, [pc, #216]	@ (80061b4 <xTaskIncrementTick+0x15c>)
 80060da:	f04f 32ff 	mov.w	r2, #4294967295
 80060de:	601a      	str	r2, [r3, #0]
 80060e0:	e03e      	b.n	8006160 <xTaskIncrementTick+0x108>
 80060e2:	4b31      	ldr	r3, [pc, #196]	@ (80061a8 <xTaskIncrementTick+0x150>)
 80060e4:	681b      	ldr	r3, [r3, #0]
 80060e6:	68db      	ldr	r3, [r3, #12]
 80060e8:	68db      	ldr	r3, [r3, #12]
 80060ea:	60bb      	str	r3, [r7, #8]
 80060ec:	68bb      	ldr	r3, [r7, #8]
 80060ee:	685b      	ldr	r3, [r3, #4]
 80060f0:	607b      	str	r3, [r7, #4]
 80060f2:	693a      	ldr	r2, [r7, #16]
 80060f4:	687b      	ldr	r3, [r7, #4]
 80060f6:	429a      	cmp	r2, r3
 80060f8:	d203      	bcs.n	8006102 <xTaskIncrementTick+0xaa>
 80060fa:	4a2e      	ldr	r2, [pc, #184]	@ (80061b4 <xTaskIncrementTick+0x15c>)
 80060fc:	687b      	ldr	r3, [r7, #4]
 80060fe:	6013      	str	r3, [r2, #0]
 8006100:	e02e      	b.n	8006160 <xTaskIncrementTick+0x108>
 8006102:	68bb      	ldr	r3, [r7, #8]
 8006104:	3304      	adds	r3, #4
 8006106:	4618      	mov	r0, r3
 8006108:	f7ff fc80 	bl	8005a0c <uxListRemove>
 800610c:	68bb      	ldr	r3, [r7, #8]
 800610e:	6a9b      	ldr	r3, [r3, #40]	@ 0x28
 8006110:	2b00      	cmp	r3, #0
 8006112:	d004      	beq.n	800611e <xTaskIncrementTick+0xc6>
 8006114:	68bb      	ldr	r3, [r7, #8]
 8006116:	3318      	adds	r3, #24
 8006118:	4618      	mov	r0, r3
 800611a:	f7ff fc77 	bl	8005a0c <uxListRemove>
 800611e:	68bb      	ldr	r3, [r7, #8]
 8006120:	6adb      	ldr	r3, [r3, #44]	@ 0x2c
 8006122:	2201      	movs	r2, #1
 8006124:	409a      	lsls	r2, r3
 8006126:	4b24      	ldr	r3, [pc, #144]	@ (80061b8 <xTaskIncrementTick+0x160>)
 8006128:	681b      	ldr	r3, [r3, #0]
 800612a:	4313      	orrs	r3, r2
 800612c:	4a22      	ldr	r2, [pc, #136]	@ (80061b8 <xTaskIncrementTick+0x160>)
 800612e:	6013      	str	r3, [r2, #0]
 8006130:	68bb      	ldr	r3, [r7, #8]
 8006132:	6ada      	ldr	r2, [r3, #44]	@ 0x2c
 8006134:	4613      	mov	r3, r2
 8006136:	009b      	lsls	r3, r3, #2
 8006138:	4413      	add	r3, r2
 800613a:	009b      	lsls	r3, r3, #2
 800613c:	4a1f      	ldr	r2, [pc, #124]	@ (80061bc <xTaskIncrementTick+0x164>)
 800613e:	441a      	add	r2, r3
 8006140:	68bb      	ldr	r3, [r7, #8]
 8006142:	3304      	adds	r3, #4
 8006144:	4619      	mov	r1, r3
 8006146:	4610      	mov	r0, r2
 8006148:	f7ff fc03 	bl	8005952 <vListInsertEnd>
 800614c:	68bb      	ldr	r3, [r7, #8]
 800614e:	6ada      	ldr	r2, [r3, #44]	@ 0x2c
 8006150:	4b1b      	ldr	r3, [pc, #108]	@ (80061c0 <xTaskIncrementTick+0x168>)
 8006152:	681b      	ldr	r3, [r3, #0]
 8006154:	6adb      	ldr	r3, [r3, #44]	@ 0x2c
 8006156:	429a      	cmp	r2, r3
 8006158:	d3b9      	bcc.n	80060ce <xTaskIncrementTick+0x76>
 800615a:	2301      	movs	r3, #1
 800615c:	617b      	str	r3, [r7, #20]
 800615e:	e7b6      	b.n	80060ce <xTaskIncrementTick+0x76>
 8006160:	4b17      	ldr	r3, [pc, #92]	@ (80061c0 <xTaskIncrementTick+0x168>)
 8006162:	681b      	ldr	r3, [r3, #0]
 8006164:	6ada      	ldr	r2, [r3, #44]	@ 0x2c
 8006166:	4915      	ldr	r1, [pc, #84]	@ (80061bc <xTaskIncrementTick+0x164>)
 8006168:	4613      	mov	r3, r2
 800616a:	009b      	lsls	r3, r3, #2
 800616c:	4413      	add	r3, r2
 800616e:	009b      	lsls	r3, r3, #2
 8006170:	440b      	add	r3, r1
 8006172:	681b      	ldr	r3, [r3, #0]
 8006174:	2b01      	cmp	r3, #1
 8006176:	d901      	bls.n	800617c <xTaskIncrementTick+0x124>
 8006178:	2301      	movs	r3, #1
 800617a:	617b      	str	r3, [r7, #20]
 800617c:	4b11      	ldr	r3, [pc, #68]	@ (80061c4 <xTaskIncrementTick+0x16c>)
 800617e:	681b      	ldr	r3, [r3, #0]
 8006180:	2b00      	cmp	r3, #0
 8006182:	d007      	beq.n	8006194 <xTaskIncrementTick+0x13c>
 8006184:	2301      	movs	r3, #1
 8006186:	617b      	str	r3, [r7, #20]
 8006188:	e004      	b.n	8006194 <xTaskIncrementTick+0x13c>
 800618a:	4b0f      	ldr	r3, [pc, #60]	@ (80061c8 <xTaskIncrementTick+0x170>)
 800618c:	681b      	ldr	r3, [r3, #0]
 800618e:	3301      	adds	r3, #1
 8006190:	4a0d      	ldr	r2, [pc, #52]	@ (80061c8 <xTaskIncrementTick+0x170>)
 8006192:	6013      	str	r3, [r2, #0]
 8006194:	697b      	ldr	r3, [r7, #20]
 8006196:	4618      	mov	r0, r3
 8006198:	3718      	adds	r7, #24
 800619a:	46bd      	mov	sp, r7
 800619c:	bd80      	pop	{r7, pc}
 800619e:	bf00      	nop
 80061a0:	20000908 	.word	0x20000908
 80061a4:	200008e4 	.word	0x200008e4
 80061a8:	20000898 	.word	0x20000898
 80061ac:	2000089c 	.word	0x2000089c
 80061b0:	200008f8 	.word	0x200008f8
 80061b4:	20000900 	.word	0x20000900
 80061b8:	200008e8 	.word	0x200008e8
 80061bc:	200007e4 	.word	0x200007e4
 80061c0:	200007e0 	.word	0x200007e0
 80061c4:	200008f4 	.word	0x200008f4
 80061c8:	200008f0 	.word	0x200008f0

080061cc <vTaskSwitchContext>:
 80061cc:	b480      	push	{r7}
 80061ce:	b087      	sub	sp, #28
 80061d0:	af00      	add	r7, sp, #0
 80061d2:	4b2a      	ldr	r3, [pc, #168]	@ (800627c <vTaskSwitchContext+0xb0>)
 80061d4:	681b      	ldr	r3, [r3, #0]
 80061d6:	2b00      	cmp	r3, #0
 80061d8:	d003      	beq.n	80061e2 <vTaskSwitchContext+0x16>
 80061da:	4b29      	ldr	r3, [pc, #164]	@ (8006280 <vTaskSwitchContext+0xb4>)
 80061dc:	2201      	movs	r2, #1
 80061de:	601a      	str	r2, [r3, #0]
 80061e0:	e045      	b.n	800626e <vTaskSwitchContext+0xa2>
 80061e2:	4b27      	ldr	r3, [pc, #156]	@ (8006280 <vTaskSwitchContext+0xb4>)
 80061e4:	2200      	movs	r2, #0
 80061e6:	601a      	str	r2, [r3, #0]
 80061e8:	4b26      	ldr	r3, [pc, #152]	@ (8006284 <vTaskSwitchContext+0xb8>)
 80061ea:	681b      	ldr	r3, [r3, #0]
 80061ec:	60fb      	str	r3, [r7, #12]
 80061ee:	68fb      	ldr	r3, [r7, #12]
 80061f0:	fab3 f383 	clz	r3, r3
 80061f4:	72fb      	strb	r3, [r7, #11]
 80061f6:	7afb      	ldrb	r3, [r7, #11]
 80061f8:	f1c3 031f 	rsb	r3, r3, #31
 80061fc:	617b      	str	r3, [r7, #20]
 80061fe:	4922      	ldr	r1, [pc, #136]	@ (8006288 <vTaskSwitchContext+0xbc>)
 8006200:	697a      	ldr	r2, [r7, #20]
 8006202:	4613      	mov	r3, r2
 8006204:	009b      	lsls	r3, r3, #2
 8006206:	4413      	add	r3, r2
 8006208:	009b      	lsls	r3, r3, #2
 800620a:	440b      	add	r3, r1
 800620c:	681b      	ldr	r3, [r3, #0]
 800620e:	2b00      	cmp	r3, #0
 8006210:	d10b      	bne.n	800622a <vTaskSwitchContext+0x5e>
 8006212:	f04f 0350 	mov.w	r3, #80	@ 0x50
 8006216:	f383 8811 	msr	BASEPRI, r3
 800621a:	f3bf 8f6f 	isb	sy
 800621e:	f3bf 8f4f 	dsb	sy
 8006222:	607b      	str	r3, [r7, #4]
 8006224:	bf00      	nop
 8006226:	bf00      	nop
 8006228:	e7fd      	b.n	8006226 <vTaskSwitchContext+0x5a>
 800622a:	697a      	ldr	r2, [r7, #20]
 800622c:	4613      	mov	r3, r2
 800622e:	009b      	lsls	r3, r3, #2
 8006230:	4413      	add	r3, r2
 8006232:	009b      	lsls	r3, r3, #2
 8006234:	4a14      	ldr	r2, [pc, #80]	@ (8006288 <vTaskSwitchContext+0xbc>)
 8006236:	4413      	add	r3, r2
 8006238:	613b      	str	r3, [r7, #16]
 800623a:	693b      	ldr	r3, [r7, #16]
 800623c:	685b      	ldr	r3, [r3, #4]
 800623e:	685a      	ldr	r2, [r3, #4]
 8006240:	693b      	ldr	r3, [r7, #16]
 8006242:	605a      	str	r2, [r3, #4]
 8006244:	693b      	ldr	r3, [r7, #16]
 8006246:	685a      	ldr	r2, [r3, #4]
 8006248:	693b      	ldr	r3, [r7, #16]
 800624a:	3308      	adds	r3, #8
 800624c:	429a      	cmp	r2, r3
 800624e:	d104      	bne.n	800625a <vTaskSwitchContext+0x8e>
 8006250:	693b      	ldr	r3, [r7, #16]
 8006252:	685b      	ldr	r3, [r3, #4]
 8006254:	685a      	ldr	r2, [r3, #4]
 8006256:	693b      	ldr	r3, [r7, #16]
 8006258:	605a      	str	r2, [r3, #4]
 800625a:	693b      	ldr	r3, [r7, #16]
 800625c:	685b      	ldr	r3, [r3, #4]
 800625e:	68db      	ldr	r3, [r3, #12]
 8006260:	4a0a      	ldr	r2, [pc, #40]	@ (800628c <vTaskSwitchContext+0xc0>)
 8006262:	6013      	str	r3, [r2, #0]
 8006264:	4b09      	ldr	r3, [pc, #36]	@ (800628c <vTaskSwitchContext+0xc0>)
 8006266:	681b      	ldr	r3, [r3, #0]
 8006268:	334c      	adds	r3, #76	@ 0x4c
 800626a:	4a09      	ldr	r2, [pc, #36]	@ (8006290 <vTaskSwitchContext+0xc4>)
 800626c:	6013      	str	r3, [r2, #0]
 800626e:	bf00      	nop
 8006270:	371c      	adds	r7, #28
 8006272:	46bd      	mov	sp, r7
 8006274:	f85d 7b04 	ldr.w	r7, [sp], #4
 8006278:	4770      	bx	lr
 800627a:	bf00      	nop
 800627c:	20000908 	.word	0x20000908
 8006280:	200008f4 	.word	0x200008f4
 8006284:	200008e8 	.word	0x200008e8
 8006288:	200007e4 	.word	0x200007e4
 800628c:	200007e0 	.word	0x200007e0
 8006290:	2000001c 	.word	0x2000001c

08006294 <prvIdleTask>:
 8006294:	b580      	push	{r7, lr}
 8006296:	b082      	sub	sp, #8
 8006298:	af00      	add	r7, sp, #0
 800629a:	6078      	str	r0, [r7, #4]
 800629c:	f000 f852 	bl	8006344 <prvCheckTasksWaitingTermination>
 80062a0:	4b06      	ldr	r3, [pc, #24]	@ (80062bc <prvIdleTask+0x28>)
 80062a2:	681b      	ldr	r3, [r3, #0]
 80062a4:	2b01      	cmp	r3, #1
 80062a6:	d9f9      	bls.n	800629c <prvIdleTask+0x8>
 80062a8:	4b05      	ldr	r3, [pc, #20]	@ (80062c0 <prvIdleTask+0x2c>)
 80062aa:	f04f 5280 	mov.w	r2, #268435456	@ 0x10000000
 80062ae:	601a      	str	r2, [r3, #0]
 80062b0:	f3bf 8f4f 	dsb	sy
 80062b4:	f3bf 8f6f 	isb	sy
 80062b8:	e7f0      	b.n	800629c <prvIdleTask+0x8>
 80062ba:	bf00      	nop
 80062bc:	200007e4 	.word	0x200007e4
 80062c0:	e000ed04 	.word	0xe000ed04

080062c4 <prvInitialiseTaskLists>:
 80062c4:	b580      	push	{r7, lr}
 80062c6:	b082      	sub	sp, #8
 80062c8:	af00      	add	r7, sp, #0
 80062ca:	2300      	movs	r3, #0
 80062cc:	607b      	str	r3, [r7, #4]
 80062ce:	e00c      	b.n	80062ea <prvInitialiseTaskLists+0x26>
 80062d0:	687a      	ldr	r2, [r7, #4]
 80062d2:	4613      	mov	r3, r2
 80062d4:	009b      	lsls	r3, r3, #2
 80062d6:	4413      	add	r3, r2
 80062d8:	009b      	lsls	r3, r3, #2
 80062da:	4a12      	ldr	r2, [pc, #72]	@ (8006324 <prvInitialiseTaskLists+0x60>)
 80062dc:	4413      	add	r3, r2
 80062de:	4618      	mov	r0, r3
 80062e0:	f7ff fb0a 	bl	80058f8 <vListInitialise>
 80062e4:	687b      	ldr	r3, [r7, #4]
 80062e6:	3301      	adds	r3, #1
 80062e8:	607b      	str	r3, [r7, #4]
 80062ea:	687b      	ldr	r3, [r7, #4]
 80062ec:	2b06      	cmp	r3, #6
 80062ee:	d9ef      	bls.n	80062d0 <prvInitialiseTaskLists+0xc>
 80062f0:	480d      	ldr	r0, [pc, #52]	@ (8006328 <prvInitialiseTaskLists+0x64>)
 80062f2:	f7ff fb01 	bl	80058f8 <vListInitialise>
 80062f6:	480d      	ldr	r0, [pc, #52]	@ (800632c <prvInitialiseTaskLists+0x68>)
 80062f8:	f7ff fafe 	bl	80058f8 <vListInitialise>
 80062fc:	480c      	ldr	r0, [pc, #48]	@ (8006330 <prvInitialiseTaskLists+0x6c>)
 80062fe:	f7ff fafb 	bl	80058f8 <vListInitialise>
 8006302:	480c      	ldr	r0, [pc, #48]	@ (8006334 <prvInitialiseTaskLists+0x70>)
 8006304:	f7ff faf8 	bl	80058f8 <vListInitialise>
 8006308:	480b      	ldr	r0, [pc, #44]	@ (8006338 <prvInitialiseTaskLists+0x74>)
 800630a:	f7ff faf5 	bl	80058f8 <vListInitialise>
 800630e:	4b0b      	ldr	r3, [pc, #44]	@ (800633c <prvInitialiseTaskLists+0x78>)
 8006310:	4a05      	ldr	r2, [pc, #20]	@ (8006328 <prvInitialiseTaskLists+0x64>)
 8006312:	601a      	str	r2, [r3, #0]
 8006314:	4b0a      	ldr	r3, [pc, #40]	@ (8006340 <prvInitialiseTaskLists+0x7c>)
 8006316:	4a05      	ldr	r2, [pc, #20]	@ (800632c <prvInitialiseTaskLists+0x68>)
 8006318:	601a      	str	r2, [r3, #0]
 800631a:	bf00      	nop
 800631c:	3708      	adds	r7, #8
 800631e:	46bd      	mov	sp, r7
 8006320:	bd80      	pop	{r7, pc}
 8006322:	bf00      	nop
 8006324:	200007e4 	.word	0x200007e4
 8006328:	20000870 	.word	0x20000870
 800632c:	20000884 	.word	0x20000884
 8006330:	200008a0 	.word	0x200008a0
 8006334:	200008b4 	.word	0x200008b4
 8006338:	200008cc 	.word	0x200008cc
 800633c:	20000898 	.word	0x20000898
 8006340:	2000089c 	.word	0x2000089c

08006344 <prvCheckTasksWaitingTermination>:
 8006344:	b580      	push	{r7, lr}
 8006346:	b082      	sub	sp, #8
 8006348:	af00      	add	r7, sp, #0
 800634a:	e019      	b.n	8006380 <prvCheckTasksWaitingTermination+0x3c>
 800634c:	f000 fa14 	bl	8006778 <vPortEnterCritical>
 8006350:	4b10      	ldr	r3, [pc, #64]	@ (8006394 <prvCheckTasksWaitingTermination+0x50>)
 8006352:	68db      	ldr	r3, [r3, #12]
 8006354:	68db      	ldr	r3, [r3, #12]
 8006356:	607b      	str	r3, [r7, #4]
 8006358:	687b      	ldr	r3, [r7, #4]
 800635a:	3304      	adds	r3, #4
 800635c:	4618      	mov	r0, r3
 800635e:	f7ff fb55 	bl	8005a0c <uxListRemove>
 8006362:	4b0d      	ldr	r3, [pc, #52]	@ (8006398 <prvCheckTasksWaitingTermination+0x54>)
 8006364:	681b      	ldr	r3, [r3, #0]
 8006366:	3b01      	subs	r3, #1
 8006368:	4a0b      	ldr	r2, [pc, #44]	@ (8006398 <prvCheckTasksWaitingTermination+0x54>)
 800636a:	6013      	str	r3, [r2, #0]
 800636c:	4b0b      	ldr	r3, [pc, #44]	@ (800639c <prvCheckTasksWaitingTermination+0x58>)
 800636e:	681b      	ldr	r3, [r3, #0]
 8006370:	3b01      	subs	r3, #1
 8006372:	4a0a      	ldr	r2, [pc, #40]	@ (800639c <prvCheckTasksWaitingTermination+0x58>)
 8006374:	6013      	str	r3, [r2, #0]
 8006376:	f000 fa31 	bl	80067dc <vPortExitCritical>
 800637a:	6878      	ldr	r0, [r7, #4]
 800637c:	f000 f810 	bl	80063a0 <prvDeleteTCB>
 8006380:	4b06      	ldr	r3, [pc, #24]	@ (800639c <prvCheckTasksWaitingTermination+0x58>)
 8006382:	681b      	ldr	r3, [r3, #0]
 8006384:	2b00      	cmp	r3, #0
 8006386:	d1e1      	bne.n	800634c <prvCheckTasksWaitingTermination+0x8>
 8006388:	bf00      	nop
 800638a:	bf00      	nop
 800638c:	3708      	adds	r7, #8
 800638e:	46bd      	mov	sp, r7
 8006390:	bd80      	pop	{r7, pc}
 8006392:	bf00      	nop
 8006394:	200008b4 	.word	0x200008b4
 8006398:	200008e0 	.word	0x200008e0
 800639c:	200008c8 	.word	0x200008c8

080063a0 <prvDeleteTCB>:
 80063a0:	b580      	push	{r7, lr}
 80063a2:	b084      	sub	sp, #16
 80063a4:	af00      	add	r7, sp, #0
 80063a6:	6078      	str	r0, [r7, #4]
 80063a8:	687b      	ldr	r3, [r7, #4]
 80063aa:	334c      	adds	r3, #76	@ 0x4c
 80063ac:	4618      	mov	r0, r3
 80063ae:	f000 ff7d 	bl	80072ac <_reclaim_reent>
 80063b2:	687b      	ldr	r3, [r7, #4]
 80063b4:	f893 309d 	ldrb.w	r3, [r3, #157]	@ 0x9d
 80063b8:	2b00      	cmp	r3, #0
 80063ba:	d108      	bne.n	80063ce <prvDeleteTCB+0x2e>
 80063bc:	687b      	ldr	r3, [r7, #4]
 80063be:	6b1b      	ldr	r3, [r3, #48]	@ 0x30
 80063c0:	4618      	mov	r0, r3
 80063c2:	f000 fb87 	bl	8006ad4 <vPortFree>
 80063c6:	6878      	ldr	r0, [r7, #4]
 80063c8:	f000 fb84 	bl	8006ad4 <vPortFree>
 80063cc:	e019      	b.n	8006402 <prvDeleteTCB+0x62>
 80063ce:	687b      	ldr	r3, [r7, #4]
 80063d0:	f893 309d 	ldrb.w	r3, [r3, #157]	@ 0x9d
 80063d4:	2b01      	cmp	r3, #1
 80063d6:	d103      	bne.n	80063e0 <prvDeleteTCB+0x40>
 80063d8:	6878      	ldr	r0, [r7, #4]
 80063da:	f000 fb7b 	bl	8006ad4 <vPortFree>
 80063de:	e010      	b.n	8006402 <prvDeleteTCB+0x62>
 80063e0:	687b      	ldr	r3, [r7, #4]
 80063e2:	f893 309d 	ldrb.w	r3, [r3, #157]	@ 0x9d
 80063e6:	2b02      	cmp	r3, #2
 80063e8:	d00b      	beq.n	8006402 <prvDeleteTCB+0x62>
 80063ea:	f04f 0350 	mov.w	r3, #80	@ 0x50
 80063ee:	f383 8811 	msr	BASEPRI, r3
 80063f2:	f3bf 8f6f 	isb	sy
 80063f6:	f3bf 8f4f 	dsb	sy
 80063fa:	60fb      	str	r3, [r7, #12]
 80063fc:	bf00      	nop
 80063fe:	bf00      	nop
 8006400:	e7fd      	b.n	80063fe <prvDeleteTCB+0x5e>
 8006402:	bf00      	nop
 8006404:	3710      	adds	r7, #16
 8006406:	46bd      	mov	sp, r7
 8006408:	bd80      	pop	{r7, pc}
	...

0800640c <prvResetNextTaskUnblockTime>:
 800640c:	b480      	push	{r7}
 800640e:	b083      	sub	sp, #12
 8006410:	af00      	add	r7, sp, #0
 8006412:	4b0c      	ldr	r3, [pc, #48]	@ (8006444 <prvResetNextTaskUnblockTime+0x38>)
 8006414:	681b      	ldr	r3, [r3, #0]
 8006416:	681b      	ldr	r3, [r3, #0]
 8006418:	2b00      	cmp	r3, #0
 800641a:	d104      	bne.n	8006426 <prvResetNextTaskUnblockTime+0x1a>
 800641c:	4b0a      	ldr	r3, [pc, #40]	@ (8006448 <prvResetNextTaskUnblockTime+0x3c>)
 800641e:	f04f 32ff 	mov.w	r2, #4294967295
 8006422:	601a      	str	r2, [r3, #0]
 8006424:	e008      	b.n	8006438 <prvResetNextTaskUnblockTime+0x2c>
 8006426:	4b07      	ldr	r3, [pc, #28]	@ (8006444 <prvResetNextTaskUnblockTime+0x38>)
 8006428:	681b      	ldr	r3, [r3, #0]
 800642a:	68db      	ldr	r3, [r3, #12]
 800642c:	68db      	ldr	r3, [r3, #12]
 800642e:	607b      	str	r3, [r7, #4]
 8006430:	687b      	ldr	r3, [r7, #4]
 8006432:	685b      	ldr	r3, [r3, #4]
 8006434:	4a04      	ldr	r2, [pc, #16]	@ (8006448 <prvResetNextTaskUnblockTime+0x3c>)
 8006436:	6013      	str	r3, [r2, #0]
 8006438:	bf00      	nop
 800643a:	370c      	adds	r7, #12
 800643c:	46bd      	mov	sp, r7
 800643e:	f85d 7b04 	ldr.w	r7, [sp], #4
 8006442:	4770      	bx	lr
 8006444:	20000898 	.word	0x20000898
 8006448:	20000900 	.word	0x20000900

0800644c <prvAddCurrentTaskToDelayedList>:
 800644c:	b580      	push	{r7, lr}
 800644e:	b084      	sub	sp, #16
 8006450:	af00      	add	r7, sp, #0
 8006452:	6078      	str	r0, [r7, #4]
 8006454:	6039      	str	r1, [r7, #0]
 8006456:	4b29      	ldr	r3, [pc, #164]	@ (80064fc <prvAddCurrentTaskToDelayedList+0xb0>)
 8006458:	681b      	ldr	r3, [r3, #0]
 800645a:	60fb      	str	r3, [r7, #12]
 800645c:	4b28      	ldr	r3, [pc, #160]	@ (8006500 <prvAddCurrentTaskToDelayedList+0xb4>)
 800645e:	681b      	ldr	r3, [r3, #0]
 8006460:	3304      	adds	r3, #4
 8006462:	4618      	mov	r0, r3
 8006464:	f7ff fad2 	bl	8005a0c <uxListRemove>
 8006468:	4603      	mov	r3, r0
 800646a:	2b00      	cmp	r3, #0
 800646c:	d10b      	bne.n	8006486 <prvAddCurrentTaskToDelayedList+0x3a>
 800646e:	4b24      	ldr	r3, [pc, #144]	@ (8006500 <prvAddCurrentTaskToDelayedList+0xb4>)
 8006470:	681b      	ldr	r3, [r3, #0]
 8006472:	6adb      	ldr	r3, [r3, #44]	@ 0x2c
 8006474:	2201      	movs	r2, #1
 8006476:	fa02 f303 	lsl.w	r3, r2, r3
 800647a:	43da      	mvns	r2, r3
 800647c:	4b21      	ldr	r3, [pc, #132]	@ (8006504 <prvAddCurrentTaskToDelayedList+0xb8>)
 800647e:	681b      	ldr	r3, [r3, #0]
 8006480:	4013      	ands	r3, r2
 8006482:	4a20      	ldr	r2, [pc, #128]	@ (8006504 <prvAddCurrentTaskToDelayedList+0xb8>)
 8006484:	6013      	str	r3, [r2, #0]
 8006486:	687b      	ldr	r3, [r7, #4]
 8006488:	f1b3 3fff 	cmp.w	r3, #4294967295
 800648c:	d10a      	bne.n	80064a4 <prvAddCurrentTaskToDelayedList+0x58>
 800648e:	683b      	ldr	r3, [r7, #0]
 8006490:	2b00      	cmp	r3, #0
 8006492:	d007      	beq.n	80064a4 <prvAddCurrentTaskToDelayedList+0x58>
 8006494:	4b1a      	ldr	r3, [pc, #104]	@ (8006500 <prvAddCurrentTaskToDelayedList+0xb4>)
 8006496:	681b      	ldr	r3, [r3, #0]
 8006498:	3304      	adds	r3, #4
 800649a:	4619      	mov	r1, r3
 800649c:	481a      	ldr	r0, [pc, #104]	@ (8006508 <prvAddCurrentTaskToDelayedList+0xbc>)
 800649e:	f7ff fa58 	bl	8005952 <vListInsertEnd>
 80064a2:	e026      	b.n	80064f2 <prvAddCurrentTaskToDelayedList+0xa6>
 80064a4:	68fa      	ldr	r2, [r7, #12]
 80064a6:	687b      	ldr	r3, [r7, #4]
 80064a8:	4413      	add	r3, r2
 80064aa:	60bb      	str	r3, [r7, #8]
 80064ac:	4b14      	ldr	r3, [pc, #80]	@ (8006500 <prvAddCurrentTaskToDelayedList+0xb4>)
 80064ae:	681b      	ldr	r3, [r3, #0]
 80064b0:	68ba      	ldr	r2, [r7, #8]
 80064b2:	605a      	str	r2, [r3, #4]
 80064b4:	68ba      	ldr	r2, [r7, #8]
 80064b6:	68fb      	ldr	r3, [r7, #12]
 80064b8:	429a      	cmp	r2, r3
 80064ba:	d209      	bcs.n	80064d0 <prvAddCurrentTaskToDelayedList+0x84>
 80064bc:	4b13      	ldr	r3, [pc, #76]	@ (800650c <prvAddCurrentTaskToDelayedList+0xc0>)
 80064be:	681a      	ldr	r2, [r3, #0]
 80064c0:	4b0f      	ldr	r3, [pc, #60]	@ (8006500 <prvAddCurrentTaskToDelayedList+0xb4>)
 80064c2:	681b      	ldr	r3, [r3, #0]
 80064c4:	3304      	adds	r3, #4
 80064c6:	4619      	mov	r1, r3
 80064c8:	4610      	mov	r0, r2
 80064ca:	f7ff fa66 	bl	800599a <vListInsert>
 80064ce:	e010      	b.n	80064f2 <prvAddCurrentTaskToDelayedList+0xa6>
 80064d0:	4b0f      	ldr	r3, [pc, #60]	@ (8006510 <prvAddCurrentTaskToDelayedList+0xc4>)
 80064d2:	681a      	ldr	r2, [r3, #0]
 80064d4:	4b0a      	ldr	r3, [pc, #40]	@ (8006500 <prvAddCurrentTaskToDelayedList+0xb4>)
 80064d6:	681b      	ldr	r3, [r3, #0]
 80064d8:	3304      	adds	r3, #4
 80064da:	4619      	mov	r1, r3
 80064dc:	4610      	mov	r0, r2
 80064de:	f7ff fa5c 	bl	800599a <vListInsert>
 80064e2:	4b0c      	ldr	r3, [pc, #48]	@ (8006514 <prvAddCurrentTaskToDelayedList+0xc8>)
 80064e4:	681b      	ldr	r3, [r3, #0]
 80064e6:	68ba      	ldr	r2, [r7, #8]
 80064e8:	429a      	cmp	r2, r3
 80064ea:	d202      	bcs.n	80064f2 <prvAddCurrentTaskToDelayedList+0xa6>
 80064ec:	4a09      	ldr	r2, [pc, #36]	@ (8006514 <prvAddCurrentTaskToDelayedList+0xc8>)
 80064ee:	68bb      	ldr	r3, [r7, #8]
 80064f0:	6013      	str	r3, [r2, #0]
 80064f2:	bf00      	nop
 80064f4:	3710      	adds	r7, #16
 80064f6:	46bd      	mov	sp, r7
 80064f8:	bd80      	pop	{r7, pc}
 80064fa:	bf00      	nop
 80064fc:	200008e4 	.word	0x200008e4
 8006500:	200007e0 	.word	0x200007e0
 8006504:	200008e8 	.word	0x200008e8
 8006508:	200008cc 	.word	0x200008cc
 800650c:	2000089c 	.word	0x2000089c
 8006510:	20000898 	.word	0x20000898
 8006514:	20000900 	.word	0x20000900

08006518 <pxPortInitialiseStack>:
 8006518:	b480      	push	{r7}
 800651a:	b085      	sub	sp, #20
 800651c:	af00      	add	r7, sp, #0
 800651e:	60f8      	str	r0, [r7, #12]
 8006520:	60b9      	str	r1, [r7, #8]
 8006522:	607a      	str	r2, [r7, #4]
 8006524:	68fb      	ldr	r3, [r7, #12]
 8006526:	3b04      	subs	r3, #4
 8006528:	60fb      	str	r3, [r7, #12]
 800652a:	68fb      	ldr	r3, [r7, #12]
 800652c:	f04f 7280 	mov.w	r2, #16777216	@ 0x1000000
 8006530:	601a      	str	r2, [r3, #0]
 8006532:	68fb      	ldr	r3, [r7, #12]
 8006534:	3b04      	subs	r3, #4
 8006536:	60fb      	str	r3, [r7, #12]
 8006538:	68bb      	ldr	r3, [r7, #8]
 800653a:	f023 0201 	bic.w	r2, r3, #1
 800653e:	68fb      	ldr	r3, [r7, #12]
 8006540:	601a      	str	r2, [r3, #0]
 8006542:	68fb      	ldr	r3, [r7, #12]
 8006544:	3b04      	subs	r3, #4
 8006546:	60fb      	str	r3, [r7, #12]
 8006548:	4a0c      	ldr	r2, [pc, #48]	@ (800657c <pxPortInitialiseStack+0x64>)
 800654a:	68fb      	ldr	r3, [r7, #12]
 800654c:	601a      	str	r2, [r3, #0]
 800654e:	68fb      	ldr	r3, [r7, #12]
 8006550:	3b14      	subs	r3, #20
 8006552:	60fb      	str	r3, [r7, #12]
 8006554:	687a      	ldr	r2, [r7, #4]
 8006556:	68fb      	ldr	r3, [r7, #12]
 8006558:	601a      	str	r2, [r3, #0]
 800655a:	68fb      	ldr	r3, [r7, #12]
 800655c:	3b04      	subs	r3, #4
 800655e:	60fb      	str	r3, [r7, #12]
 8006560:	68fb      	ldr	r3, [r7, #12]
 8006562:	f06f 0202 	mvn.w	r2, #2
 8006566:	601a      	str	r2, [r3, #0]
 8006568:	68fb      	ldr	r3, [r7, #12]
 800656a:	3b20      	subs	r3, #32
 800656c:	60fb      	str	r3, [r7, #12]
 800656e:	68fb      	ldr	r3, [r7, #12]
 8006570:	4618      	mov	r0, r3
 8006572:	3714      	adds	r7, #20
 8006574:	46bd      	mov	sp, r7
 8006576:	f85d 7b04 	ldr.w	r7, [sp], #4
 800657a:	4770      	bx	lr
 800657c:	08006581 	.word	0x08006581

08006580 <prvTaskExitError>:
 8006580:	b480      	push	{r7}
 8006582:	b085      	sub	sp, #20
 8006584:	af00      	add	r7, sp, #0
 8006586:	2300      	movs	r3, #0
 8006588:	607b      	str	r3, [r7, #4]
 800658a:	4b13      	ldr	r3, [pc, #76]	@ (80065d8 <prvTaskExitError+0x58>)
 800658c:	681b      	ldr	r3, [r3, #0]
 800658e:	f1b3 3fff 	cmp.w	r3, #4294967295
 8006592:	d00b      	beq.n	80065ac <prvTaskExitError+0x2c>
 8006594:	f04f 0350 	mov.w	r3, #80	@ 0x50
 8006598:	f383 8811 	msr	BASEPRI, r3
 800659c:	f3bf 8f6f 	isb	sy
 80065a0:	f3bf 8f4f 	dsb	sy
 80065a4:	60fb      	str	r3, [r7, #12]
 80065a6:	bf00      	nop
 80065a8:	bf00      	nop
 80065aa:	e7fd      	b.n	80065a8 <prvTaskExitError+0x28>
 80065ac:	f04f 0350 	mov.w	r3, #80	@ 0x50
 80065b0:	f383 8811 	msr	BASEPRI, r3
 80065b4:	f3bf 8f6f 	isb	sy
 80065b8:	f3bf 8f4f 	dsb	sy
 80065bc:	60bb      	str	r3, [r7, #8]
 80065be:	bf00      	nop
 80065c0:	bf00      	nop
 80065c2:	687b      	ldr	r3, [r7, #4]
 80065c4:	2b00      	cmp	r3, #0
 80065c6:	d0fc      	beq.n	80065c2 <prvTaskExitError+0x42>
 80065c8:	bf00      	nop
 80065ca:	bf00      	nop
 80065cc:	3714      	adds	r7, #20
 80065ce:	46bd      	mov	sp, r7
 80065d0:	f85d 7b04 	ldr.w	r7, [sp], #4
 80065d4:	4770      	bx	lr
 80065d6:	bf00      	nop
 80065d8:	2000000c 	.word	0x2000000c
 80065dc:	00000000 	.word	0x00000000

080065e0 <SVC_Handler>:
 80065e0:	4b07      	ldr	r3, [pc, #28]	@ (8006600 <pxCurrentTCBConst2>)
 80065e2:	6819      	ldr	r1, [r3, #0]
 80065e4:	6808      	ldr	r0, [r1, #0]
 80065e6:	e8b0 4ff0 	ldmia.w	r0!, {r4, r5, r6, r7, r8, r9, sl, fp, lr}
 80065ea:	f380 8809 	msr	PSP, r0
 80065ee:	f3bf 8f6f 	isb	sy
 80065f2:	f04f 0000 	mov.w	r0, #0
 80065f6:	f380 8811 	msr	BASEPRI, r0
 80065fa:	4770      	bx	lr
 80065fc:	f3af 8000 	nop.w

08006600 <pxCurrentTCBConst2>:
 8006600:	200007e0 	.word	0x200007e0
 8006604:	bf00      	nop
 8006606:	bf00      	nop

08006608 <prvPortStartFirstTask>:
 8006608:	4808      	ldr	r0, [pc, #32]	@ (800662c <prvPortStartFirstTask+0x24>)
 800660a:	6800      	ldr	r0, [r0, #0]
 800660c:	6800      	ldr	r0, [r0, #0]
 800660e:	f380 8808 	msr	MSP, r0
 8006612:	f04f 0000 	mov.w	r0, #0
 8006616:	f380 8814 	msr	CONTROL, r0
 800661a:	b662      	cpsie	i
 800661c:	b661      	cpsie	f
 800661e:	f3bf 8f4f 	dsb	sy
 8006622:	f3bf 8f6f 	isb	sy
 8006626:	df00      	svc	0
 8006628:	bf00      	nop
 800662a:	bf00      	nop
 800662c:	e000ed08 	.word	0xe000ed08

08006630 <xPortStartScheduler>:
 8006630:	b580      	push	{r7, lr}
 8006632:	b086      	sub	sp, #24
 8006634:	af00      	add	r7, sp, #0
 8006636:	4b47      	ldr	r3, [pc, #284]	@ (8006754 <xPortStartScheduler+0x124>)
 8006638:	681b      	ldr	r3, [r3, #0]
 800663a:	4a47      	ldr	r2, [pc, #284]	@ (8006758 <xPortStartScheduler+0x128>)
 800663c:	4293      	cmp	r3, r2
 800663e:	d10b      	bne.n	8006658 <xPortStartScheduler+0x28>
 8006640:	f04f 0350 	mov.w	r3, #80	@ 0x50
 8006644:	f383 8811 	msr	BASEPRI, r3
 8006648:	f3bf 8f6f 	isb	sy
 800664c:	f3bf 8f4f 	dsb	sy
 8006650:	613b      	str	r3, [r7, #16]
 8006652:	bf00      	nop
 8006654:	bf00      	nop
 8006656:	e7fd      	b.n	8006654 <xPortStartScheduler+0x24>
 8006658:	4b3e      	ldr	r3, [pc, #248]	@ (8006754 <xPortStartScheduler+0x124>)
 800665a:	681b      	ldr	r3, [r3, #0]
 800665c:	4a3f      	ldr	r2, [pc, #252]	@ (800675c <xPortStartScheduler+0x12c>)
 800665e:	4293      	cmp	r3, r2
 8006660:	d10b      	bne.n	800667a <xPortStartScheduler+0x4a>
 8006662:	f04f 0350 	mov.w	r3, #80	@ 0x50
 8006666:	f383 8811 	msr	BASEPRI, r3
 800666a:	f3bf 8f6f 	isb	sy
 800666e:	f3bf 8f4f 	dsb	sy
 8006672:	60fb      	str	r3, [r7, #12]
 8006674:	bf00      	nop
 8006676:	bf00      	nop
 8006678:	e7fd      	b.n	8006676 <xPortStartScheduler+0x46>
 800667a:	4b39      	ldr	r3, [pc, #228]	@ (8006760 <xPortStartScheduler+0x130>)
 800667c:	617b      	str	r3, [r7, #20]
 800667e:	697b      	ldr	r3, [r7, #20]
 8006680:	781b      	ldrb	r3, [r3, #0]
 8006682:	b2db      	uxtb	r3, r3
 8006684:	607b      	str	r3, [r7, #4]
 8006686:	697b      	ldr	r3, [r7, #20]
 8006688:	22ff      	movs	r2, #255	@ 0xff
 800668a:	701a      	strb	r2, [r3, #0]
 800668c:	697b      	ldr	r3, [r7, #20]
 800668e:	781b      	ldrb	r3, [r3, #0]
 8006690:	b2db      	uxtb	r3, r3
 8006692:	70fb      	strb	r3, [r7, #3]
 8006694:	78fb      	ldrb	r3, [r7, #3]
 8006696:	b2db      	uxtb	r3, r3
 8006698:	f003 0350 	and.w	r3, r3, #80	@ 0x50
 800669c:	b2da      	uxtb	r2, r3
 800669e:	4b31      	ldr	r3, [pc, #196]	@ (8006764 <xPortStartScheduler+0x134>)
 80066a0:	701a      	strb	r2, [r3, #0]
 80066a2:	4b31      	ldr	r3, [pc, #196]	@ (8006768 <xPortStartScheduler+0x138>)
 80066a4:	2207      	movs	r2, #7
 80066a6:	601a      	str	r2, [r3, #0]
 80066a8:	e009      	b.n	80066be <xPortStartScheduler+0x8e>
 80066aa:	4b2f      	ldr	r3, [pc, #188]	@ (8006768 <xPortStartScheduler+0x138>)
 80066ac:	681b      	ldr	r3, [r3, #0]
 80066ae:	3b01      	subs	r3, #1
 80066b0:	4a2d      	ldr	r2, [pc, #180]	@ (8006768 <xPortStartScheduler+0x138>)
 80066b2:	6013      	str	r3, [r2, #0]
 80066b4:	78fb      	ldrb	r3, [r7, #3]
 80066b6:	b2db      	uxtb	r3, r3
 80066b8:	005b      	lsls	r3, r3, #1
 80066ba:	b2db      	uxtb	r3, r3
 80066bc:	70fb      	strb	r3, [r7, #3]
 80066be:	78fb      	ldrb	r3, [r7, #3]
 80066c0:	b2db      	uxtb	r3, r3
 80066c2:	f003 0380 	and.w	r3, r3, #128	@ 0x80
 80066c6:	2b80      	cmp	r3, #128	@ 0x80
 80066c8:	d0ef      	beq.n	80066aa <xPortStartScheduler+0x7a>
 80066ca:	4b27      	ldr	r3, [pc, #156]	@ (8006768 <xPortStartScheduler+0x138>)
 80066cc:	681b      	ldr	r3, [r3, #0]
 80066ce:	f1c3 0307 	rsb	r3, r3, #7
 80066d2:	2b04      	cmp	r3, #4
 80066d4:	d00b      	beq.n	80066ee <xPortStartScheduler+0xbe>
 80066d6:	f04f 0350 	mov.w	r3, #80	@ 0x50
 80066da:	f383 8811 	msr	BASEPRI, r3
 80066de:	f3bf 8f6f 	isb	sy
 80066e2:	f3bf 8f4f 	dsb	sy
 80066e6:	60bb      	str	r3, [r7, #8]
 80066e8:	bf00      	nop
 80066ea:	bf00      	nop
 80066ec:	e7fd      	b.n	80066ea <xPortStartScheduler+0xba>
 80066ee:	4b1e      	ldr	r3, [pc, #120]	@ (8006768 <xPortStartScheduler+0x138>)
 80066f0:	681b      	ldr	r3, [r3, #0]
 80066f2:	021b      	lsls	r3, r3, #8
 80066f4:	4a1c      	ldr	r2, [pc, #112]	@ (8006768 <xPortStartScheduler+0x138>)
 80066f6:	6013      	str	r3, [r2, #0]
 80066f8:	4b1b      	ldr	r3, [pc, #108]	@ (8006768 <xPortStartScheduler+0x138>)
 80066fa:	681b      	ldr	r3, [r3, #0]
 80066fc:	f403 63e0 	and.w	r3, r3, #1792	@ 0x700
 8006700:	4a19      	ldr	r2, [pc, #100]	@ (8006768 <xPortStartScheduler+0x138>)
 8006702:	6013      	str	r3, [r2, #0]
 8006704:	687b      	ldr	r3, [r7, #4]
 8006706:	b2da      	uxtb	r2, r3
 8006708:	697b      	ldr	r3, [r7, #20]
 800670a:	701a      	strb	r2, [r3, #0]
 800670c:	4b17      	ldr	r3, [pc, #92]	@ (800676c <xPortStartScheduler+0x13c>)
 800670e:	681b      	ldr	r3, [r3, #0]
 8006710:	4a16      	ldr	r2, [pc, #88]	@ (800676c <xPortStartScheduler+0x13c>)
 8006712:	f443 0370 	orr.w	r3, r3, #15728640	@ 0xf00000
 8006716:	6013      	str	r3, [r2, #0]
 8006718:	4b14      	ldr	r3, [pc, #80]	@ (800676c <xPortStartScheduler+0x13c>)
 800671a:	681b      	ldr	r3, [r3, #0]
 800671c:	4a13      	ldr	r2, [pc, #76]	@ (800676c <xPortStartScheduler+0x13c>)
 800671e:	f043 4370 	orr.w	r3, r3, #4026531840	@ 0xf0000000
 8006722:	6013      	str	r3, [r2, #0]
 8006724:	f000 f8da 	bl	80068dc <vPortSetupTimerInterrupt>
 8006728:	4b11      	ldr	r3, [pc, #68]	@ (8006770 <xPortStartScheduler+0x140>)
 800672a:	2200      	movs	r2, #0
 800672c:	601a      	str	r2, [r3, #0]
 800672e:	f000 f8f9 	bl	8006924 <vPortEnableVFP>
 8006732:	4b10      	ldr	r3, [pc, #64]	@ (8006774 <xPortStartScheduler+0x144>)
 8006734:	681b      	ldr	r3, [r3, #0]
 8006736:	4a0f      	ldr	r2, [pc, #60]	@ (8006774 <xPortStartScheduler+0x144>)
 8006738:	f043 4340 	orr.w	r3, r3, #3221225472	@ 0xc0000000
 800673c:	6013      	str	r3, [r2, #0]
 800673e:	f7ff ff63 	bl	8006608 <prvPortStartFirstTask>
 8006742:	f7ff fd43 	bl	80061cc <vTaskSwitchContext>
 8006746:	f7ff ff1b 	bl	8006580 <prvTaskExitError>
 800674a:	2300      	movs	r3, #0
 800674c:	4618      	mov	r0, r3
 800674e:	3718      	adds	r7, #24
 8006750:	46bd      	mov	sp, r7
 8006752:	bd80      	pop	{r7, pc}
 8006754:	e000ed00 	.word	0xe000ed00
 8006758:	410fc271 	.word	0x410fc271
 800675c:	410fc270 	.word	0x410fc270
 8006760:	e000e400 	.word	0xe000e400
 8006764:	2000090c 	.word	0x2000090c
 8006768:	20000910 	.word	0x20000910
 800676c:	e000ed20 	.word	0xe000ed20
 8006770:	2000000c 	.word	0x2000000c
 8006774:	e000ef34 	.word	0xe000ef34

08006778 <vPortEnterCritical>:
 8006778:	b480      	push	{r7}
 800677a:	b083      	sub	sp, #12
 800677c:	af00      	add	r7, sp, #0
 800677e:	f04f 0350 	mov.w	r3, #80	@ 0x50
 8006782:	f383 8811 	msr	BASEPRI, r3
 8006786:	f3bf 8f6f 	isb	sy
 800678a:	f3bf 8f4f 	dsb	sy
 800678e:	607b      	str	r3, [r7, #4]
 8006790:	bf00      	nop
 8006792:	4b10      	ldr	r3, [pc, #64]	@ (80067d4 <vPortEnterCritical+0x5c>)
 8006794:	681b      	ldr	r3, [r3, #0]
 8006796:	3301      	adds	r3, #1
 8006798:	4a0e      	ldr	r2, [pc, #56]	@ (80067d4 <vPortEnterCritical+0x5c>)
 800679a:	6013      	str	r3, [r2, #0]
 800679c:	4b0d      	ldr	r3, [pc, #52]	@ (80067d4 <vPortEnterCritical+0x5c>)
 800679e:	681b      	ldr	r3, [r3, #0]
 80067a0:	2b01      	cmp	r3, #1
 80067a2:	d110      	bne.n	80067c6 <vPortEnterCritical+0x4e>
 80067a4:	4b0c      	ldr	r3, [pc, #48]	@ (80067d8 <vPortEnterCritical+0x60>)
 80067a6:	681b      	ldr	r3, [r3, #0]
 80067a8:	b2db      	uxtb	r3, r3
 80067aa:	2b00      	cmp	r3, #0
 80067ac:	d00b      	beq.n	80067c6 <vPortEnterCritical+0x4e>
 80067ae:	f04f 0350 	mov.w	r3, #80	@ 0x50
 80067b2:	f383 8811 	msr	BASEPRI, r3
 80067b6:	f3bf 8f6f 	isb	sy
 80067ba:	f3bf 8f4f 	dsb	sy
 80067be:	603b      	str	r3, [r7, #0]
 80067c0:	bf00      	nop
 80067c2:	bf00      	nop
 80067c4:	e7fd      	b.n	80067c2 <vPortEnterCritical+0x4a>
 80067c6:	bf00      	nop
 80067c8:	370c      	adds	r7, #12
 80067ca:	46bd      	mov	sp, r7
 80067cc:	f85d 7b04 	ldr.w	r7, [sp], #4
 80067d0:	4770      	bx	lr
 80067d2:	bf00      	nop
 80067d4:	2000000c 	.word	0x2000000c
 80067d8:	e000ed04 	.word	0xe000ed04

080067dc <vPortExitCritical>:
 80067dc:	b480      	push	{r7}
 80067de:	b083      	sub	sp, #12
 80067e0:	af00      	add	r7, sp, #0
 80067e2:	4b12      	ldr	r3, [pc, #72]	@ (800682c <vPortExitCritical+0x50>)
 80067e4:	681b      	ldr	r3, [r3, #0]
 80067e6:	2b00      	cmp	r3, #0
 80067e8:	d10b      	bne.n	8006802 <vPortExitCritical+0x26>
 80067ea:	f04f 0350 	mov.w	r3, #80	@ 0x50
 80067ee:	f383 8811 	msr	BASEPRI, r3
 80067f2:	f3bf 8f6f 	isb	sy
 80067f6:	f3bf 8f4f 	dsb	sy
 80067fa:	607b      	str	r3, [r7, #4]
 80067fc:	bf00      	nop
 80067fe:	bf00      	nop
 8006800:	e7fd      	b.n	80067fe <vPortExitCritical+0x22>
 8006802:	4b0a      	ldr	r3, [pc, #40]	@ (800682c <vPortExitCritical+0x50>)
 8006804:	681b      	ldr	r3, [r3, #0]
 8006806:	3b01      	subs	r3, #1
 8006808:	4a08      	ldr	r2, [pc, #32]	@ (800682c <vPortExitCritical+0x50>)
 800680a:	6013      	str	r3, [r2, #0]
 800680c:	4b07      	ldr	r3, [pc, #28]	@ (800682c <vPortExitCritical+0x50>)
 800680e:	681b      	ldr	r3, [r3, #0]
 8006810:	2b00      	cmp	r3, #0
 8006812:	d105      	bne.n	8006820 <vPortExitCritical+0x44>
 8006814:	2300      	movs	r3, #0
 8006816:	603b      	str	r3, [r7, #0]
 8006818:	683b      	ldr	r3, [r7, #0]
 800681a:	f383 8811 	msr	BASEPRI, r3
 800681e:	bf00      	nop
 8006820:	bf00      	nop
 8006822:	370c      	adds	r7, #12
 8006824:	46bd      	mov	sp, r7
 8006826:	f85d 7b04 	ldr.w	r7, [sp], #4
 800682a:	4770      	bx	lr
 800682c:	2000000c 	.word	0x2000000c

08006830 <PendSV_Handler>:
 8006830:	f3ef 8009 	mrs	r0, PSP
 8006834:	f3bf 8f6f 	isb	sy
 8006838:	4b15      	ldr	r3, [pc, #84]	@ (8006890 <pxCurrentTCBConst>)
 800683a:	681a      	ldr	r2, [r3, #0]
 800683c:	f01e 0f10 	tst.w	lr, #16
 8006840:	bf08      	it	eq
 8006842:	ed20 8a10 	vstmdbeq	r0!, {s16-s31}
 8006846:	e920 4ff0 	stmdb	r0!, {r4, r5, r6, r7, r8, r9, sl, fp, lr}
 800684a:	6010      	str	r0, [r2, #0]
 800684c:	e92d 0009 	stmdb	sp!, {r0, r3}
 8006850:	f04f 0050 	mov.w	r0, #80	@ 0x50
 8006854:	f380 8811 	msr	BASEPRI, r0
 8006858:	f3bf 8f4f 	dsb	sy
 800685c:	f3bf 8f6f 	isb	sy
 8006860:	f7ff fcb4 	bl	80061cc <vTaskSwitchContext>
 8006864:	f04f 0000 	mov.w	r0, #0
 8006868:	f380 8811 	msr	BASEPRI, r0
 800686c:	bc09      	pop	{r0, r3}
 800686e:	6819      	ldr	r1, [r3, #0]
 8006870:	6808      	ldr	r0, [r1, #0]
 8006872:	e8b0 4ff0 	ldmia.w	r0!, {r4, r5, r6, r7, r8, r9, sl, fp, lr}
 8006876:	f01e 0f10 	tst.w	lr, #16
 800687a:	bf08      	it	eq
 800687c:	ecb0 8a10 	vldmiaeq	r0!, {s16-s31}
 8006880:	f380 8809 	msr	PSP, r0
 8006884:	f3bf 8f6f 	isb	sy
 8006888:	4770      	bx	lr
 800688a:	bf00      	nop
 800688c:	f3af 8000 	nop.w

08006890 <pxCurrentTCBConst>:
 8006890:	200007e0 	.word	0x200007e0
 8006894:	bf00      	nop
 8006896:	bf00      	nop

08006898 <SysTick_Handler>:
 8006898:	b580      	push	{r7, lr}
 800689a:	b082      	sub	sp, #8
 800689c:	af00      	add	r7, sp, #0
 800689e:	f04f 0350 	mov.w	r3, #80	@ 0x50
 80068a2:	f383 8811 	msr	BASEPRI, r3
 80068a6:	f3bf 8f6f 	isb	sy
 80068aa:	f3bf 8f4f 	dsb	sy
 80068ae:	607b      	str	r3, [r7, #4]
 80068b0:	bf00      	nop
 80068b2:	f7ff fbd1 	bl	8006058 <xTaskIncrementTick>
 80068b6:	4603      	mov	r3, r0
 80068b8:	2b00      	cmp	r3, #0
 80068ba:	d003      	beq.n	80068c4 <SysTick_Handler+0x2c>
 80068bc:	4b06      	ldr	r3, [pc, #24]	@ (80068d8 <SysTick_Handler+0x40>)
 80068be:	f04f 5280 	mov.w	r2, #268435456	@ 0x10000000
 80068c2:	601a      	str	r2, [r3, #0]
 80068c4:	2300      	movs	r3, #0
 80068c6:	603b      	str	r3, [r7, #0]
 80068c8:	683b      	ldr	r3, [r7, #0]
 80068ca:	f383 8811 	msr	BASEPRI, r3
 80068ce:	bf00      	nop
 80068d0:	bf00      	nop
 80068d2:	3708      	adds	r7, #8
 80068d4:	46bd      	mov	sp, r7
 80068d6:	bd80      	pop	{r7, pc}
 80068d8:	e000ed04 	.word	0xe000ed04

080068dc <vPortSetupTimerInterrupt>:
 80068dc:	b480      	push	{r7}
 80068de:	af00      	add	r7, sp, #0
 80068e0:	4b0b      	ldr	r3, [pc, #44]	@ (8006910 <vPortSetupTimerInterrupt+0x34>)
 80068e2:	2200      	movs	r2, #0
 80068e4:	601a      	str	r2, [r3, #0]
 80068e6:	4b0b      	ldr	r3, [pc, #44]	@ (8006914 <vPortSetupTimerInterrupt+0x38>)
 80068e8:	2200      	movs	r2, #0
 80068ea:	601a      	str	r2, [r3, #0]
 80068ec:	4b0a      	ldr	r3, [pc, #40]	@ (8006918 <vPortSetupTimerInterrupt+0x3c>)
 80068ee:	681b      	ldr	r3, [r3, #0]
 80068f0:	4a0a      	ldr	r2, [pc, #40]	@ (800691c <vPortSetupTimerInterrupt+0x40>)
 80068f2:	fba2 2303 	umull	r2, r3, r2, r3
 80068f6:	099b      	lsrs	r3, r3, #6
 80068f8:	4a09      	ldr	r2, [pc, #36]	@ (8006920 <vPortSetupTimerInterrupt+0x44>)
 80068fa:	3b01      	subs	r3, #1
 80068fc:	6013      	str	r3, [r2, #0]
 80068fe:	4b04      	ldr	r3, [pc, #16]	@ (8006910 <vPortSetupTimerInterrupt+0x34>)
 8006900:	2207      	movs	r2, #7
 8006902:	601a      	str	r2, [r3, #0]
 8006904:	bf00      	nop
 8006906:	46bd      	mov	sp, r7
 8006908:	f85d 7b04 	ldr.w	r7, [sp], #4
 800690c:	4770      	bx	lr
 800690e:	bf00      	nop
 8006910:	e000e010 	.word	0xe000e010
 8006914:	e000e018 	.word	0xe000e018
 8006918:	20000000 	.word	0x20000000
 800691c:	10624dd3 	.word	0x10624dd3
 8006920:	e000e014 	.word	0xe000e014

08006924 <vPortEnableVFP>:
 8006924:	f8df 000c 	ldr.w	r0, [pc, #12]	@ 8006934 <vPortEnableVFP+0x10>
 8006928:	6801      	ldr	r1, [r0, #0]
 800692a:	f441 0170 	orr.w	r1, r1, #15728640	@ 0xf00000
 800692e:	6001      	str	r1, [r0, #0]
 8006930:	4770      	bx	lr
 8006932:	bf00      	nop
 8006934:	e000ed88 	.word	0xe000ed88

08006938 <pvPortMalloc>:
 8006938:	b580      	push	{r7, lr}
 800693a:	b08a      	sub	sp, #40	@ 0x28
 800693c:	af00      	add	r7, sp, #0
 800693e:	6078      	str	r0, [r7, #4]
 8006940:	2300      	movs	r3, #0
 8006942:	61fb      	str	r3, [r7, #28]
 8006944:	f7ff fadc 	bl	8005f00 <vTaskSuspendAll>
 8006948:	4b5c      	ldr	r3, [pc, #368]	@ (8006abc <pvPortMalloc+0x184>)
 800694a:	681b      	ldr	r3, [r3, #0]
 800694c:	2b00      	cmp	r3, #0
 800694e:	d101      	bne.n	8006954 <pvPortMalloc+0x1c>
 8006950:	f000 f924 	bl	8006b9c <prvHeapInit>
 8006954:	4b5a      	ldr	r3, [pc, #360]	@ (8006ac0 <pvPortMalloc+0x188>)
 8006956:	681a      	ldr	r2, [r3, #0]
 8006958:	687b      	ldr	r3, [r7, #4]
 800695a:	4013      	ands	r3, r2
 800695c:	2b00      	cmp	r3, #0
 800695e:	f040 8095 	bne.w	8006a8c <pvPortMalloc+0x154>
 8006962:	687b      	ldr	r3, [r7, #4]
 8006964:	2b00      	cmp	r3, #0
 8006966:	d01e      	beq.n	80069a6 <pvPortMalloc+0x6e>
 8006968:	2208      	movs	r2, #8
 800696a:	687b      	ldr	r3, [r7, #4]
 800696c:	4413      	add	r3, r2
 800696e:	607b      	str	r3, [r7, #4]
 8006970:	687b      	ldr	r3, [r7, #4]
 8006972:	f003 0307 	and.w	r3, r3, #7
 8006976:	2b00      	cmp	r3, #0
 8006978:	d015      	beq.n	80069a6 <pvPortMalloc+0x6e>
 800697a:	687b      	ldr	r3, [r7, #4]
 800697c:	f023 0307 	bic.w	r3, r3, #7
 8006980:	3308      	adds	r3, #8
 8006982:	607b      	str	r3, [r7, #4]
 8006984:	687b      	ldr	r3, [r7, #4]
 8006986:	f003 0307 	and.w	r3, r3, #7
 800698a:	2b00      	cmp	r3, #0
 800698c:	d00b      	beq.n	80069a6 <pvPortMalloc+0x6e>
 800698e:	f04f 0350 	mov.w	r3, #80	@ 0x50
 8006992:	f383 8811 	msr	BASEPRI, r3
 8006996:	f3bf 8f6f 	isb	sy
 800699a:	f3bf 8f4f 	dsb	sy
 800699e:	617b      	str	r3, [r7, #20]
 80069a0:	bf00      	nop
 80069a2:	bf00      	nop
 80069a4:	e7fd      	b.n	80069a2 <pvPortMalloc+0x6a>
 80069a6:	687b      	ldr	r3, [r7, #4]
 80069a8:	2b00      	cmp	r3, #0
 80069aa:	d06f      	beq.n	8006a8c <pvPortMalloc+0x154>
 80069ac:	4b45      	ldr	r3, [pc, #276]	@ (8006ac4 <pvPortMalloc+0x18c>)
 80069ae:	681b      	ldr	r3, [r3, #0]
 80069b0:	687a      	ldr	r2, [r7, #4]
 80069b2:	429a      	cmp	r2, r3
 80069b4:	d86a      	bhi.n	8006a8c <pvPortMalloc+0x154>
 80069b6:	4b44      	ldr	r3, [pc, #272]	@ (8006ac8 <pvPortMalloc+0x190>)
 80069b8:	623b      	str	r3, [r7, #32]
 80069ba:	4b43      	ldr	r3, [pc, #268]	@ (8006ac8 <pvPortMalloc+0x190>)
 80069bc:	681b      	ldr	r3, [r3, #0]
 80069be:	627b      	str	r3, [r7, #36]	@ 0x24
 80069c0:	e004      	b.n	80069cc <pvPortMalloc+0x94>
 80069c2:	6a7b      	ldr	r3, [r7, #36]	@ 0x24
 80069c4:	623b      	str	r3, [r7, #32]
 80069c6:	6a7b      	ldr	r3, [r7, #36]	@ 0x24
 80069c8:	681b      	ldr	r3, [r3, #0]
 80069ca:	627b      	str	r3, [r7, #36]	@ 0x24
 80069cc:	6a7b      	ldr	r3, [r7, #36]	@ 0x24
 80069ce:	685b      	ldr	r3, [r3, #4]
 80069d0:	687a      	ldr	r2, [r7, #4]
 80069d2:	429a      	cmp	r2, r3
 80069d4:	d903      	bls.n	80069de <pvPortMalloc+0xa6>
 80069d6:	6a7b      	ldr	r3, [r7, #36]	@ 0x24
 80069d8:	681b      	ldr	r3, [r3, #0]
 80069da:	2b00      	cmp	r3, #0
 80069dc:	d1f1      	bne.n	80069c2 <pvPortMalloc+0x8a>
 80069de:	4b37      	ldr	r3, [pc, #220]	@ (8006abc <pvPortMalloc+0x184>)
 80069e0:	681b      	ldr	r3, [r3, #0]
 80069e2:	6a7a      	ldr	r2, [r7, #36]	@ 0x24
 80069e4:	429a      	cmp	r2, r3
 80069e6:	d051      	beq.n	8006a8c <pvPortMalloc+0x154>
 80069e8:	6a3b      	ldr	r3, [r7, #32]
 80069ea:	681b      	ldr	r3, [r3, #0]
 80069ec:	2208      	movs	r2, #8
 80069ee:	4413      	add	r3, r2
 80069f0:	61fb      	str	r3, [r7, #28]
 80069f2:	6a7b      	ldr	r3, [r7, #36]	@ 0x24
 80069f4:	681a      	ldr	r2, [r3, #0]
 80069f6:	6a3b      	ldr	r3, [r7, #32]
 80069f8:	601a      	str	r2, [r3, #0]
 80069fa:	6a7b      	ldr	r3, [r7, #36]	@ 0x24
 80069fc:	685a      	ldr	r2, [r3, #4]
 80069fe:	687b      	ldr	r3, [r7, #4]
 8006a00:	1ad2      	subs	r2, r2, r3
 8006a02:	2308      	movs	r3, #8
 8006a04:	005b      	lsls	r3, r3, #1
 8006a06:	429a      	cmp	r2, r3
 8006a08:	d920      	bls.n	8006a4c <pvPortMalloc+0x114>
 8006a0a:	6a7a      	ldr	r2, [r7, #36]	@ 0x24
 8006a0c:	687b      	ldr	r3, [r7, #4]
 8006a0e:	4413      	add	r3, r2
 8006a10:	61bb      	str	r3, [r7, #24]
 8006a12:	69bb      	ldr	r3, [r7, #24]
 8006a14:	f003 0307 	and.w	r3, r3, #7
 8006a18:	2b00      	cmp	r3, #0
 8006a1a:	d00b      	beq.n	8006a34 <pvPortMalloc+0xfc>
 8006a1c:	f04f 0350 	mov.w	r3, #80	@ 0x50
 8006a20:	f383 8811 	msr	BASEPRI, r3
 8006a24:	f3bf 8f6f 	isb	sy
 8006a28:	f3bf 8f4f 	dsb	sy
 8006a2c:	613b      	str	r3, [r7, #16]
 8006a2e:	bf00      	nop
 8006a30:	bf00      	nop
 8006a32:	e7fd      	b.n	8006a30 <pvPortMalloc+0xf8>
 8006a34:	6a7b      	ldr	r3, [r7, #36]	@ 0x24
 8006a36:	685a      	ldr	r2, [r3, #4]
 8006a38:	687b      	ldr	r3, [r7, #4]
 8006a3a:	1ad2      	subs	r2, r2, r3
 8006a3c:	69bb      	ldr	r3, [r7, #24]
 8006a3e:	605a      	str	r2, [r3, #4]
 8006a40:	6a7b      	ldr	r3, [r7, #36]	@ 0x24
 8006a42:	687a      	ldr	r2, [r7, #4]
 8006a44:	605a      	str	r2, [r3, #4]
 8006a46:	69b8      	ldr	r0, [r7, #24]
 8006a48:	f000 f90a 	bl	8006c60 <prvInsertBlockIntoFreeList>
 8006a4c:	4b1d      	ldr	r3, [pc, #116]	@ (8006ac4 <pvPortMalloc+0x18c>)
 8006a4e:	681a      	ldr	r2, [r3, #0]
 8006a50:	6a7b      	ldr	r3, [r7, #36]	@ 0x24
 8006a52:	685b      	ldr	r3, [r3, #4]
 8006a54:	1ad3      	subs	r3, r2, r3
 8006a56:	4a1b      	ldr	r2, [pc, #108]	@ (8006ac4 <pvPortMalloc+0x18c>)
 8006a58:	6013      	str	r3, [r2, #0]
 8006a5a:	4b1a      	ldr	r3, [pc, #104]	@ (8006ac4 <pvPortMalloc+0x18c>)
 8006a5c:	681a      	ldr	r2, [r3, #0]
 8006a5e:	4b1b      	ldr	r3, [pc, #108]	@ (8006acc <pvPortMalloc+0x194>)
 8006a60:	681b      	ldr	r3, [r3, #0]
 8006a62:	429a      	cmp	r2, r3
 8006a64:	d203      	bcs.n	8006a6e <pvPortMalloc+0x136>
 8006a66:	4b17      	ldr	r3, [pc, #92]	@ (8006ac4 <pvPortMalloc+0x18c>)
 8006a68:	681b      	ldr	r3, [r3, #0]
 8006a6a:	4a18      	ldr	r2, [pc, #96]	@ (8006acc <pvPortMalloc+0x194>)
 8006a6c:	6013      	str	r3, [r2, #0]
 8006a6e:	6a7b      	ldr	r3, [r7, #36]	@ 0x24
 8006a70:	685a      	ldr	r2, [r3, #4]
 8006a72:	4b13      	ldr	r3, [pc, #76]	@ (8006ac0 <pvPortMalloc+0x188>)
 8006a74:	681b      	ldr	r3, [r3, #0]
 8006a76:	431a      	orrs	r2, r3
 8006a78:	6a7b      	ldr	r3, [r7, #36]	@ 0x24
 8006a7a:	605a      	str	r2, [r3, #4]
 8006a7c:	6a7b      	ldr	r3, [r7, #36]	@ 0x24
 8006a7e:	2200      	movs	r2, #0
 8006a80:	601a      	str	r2, [r3, #0]
 8006a82:	4b13      	ldr	r3, [pc, #76]	@ (8006ad0 <pvPortMalloc+0x198>)
 8006a84:	681b      	ldr	r3, [r3, #0]
 8006a86:	3301      	adds	r3, #1
 8006a88:	4a11      	ldr	r2, [pc, #68]	@ (8006ad0 <pvPortMalloc+0x198>)
 8006a8a:	6013      	str	r3, [r2, #0]
 8006a8c:	f7ff fa46 	bl	8005f1c <xTaskResumeAll>
 8006a90:	69fb      	ldr	r3, [r7, #28]
 8006a92:	f003 0307 	and.w	r3, r3, #7
 8006a96:	2b00      	cmp	r3, #0
 8006a98:	d00b      	beq.n	8006ab2 <pvPortMalloc+0x17a>
 8006a9a:	f04f 0350 	mov.w	r3, #80	@ 0x50
 8006a9e:	f383 8811 	msr	BASEPRI, r3
 8006aa2:	f3bf 8f6f 	isb	sy
 8006aa6:	f3bf 8f4f 	dsb	sy
 8006aaa:	60fb      	str	r3, [r7, #12]
 8006aac:	bf00      	nop
 8006aae:	bf00      	nop
 8006ab0:	e7fd      	b.n	8006aae <pvPortMalloc+0x176>
 8006ab2:	69fb      	ldr	r3, [r7, #28]
 8006ab4:	4618      	mov	r0, r3
 8006ab6:	3728      	adds	r7, #40	@ 0x28
 8006ab8:	46bd      	mov	sp, r7
 8006aba:	bd80      	pop	{r7, pc}
 8006abc:	200014d4 	.word	0x200014d4
 8006ac0:	200014e8 	.word	0x200014e8
 8006ac4:	200014d8 	.word	0x200014d8
 8006ac8:	200014cc 	.word	0x200014cc
 8006acc:	200014dc 	.word	0x200014dc
 8006ad0:	200014e0 	.word	0x200014e0

08006ad4 <vPortFree>:
 8006ad4:	b580      	push	{r7, lr}
 8006ad6:	b086      	sub	sp, #24
 8006ad8:	af00      	add	r7, sp, #0
 8006ada:	6078      	str	r0, [r7, #4]
 8006adc:	687b      	ldr	r3, [r7, #4]
 8006ade:	617b      	str	r3, [r7, #20]
 8006ae0:	687b      	ldr	r3, [r7, #4]
 8006ae2:	2b00      	cmp	r3, #0
 8006ae4:	d04f      	beq.n	8006b86 <vPortFree+0xb2>
 8006ae6:	2308      	movs	r3, #8
 8006ae8:	425b      	negs	r3, r3
 8006aea:	697a      	ldr	r2, [r7, #20]
 8006aec:	4413      	add	r3, r2
 8006aee:	617b      	str	r3, [r7, #20]
 8006af0:	697b      	ldr	r3, [r7, #20]
 8006af2:	613b      	str	r3, [r7, #16]
 8006af4:	693b      	ldr	r3, [r7, #16]
 8006af6:	685a      	ldr	r2, [r3, #4]
 8006af8:	4b25      	ldr	r3, [pc, #148]	@ (8006b90 <vPortFree+0xbc>)
 8006afa:	681b      	ldr	r3, [r3, #0]
 8006afc:	4013      	ands	r3, r2
 8006afe:	2b00      	cmp	r3, #0
 8006b00:	d10b      	bne.n	8006b1a <vPortFree+0x46>
 8006b02:	f04f 0350 	mov.w	r3, #80	@ 0x50
 8006b06:	f383 8811 	msr	BASEPRI, r3
 8006b0a:	f3bf 8f6f 	isb	sy
 8006b0e:	f3bf 8f4f 	dsb	sy
 8006b12:	60fb      	str	r3, [r7, #12]
 8006b14:	bf00      	nop
 8006b16:	bf00      	nop
 8006b18:	e7fd      	b.n	8006b16 <vPortFree+0x42>
 8006b1a:	693b      	ldr	r3, [r7, #16]
 8006b1c:	681b      	ldr	r3, [r3, #0]
 8006b1e:	2b00      	cmp	r3, #0
 8006b20:	d00b      	beq.n	8006b3a <vPortFree+0x66>
 8006b22:	f04f 0350 	mov.w	r3, #80	@ 0x50
 8006b26:	f383 8811 	msr	BASEPRI, r3
 8006b2a:	f3bf 8f6f 	isb	sy
 8006b2e:	f3bf 8f4f 	dsb	sy
 8006b32:	60bb      	str	r3, [r7, #8]
 8006b34:	bf00      	nop
 8006b36:	bf00      	nop
 8006b38:	e7fd      	b.n	8006b36 <vPortFree+0x62>
 8006b3a:	693b      	ldr	r3, [r7, #16]
 8006b3c:	685a      	ldr	r2, [r3, #4]
 8006b3e:	4b14      	ldr	r3, [pc, #80]	@ (8006b90 <vPortFree+0xbc>)
 8006b40:	681b      	ldr	r3, [r3, #0]
 8006b42:	4013      	ands	r3, r2
 8006b44:	2b00      	cmp	r3, #0
 8006b46:	d01e      	beq.n	8006b86 <vPortFree+0xb2>
 8006b48:	693b      	ldr	r3, [r7, #16]
 8006b4a:	681b      	ldr	r3, [r3, #0]
 8006b4c:	2b00      	cmp	r3, #0
 8006b4e:	d11a      	bne.n	8006b86 <vPortFree+0xb2>
 8006b50:	693b      	ldr	r3, [r7, #16]
 8006b52:	685a      	ldr	r2, [r3, #4]
 8006b54:	4b0e      	ldr	r3, [pc, #56]	@ (8006b90 <vPortFree+0xbc>)
 8006b56:	681b      	ldr	r3, [r3, #0]
 8006b58:	43db      	mvns	r3, r3
 8006b5a:	401a      	ands	r2, r3
 8006b5c:	693b      	ldr	r3, [r7, #16]
 8006b5e:	605a      	str	r2, [r3, #4]
 8006b60:	f7ff f9ce 	bl	8005f00 <vTaskSuspendAll>
 8006b64:	693b      	ldr	r3, [r7, #16]
 8006b66:	685a      	ldr	r2, [r3, #4]
 8006b68:	4b0a      	ldr	r3, [pc, #40]	@ (8006b94 <vPortFree+0xc0>)
 8006b6a:	681b      	ldr	r3, [r3, #0]
 8006b6c:	4413      	add	r3, r2
 8006b6e:	4a09      	ldr	r2, [pc, #36]	@ (8006b94 <vPortFree+0xc0>)
 8006b70:	6013      	str	r3, [r2, #0]
 8006b72:	6938      	ldr	r0, [r7, #16]
 8006b74:	f000 f874 	bl	8006c60 <prvInsertBlockIntoFreeList>
 8006b78:	4b07      	ldr	r3, [pc, #28]	@ (8006b98 <vPortFree+0xc4>)
 8006b7a:	681b      	ldr	r3, [r3, #0]
 8006b7c:	3301      	adds	r3, #1
 8006b7e:	4a06      	ldr	r2, [pc, #24]	@ (8006b98 <vPortFree+0xc4>)
 8006b80:	6013      	str	r3, [r2, #0]
 8006b82:	f7ff f9cb 	bl	8005f1c <xTaskResumeAll>
 8006b86:	bf00      	nop
 8006b88:	3718      	adds	r7, #24
 8006b8a:	46bd      	mov	sp, r7
 8006b8c:	bd80      	pop	{r7, pc}
 8006b8e:	bf00      	nop
 8006b90:	200014e8 	.word	0x200014e8
 8006b94:	200014d8 	.word	0x200014d8
 8006b98:	200014e4 	.word	0x200014e4

08006b9c <prvHeapInit>:
 8006b9c:	b480      	push	{r7}
 8006b9e:	b085      	sub	sp, #20
 8006ba0:	af00      	add	r7, sp, #0
 8006ba2:	f640 33b8 	movw	r3, #3000	@ 0xbb8
 8006ba6:	60bb      	str	r3, [r7, #8]
 8006ba8:	4b27      	ldr	r3, [pc, #156]	@ (8006c48 <prvHeapInit+0xac>)
 8006baa:	60fb      	str	r3, [r7, #12]
 8006bac:	68fb      	ldr	r3, [r7, #12]
 8006bae:	f003 0307 	and.w	r3, r3, #7
 8006bb2:	2b00      	cmp	r3, #0
 8006bb4:	d00c      	beq.n	8006bd0 <prvHeapInit+0x34>
 8006bb6:	68fb      	ldr	r3, [r7, #12]
 8006bb8:	3307      	adds	r3, #7
 8006bba:	60fb      	str	r3, [r7, #12]
 8006bbc:	68fb      	ldr	r3, [r7, #12]
 8006bbe:	f023 0307 	bic.w	r3, r3, #7
 8006bc2:	60fb      	str	r3, [r7, #12]
 8006bc4:	68ba      	ldr	r2, [r7, #8]
 8006bc6:	68fb      	ldr	r3, [r7, #12]
 8006bc8:	1ad3      	subs	r3, r2, r3
 8006bca:	4a1f      	ldr	r2, [pc, #124]	@ (8006c48 <prvHeapInit+0xac>)
 8006bcc:	4413      	add	r3, r2
 8006bce:	60bb      	str	r3, [r7, #8]
 8006bd0:	68fb      	ldr	r3, [r7, #12]
 8006bd2:	607b      	str	r3, [r7, #4]
 8006bd4:	4a1d      	ldr	r2, [pc, #116]	@ (8006c4c <prvHeapInit+0xb0>)
 8006bd6:	687b      	ldr	r3, [r7, #4]
 8006bd8:	6013      	str	r3, [r2, #0]
 8006bda:	4b1c      	ldr	r3, [pc, #112]	@ (8006c4c <prvHeapInit+0xb0>)
 8006bdc:	2200      	movs	r2, #0
 8006bde:	605a      	str	r2, [r3, #4]
 8006be0:	687b      	ldr	r3, [r7, #4]
 8006be2:	68ba      	ldr	r2, [r7, #8]
 8006be4:	4413      	add	r3, r2
 8006be6:	60fb      	str	r3, [r7, #12]
 8006be8:	2208      	movs	r2, #8
 8006bea:	68fb      	ldr	r3, [r7, #12]
 8006bec:	1a9b      	subs	r3, r3, r2
 8006bee:	60fb      	str	r3, [r7, #12]
 8006bf0:	68fb      	ldr	r3, [r7, #12]
 8006bf2:	f023 0307 	bic.w	r3, r3, #7
 8006bf6:	60fb      	str	r3, [r7, #12]
 8006bf8:	68fb      	ldr	r3, [r7, #12]
 8006bfa:	4a15      	ldr	r2, [pc, #84]	@ (8006c50 <prvHeapInit+0xb4>)
 8006bfc:	6013      	str	r3, [r2, #0]
 8006bfe:	4b14      	ldr	r3, [pc, #80]	@ (8006c50 <prvHeapInit+0xb4>)
 8006c00:	681b      	ldr	r3, [r3, #0]
 8006c02:	2200      	movs	r2, #0
 8006c04:	605a      	str	r2, [r3, #4]
 8006c06:	4b12      	ldr	r3, [pc, #72]	@ (8006c50 <prvHeapInit+0xb4>)
 8006c08:	681b      	ldr	r3, [r3, #0]
 8006c0a:	2200      	movs	r2, #0
 8006c0c:	601a      	str	r2, [r3, #0]
 8006c0e:	687b      	ldr	r3, [r7, #4]
 8006c10:	603b      	str	r3, [r7, #0]
 8006c12:	683b      	ldr	r3, [r7, #0]
 8006c14:	68fa      	ldr	r2, [r7, #12]
 8006c16:	1ad2      	subs	r2, r2, r3
 8006c18:	683b      	ldr	r3, [r7, #0]
 8006c1a:	605a      	str	r2, [r3, #4]
 8006c1c:	4b0c      	ldr	r3, [pc, #48]	@ (8006c50 <prvHeapInit+0xb4>)
 8006c1e:	681a      	ldr	r2, [r3, #0]
 8006c20:	683b      	ldr	r3, [r7, #0]
 8006c22:	601a      	str	r2, [r3, #0]
 8006c24:	683b      	ldr	r3, [r7, #0]
 8006c26:	685b      	ldr	r3, [r3, #4]
 8006c28:	4a0a      	ldr	r2, [pc, #40]	@ (8006c54 <prvHeapInit+0xb8>)
 8006c2a:	6013      	str	r3, [r2, #0]
 8006c2c:	683b      	ldr	r3, [r7, #0]
 8006c2e:	685b      	ldr	r3, [r3, #4]
 8006c30:	4a09      	ldr	r2, [pc, #36]	@ (8006c58 <prvHeapInit+0xbc>)
 8006c32:	6013      	str	r3, [r2, #0]
 8006c34:	4b09      	ldr	r3, [pc, #36]	@ (8006c5c <prvHeapInit+0xc0>)
 8006c36:	f04f 4200 	mov.w	r2, #2147483648	@ 0x80000000
 8006c3a:	601a      	str	r2, [r3, #0]
 8006c3c:	bf00      	nop
 8006c3e:	3714      	adds	r7, #20
 8006c40:	46bd      	mov	sp, r7
 8006c42:	f85d 7b04 	ldr.w	r7, [sp], #4
 8006c46:	4770      	bx	lr
 8006c48:	20000914 	.word	0x20000914
 8006c4c:	200014cc 	.word	0x200014cc
 8006c50:	200014d4 	.word	0x200014d4
 8006c54:	200014dc 	.word	0x200014dc
 8006c58:	200014d8 	.word	0x200014d8
 8006c5c:	200014e8 	.word	0x200014e8

08006c60 <prvInsertBlockIntoFreeList>:
 8006c60:	b480      	push	{r7}
 8006c62:	b085      	sub	sp, #20
 8006c64:	af00      	add	r7, sp, #0
 8006c66:	6078      	str	r0, [r7, #4]
 8006c68:	4b28      	ldr	r3, [pc, #160]	@ (8006d0c <prvInsertBlockIntoFreeList+0xac>)
 8006c6a:	60fb      	str	r3, [r7, #12]
 8006c6c:	e002      	b.n	8006c74 <prvInsertBlockIntoFreeList+0x14>
 8006c6e:	68fb      	ldr	r3, [r7, #12]
 8006c70:	681b      	ldr	r3, [r3, #0]
 8006c72:	60fb      	str	r3, [r7, #12]
 8006c74:	68fb      	ldr	r3, [r7, #12]
 8006c76:	681b      	ldr	r3, [r3, #0]
 8006c78:	687a      	ldr	r2, [r7, #4]
 8006c7a:	429a      	cmp	r2, r3
 8006c7c:	d8f7      	bhi.n	8006c6e <prvInsertBlockIntoFreeList+0xe>
 8006c7e:	68fb      	ldr	r3, [r7, #12]
 8006c80:	60bb      	str	r3, [r7, #8]
 8006c82:	68fb      	ldr	r3, [r7, #12]
 8006c84:	685b      	ldr	r3, [r3, #4]
 8006c86:	68ba      	ldr	r2, [r7, #8]
 8006c88:	4413      	add	r3, r2
 8006c8a:	687a      	ldr	r2, [r7, #4]
 8006c8c:	429a      	cmp	r2, r3
 8006c8e:	d108      	bne.n	8006ca2 <prvInsertBlockIntoFreeList+0x42>
 8006c90:	68fb      	ldr	r3, [r7, #12]
 8006c92:	685a      	ldr	r2, [r3, #4]
 8006c94:	687b      	ldr	r3, [r7, #4]
 8006c96:	685b      	ldr	r3, [r3, #4]
 8006c98:	441a      	add	r2, r3
 8006c9a:	68fb      	ldr	r3, [r7, #12]
 8006c9c:	605a      	str	r2, [r3, #4]
 8006c9e:	68fb      	ldr	r3, [r7, #12]
 8006ca0:	607b      	str	r3, [r7, #4]
 8006ca2:	687b      	ldr	r3, [r7, #4]
 8006ca4:	60bb      	str	r3, [r7, #8]
 8006ca6:	687b      	ldr	r3, [r7, #4]
 8006ca8:	685b      	ldr	r3, [r3, #4]
 8006caa:	68ba      	ldr	r2, [r7, #8]
 8006cac:	441a      	add	r2, r3
 8006cae:	68fb      	ldr	r3, [r7, #12]
 8006cb0:	681b      	ldr	r3, [r3, #0]
 8006cb2:	429a      	cmp	r2, r3
 8006cb4:	d118      	bne.n	8006ce8 <prvInsertBlockIntoFreeList+0x88>
 8006cb6:	68fb      	ldr	r3, [r7, #12]
 8006cb8:	681a      	ldr	r2, [r3, #0]
 8006cba:	4b15      	ldr	r3, [pc, #84]	@ (8006d10 <prvInsertBlockIntoFreeList+0xb0>)
 8006cbc:	681b      	ldr	r3, [r3, #0]
 8006cbe:	429a      	cmp	r2, r3
 8006cc0:	d00d      	beq.n	8006cde <prvInsertBlockIntoFreeList+0x7e>
 8006cc2:	687b      	ldr	r3, [r7, #4]
 8006cc4:	685a      	ldr	r2, [r3, #4]
 8006cc6:	68fb      	ldr	r3, [r7, #12]
 8006cc8:	681b      	ldr	r3, [r3, #0]
 8006cca:	685b      	ldr	r3, [r3, #4]
 8006ccc:	441a      	add	r2, r3
 8006cce:	687b      	ldr	r3, [r7, #4]
 8006cd0:	605a      	str	r2, [r3, #4]
 8006cd2:	68fb      	ldr	r3, [r7, #12]
 8006cd4:	681b      	ldr	r3, [r3, #0]
 8006cd6:	681a      	ldr	r2, [r3, #0]
 8006cd8:	687b      	ldr	r3, [r7, #4]
 8006cda:	601a      	str	r2, [r3, #0]
 8006cdc:	e008      	b.n	8006cf0 <prvInsertBlockIntoFreeList+0x90>
 8006cde:	4b0c      	ldr	r3, [pc, #48]	@ (8006d10 <prvInsertBlockIntoFreeList+0xb0>)
 8006ce0:	681a      	ldr	r2, [r3, #0]
 8006ce2:	687b      	ldr	r3, [r7, #4]
 8006ce4:	601a      	str	r2, [r3, #0]
 8006ce6:	e003      	b.n	8006cf0 <prvInsertBlockIntoFreeList+0x90>
 8006ce8:	68fb      	ldr	r3, [r7, #12]
 8006cea:	681a      	ldr	r2, [r3, #0]
 8006cec:	687b      	ldr	r3, [r7, #4]
 8006cee:	601a      	str	r2, [r3, #0]
 8006cf0:	68fa      	ldr	r2, [r7, #12]
 8006cf2:	687b      	ldr	r3, [r7, #4]
 8006cf4:	429a      	cmp	r2, r3
 8006cf6:	d002      	beq.n	8006cfe <prvInsertBlockIntoFreeList+0x9e>
 8006cf8:	68fb      	ldr	r3, [r7, #12]
 8006cfa:	687a      	ldr	r2, [r7, #4]
 8006cfc:	601a      	str	r2, [r3, #0]
 8006cfe:	bf00      	nop
 8006d00:	3714      	adds	r7, #20
 8006d02:	46bd      	mov	sp, r7
 8006d04:	f85d 7b04 	ldr.w	r7, [sp], #4
 8006d08:	4770      	bx	lr
 8006d0a:	bf00      	nop
 8006d0c:	200014cc 	.word	0x200014cc
 8006d10:	200014d4 	.word	0x200014d4

08006d14 <atoi>:
 8006d14:	220a      	movs	r2, #10
 8006d16:	2100      	movs	r1, #0
 8006d18:	f000 b87a 	b.w	8006e10 <strtol>

08006d1c <_strtol_l.constprop.0>:
 8006d1c:	2b24      	cmp	r3, #36	@ 0x24
 8006d1e:	e92d 47f0 	stmdb	sp!, {r4, r5, r6, r7, r8, r9, sl, lr}
 8006d22:	4686      	mov	lr, r0
 8006d24:	4690      	mov	r8, r2
 8006d26:	d801      	bhi.n	8006d2c <_strtol_l.constprop.0+0x10>
 8006d28:	2b01      	cmp	r3, #1
 8006d2a:	d106      	bne.n	8006d3a <_strtol_l.constprop.0+0x1e>
 8006d2c:	f000 fb4a 	bl	80073c4 <__errno>
 8006d30:	2316      	movs	r3, #22
 8006d32:	6003      	str	r3, [r0, #0]
 8006d34:	2000      	movs	r0, #0
 8006d36:	e8bd 87f0 	ldmia.w	sp!, {r4, r5, r6, r7, r8, r9, sl, pc}
 8006d3a:	4834      	ldr	r0, [pc, #208]	@ (8006e0c <_strtol_l.constprop.0+0xf0>)
 8006d3c:	460d      	mov	r5, r1
 8006d3e:	462a      	mov	r2, r5
 8006d40:	f815 4b01 	ldrb.w	r4, [r5], #1
 8006d44:	5d06      	ldrb	r6, [r0, r4]
 8006d46:	f016 0608 	ands.w	r6, r6, #8
 8006d4a:	d1f8      	bne.n	8006d3e <_strtol_l.constprop.0+0x22>
 8006d4c:	2c2d      	cmp	r4, #45	@ 0x2d
 8006d4e:	d12d      	bne.n	8006dac <_strtol_l.constprop.0+0x90>
 8006d50:	782c      	ldrb	r4, [r5, #0]
 8006d52:	2601      	movs	r6, #1
 8006d54:	1c95      	adds	r5, r2, #2
 8006d56:	f033 0210 	bics.w	r2, r3, #16
 8006d5a:	d109      	bne.n	8006d70 <_strtol_l.constprop.0+0x54>
 8006d5c:	2c30      	cmp	r4, #48	@ 0x30
 8006d5e:	d12a      	bne.n	8006db6 <_strtol_l.constprop.0+0x9a>
 8006d60:	782a      	ldrb	r2, [r5, #0]
 8006d62:	f002 02df 	and.w	r2, r2, #223	@ 0xdf
 8006d66:	2a58      	cmp	r2, #88	@ 0x58
 8006d68:	d125      	bne.n	8006db6 <_strtol_l.constprop.0+0x9a>
 8006d6a:	786c      	ldrb	r4, [r5, #1]
 8006d6c:	2310      	movs	r3, #16
 8006d6e:	3502      	adds	r5, #2
 8006d70:	f106 4c00 	add.w	ip, r6, #2147483648	@ 0x80000000
 8006d74:	f10c 3cff 	add.w	ip, ip, #4294967295
 8006d78:	2200      	movs	r2, #0
 8006d7a:	fbbc f9f3 	udiv	r9, ip, r3
 8006d7e:	4610      	mov	r0, r2
 8006d80:	fb03 ca19 	mls	sl, r3, r9, ip
 8006d84:	f1a4 0730 	sub.w	r7, r4, #48	@ 0x30
 8006d88:	2f09      	cmp	r7, #9
 8006d8a:	d81b      	bhi.n	8006dc4 <_strtol_l.constprop.0+0xa8>
 8006d8c:	463c      	mov	r4, r7
 8006d8e:	42a3      	cmp	r3, r4
 8006d90:	dd27      	ble.n	8006de2 <_strtol_l.constprop.0+0xc6>
 8006d92:	1c57      	adds	r7, r2, #1
 8006d94:	d007      	beq.n	8006da6 <_strtol_l.constprop.0+0x8a>
 8006d96:	4581      	cmp	r9, r0
 8006d98:	d320      	bcc.n	8006ddc <_strtol_l.constprop.0+0xc0>
 8006d9a:	d101      	bne.n	8006da0 <_strtol_l.constprop.0+0x84>
 8006d9c:	45a2      	cmp	sl, r4
 8006d9e:	db1d      	blt.n	8006ddc <_strtol_l.constprop.0+0xc0>
 8006da0:	fb00 4003 	mla	r0, r0, r3, r4
 8006da4:	2201      	movs	r2, #1
 8006da6:	f815 4b01 	ldrb.w	r4, [r5], #1
 8006daa:	e7eb      	b.n	8006d84 <_strtol_l.constprop.0+0x68>
 8006dac:	2c2b      	cmp	r4, #43	@ 0x2b
 8006dae:	bf04      	itt	eq
 8006db0:	782c      	ldrbeq	r4, [r5, #0]
 8006db2:	1c95      	addeq	r5, r2, #2
 8006db4:	e7cf      	b.n	8006d56 <_strtol_l.constprop.0+0x3a>
 8006db6:	2b00      	cmp	r3, #0
 8006db8:	d1da      	bne.n	8006d70 <_strtol_l.constprop.0+0x54>
 8006dba:	2c30      	cmp	r4, #48	@ 0x30
 8006dbc:	bf0c      	ite	eq
 8006dbe:	2308      	moveq	r3, #8
 8006dc0:	230a      	movne	r3, #10
 8006dc2:	e7d5      	b.n	8006d70 <_strtol_l.constprop.0+0x54>
 8006dc4:	f1a4 0741 	sub.w	r7, r4, #65	@ 0x41
 8006dc8:	2f19      	cmp	r7, #25
 8006dca:	d801      	bhi.n	8006dd0 <_strtol_l.constprop.0+0xb4>
 8006dcc:	3c37      	subs	r4, #55	@ 0x37
 8006dce:	e7de      	b.n	8006d8e <_strtol_l.constprop.0+0x72>
 8006dd0:	f1a4 0761 	sub.w	r7, r4, #97	@ 0x61
 8006dd4:	2f19      	cmp	r7, #25
 8006dd6:	d804      	bhi.n	8006de2 <_strtol_l.constprop.0+0xc6>
 8006dd8:	3c57      	subs	r4, #87	@ 0x57
 8006dda:	e7d8      	b.n	8006d8e <_strtol_l.constprop.0+0x72>
 8006ddc:	f04f 32ff 	mov.w	r2, #4294967295
 8006de0:	e7e1      	b.n	8006da6 <_strtol_l.constprop.0+0x8a>
 8006de2:	1c53      	adds	r3, r2, #1
 8006de4:	d108      	bne.n	8006df8 <_strtol_l.constprop.0+0xdc>
 8006de6:	2322      	movs	r3, #34	@ 0x22
 8006de8:	f8ce 3000 	str.w	r3, [lr]
 8006dec:	4660      	mov	r0, ip
 8006dee:	f1b8 0f00 	cmp.w	r8, #0
 8006df2:	d0a0      	beq.n	8006d36 <_strtol_l.constprop.0+0x1a>
 8006df4:	1e69      	subs	r1, r5, #1
 8006df6:	e006      	b.n	8006e06 <_strtol_l.constprop.0+0xea>
 8006df8:	b106      	cbz	r6, 8006dfc <_strtol_l.constprop.0+0xe0>
 8006dfa:	4240      	negs	r0, r0
 8006dfc:	f1b8 0f00 	cmp.w	r8, #0
 8006e00:	d099      	beq.n	8006d36 <_strtol_l.constprop.0+0x1a>
 8006e02:	2a00      	cmp	r2, #0
 8006e04:	d1f6      	bne.n	8006df4 <_strtol_l.constprop.0+0xd8>
 8006e06:	f8c8 1000 	str.w	r1, [r8]
 8006e0a:	e794      	b.n	8006d36 <_strtol_l.constprop.0+0x1a>
 8006e0c:	080080dd 	.word	0x080080dd

08006e10 <strtol>:
 8006e10:	4613      	mov	r3, r2
 8006e12:	460a      	mov	r2, r1
 8006e14:	4601      	mov	r1, r0
 8006e16:	4802      	ldr	r0, [pc, #8]	@ (8006e20 <strtol+0x10>)
 8006e18:	6800      	ldr	r0, [r0, #0]
 8006e1a:	f7ff bf7f 	b.w	8006d1c <_strtol_l.constprop.0>
 8006e1e:	bf00      	nop
 8006e20:	2000001c 	.word	0x2000001c

08006e24 <std>:
 8006e24:	2300      	movs	r3, #0
 8006e26:	b510      	push	{r4, lr}
 8006e28:	4604      	mov	r4, r0
 8006e2a:	e9c0 3300 	strd	r3, r3, [r0]
 8006e2e:	e9c0 3304 	strd	r3, r3, [r0, #16]
 8006e32:	6083      	str	r3, [r0, #8]
 8006e34:	8181      	strh	r1, [r0, #12]
 8006e36:	6643      	str	r3, [r0, #100]	@ 0x64
 8006e38:	81c2      	strh	r2, [r0, #14]
 8006e3a:	6183      	str	r3, [r0, #24]
 8006e3c:	4619      	mov	r1, r3
 8006e3e:	2208      	movs	r2, #8
 8006e40:	305c      	adds	r0, #92	@ 0x5c
 8006e42:	f000 fa1b 	bl	800727c <memset>
 8006e46:	4b0d      	ldr	r3, [pc, #52]	@ (8006e7c <std+0x58>)
 8006e48:	6263      	str	r3, [r4, #36]	@ 0x24
 8006e4a:	4b0d      	ldr	r3, [pc, #52]	@ (8006e80 <std+0x5c>)
 8006e4c:	62a3      	str	r3, [r4, #40]	@ 0x28
 8006e4e:	4b0d      	ldr	r3, [pc, #52]	@ (8006e84 <std+0x60>)
 8006e50:	62e3      	str	r3, [r4, #44]	@ 0x2c
 8006e52:	4b0d      	ldr	r3, [pc, #52]	@ (8006e88 <std+0x64>)
 8006e54:	6323      	str	r3, [r4, #48]	@ 0x30
 8006e56:	4b0d      	ldr	r3, [pc, #52]	@ (8006e8c <std+0x68>)
 8006e58:	6224      	str	r4, [r4, #32]
 8006e5a:	429c      	cmp	r4, r3
 8006e5c:	d006      	beq.n	8006e6c <std+0x48>
 8006e5e:	f103 0268 	add.w	r2, r3, #104	@ 0x68
 8006e62:	4294      	cmp	r4, r2
 8006e64:	d002      	beq.n	8006e6c <std+0x48>
 8006e66:	33d0      	adds	r3, #208	@ 0xd0
 8006e68:	429c      	cmp	r4, r3
 8006e6a:	d105      	bne.n	8006e78 <std+0x54>
 8006e6c:	f104 0058 	add.w	r0, r4, #88	@ 0x58
 8006e70:	e8bd 4010 	ldmia.w	sp!, {r4, lr}
 8006e74:	f000 bad0 	b.w	8007418 <__retarget_lock_init_recursive>
 8006e78:	bd10      	pop	{r4, pc}
 8006e7a:	bf00      	nop
 8006e7c:	080070cd 	.word	0x080070cd
 8006e80:	080070ef 	.word	0x080070ef
 8006e84:	08007127 	.word	0x08007127
 8006e88:	0800714b 	.word	0x0800714b
 8006e8c:	200014ec 	.word	0x200014ec

08006e90 <stdio_exit_handler>:
 8006e90:	4a02      	ldr	r2, [pc, #8]	@ (8006e9c <stdio_exit_handler+0xc>)
 8006e92:	4903      	ldr	r1, [pc, #12]	@ (8006ea0 <stdio_exit_handler+0x10>)
 8006e94:	4803      	ldr	r0, [pc, #12]	@ (8006ea4 <stdio_exit_handler+0x14>)
 8006e96:	f000 b869 	b.w	8006f6c <_fwalk_sglue>
 8006e9a:	bf00      	nop
 8006e9c:	20000010 	.word	0x20000010
 8006ea0:	08007d01 	.word	0x08007d01
 8006ea4:	20000020 	.word	0x20000020

08006ea8 <cleanup_stdio>:
 8006ea8:	6841      	ldr	r1, [r0, #4]
 8006eaa:	4b0c      	ldr	r3, [pc, #48]	@ (8006edc <cleanup_stdio+0x34>)
 8006eac:	4299      	cmp	r1, r3
 8006eae:	b510      	push	{r4, lr}
 8006eb0:	4604      	mov	r4, r0
 8006eb2:	d001      	beq.n	8006eb8 <cleanup_stdio+0x10>
 8006eb4:	f000 ff24 	bl	8007d00 <_fflush_r>
 8006eb8:	68a1      	ldr	r1, [r4, #8]
 8006eba:	4b09      	ldr	r3, [pc, #36]	@ (8006ee0 <cleanup_stdio+0x38>)
 8006ebc:	4299      	cmp	r1, r3
 8006ebe:	d002      	beq.n	8006ec6 <cleanup_stdio+0x1e>
 8006ec0:	4620      	mov	r0, r4
 8006ec2:	f000 ff1d 	bl	8007d00 <_fflush_r>
 8006ec6:	68e1      	ldr	r1, [r4, #12]
 8006ec8:	4b06      	ldr	r3, [pc, #24]	@ (8006ee4 <cleanup_stdio+0x3c>)
 8006eca:	4299      	cmp	r1, r3
 8006ecc:	d004      	beq.n	8006ed8 <cleanup_stdio+0x30>
 8006ece:	4620      	mov	r0, r4
 8006ed0:	e8bd 4010 	ldmia.w	sp!, {r4, lr}
 8006ed4:	f000 bf14 	b.w	8007d00 <_fflush_r>
 8006ed8:	bd10      	pop	{r4, pc}
 8006eda:	bf00      	nop
 8006edc:	200014ec 	.word	0x200014ec
 8006ee0:	20001554 	.word	0x20001554
 8006ee4:	200015bc 	.word	0x200015bc

08006ee8 <global_stdio_init.part.0>:
 8006ee8:	b510      	push	{r4, lr}
 8006eea:	4b0b      	ldr	r3, [pc, #44]	@ (8006f18 <global_stdio_init.part.0+0x30>)
 8006eec:	4c0b      	ldr	r4, [pc, #44]	@ (8006f1c <global_stdio_init.part.0+0x34>)
 8006eee:	4a0c      	ldr	r2, [pc, #48]	@ (8006f20 <global_stdio_init.part.0+0x38>)
 8006ef0:	601a      	str	r2, [r3, #0]
 8006ef2:	4620      	mov	r0, r4
 8006ef4:	2200      	movs	r2, #0
 8006ef6:	2104      	movs	r1, #4
 8006ef8:	f7ff ff94 	bl	8006e24 <std>
 8006efc:	f104 0068 	add.w	r0, r4, #104	@ 0x68
 8006f00:	2201      	movs	r2, #1
 8006f02:	2109      	movs	r1, #9
 8006f04:	f7ff ff8e 	bl	8006e24 <std>
 8006f08:	f104 00d0 	add.w	r0, r4, #208	@ 0xd0
 8006f0c:	2202      	movs	r2, #2
 8006f0e:	e8bd 4010 	ldmia.w	sp!, {r4, lr}
 8006f12:	2112      	movs	r1, #18
 8006f14:	f7ff bf86 	b.w	8006e24 <std>
 8006f18:	20001624 	.word	0x20001624
 8006f1c:	200014ec 	.word	0x200014ec
 8006f20:	08006e91 	.word	0x08006e91

08006f24 <__sfp_lock_acquire>:
 8006f24:	4801      	ldr	r0, [pc, #4]	@ (8006f2c <__sfp_lock_acquire+0x8>)
 8006f26:	f000 ba78 	b.w	800741a <__retarget_lock_acquire_recursive>
 8006f2a:	bf00      	nop
 8006f2c:	2000162d 	.word	0x2000162d

08006f30 <__sfp_lock_release>:
 8006f30:	4801      	ldr	r0, [pc, #4]	@ (8006f38 <__sfp_lock_release+0x8>)
 8006f32:	f000 ba73 	b.w	800741c <__retarget_lock_release_recursive>
 8006f36:	bf00      	nop
 8006f38:	2000162d 	.word	0x2000162d

08006f3c <__sinit>:
 8006f3c:	b510      	push	{r4, lr}
 8006f3e:	4604      	mov	r4, r0
 8006f40:	f7ff fff0 	bl	8006f24 <__sfp_lock_acquire>
 8006f44:	6a23      	ldr	r3, [r4, #32]
 8006f46:	b11b      	cbz	r3, 8006f50 <__sinit+0x14>
 8006f48:	e8bd 4010 	ldmia.w	sp!, {r4, lr}
 8006f4c:	f7ff bff0 	b.w	8006f30 <__sfp_lock_release>
 8006f50:	4b04      	ldr	r3, [pc, #16]	@ (8006f64 <__sinit+0x28>)
 8006f52:	6223      	str	r3, [r4, #32]
 8006f54:	4b04      	ldr	r3, [pc, #16]	@ (8006f68 <__sinit+0x2c>)
 8006f56:	681b      	ldr	r3, [r3, #0]
 8006f58:	2b00      	cmp	r3, #0
 8006f5a:	d1f5      	bne.n	8006f48 <__sinit+0xc>
 8006f5c:	f7ff ffc4 	bl	8006ee8 <global_stdio_init.part.0>
 8006f60:	e7f2      	b.n	8006f48 <__sinit+0xc>
 8006f62:	bf00      	nop
 8006f64:	08006ea9 	.word	0x08006ea9
 8006f68:	20001624 	.word	0x20001624

08006f6c <_fwalk_sglue>:
 8006f6c:	e92d 43f8 	stmdb	sp!, {r3, r4, r5, r6, r7, r8, r9, lr}
 8006f70:	4607      	mov	r7, r0
 8006f72:	4688      	mov	r8, r1
 8006f74:	4614      	mov	r4, r2
 8006f76:	2600      	movs	r6, #0
 8006f78:	e9d4 9501 	ldrd	r9, r5, [r4, #4]
 8006f7c:	f1b9 0901 	subs.w	r9, r9, #1
 8006f80:	d505      	bpl.n	8006f8e <_fwalk_sglue+0x22>
 8006f82:	6824      	ldr	r4, [r4, #0]
 8006f84:	2c00      	cmp	r4, #0
 8006f86:	d1f7      	bne.n	8006f78 <_fwalk_sglue+0xc>
 8006f88:	4630      	mov	r0, r6
 8006f8a:	e8bd 83f8 	ldmia.w	sp!, {r3, r4, r5, r6, r7, r8, r9, pc}
 8006f8e:	89ab      	ldrh	r3, [r5, #12]
 8006f90:	2b01      	cmp	r3, #1
 8006f92:	d907      	bls.n	8006fa4 <_fwalk_sglue+0x38>
 8006f94:	f9b5 300e 	ldrsh.w	r3, [r5, #14]
 8006f98:	3301      	adds	r3, #1
 8006f9a:	d003      	beq.n	8006fa4 <_fwalk_sglue+0x38>
 8006f9c:	4629      	mov	r1, r5
 8006f9e:	4638      	mov	r0, r7
 8006fa0:	47c0      	blx	r8
 8006fa2:	4306      	orrs	r6, r0
 8006fa4:	3568      	adds	r5, #104	@ 0x68
 8006fa6:	e7e9      	b.n	8006f7c <_fwalk_sglue+0x10>

08006fa8 <_puts_r>:
 8006fa8:	6a03      	ldr	r3, [r0, #32]
 8006faa:	b570      	push	{r4, r5, r6, lr}
 8006fac:	6884      	ldr	r4, [r0, #8]
 8006fae:	4605      	mov	r5, r0
 8006fb0:	460e      	mov	r6, r1
 8006fb2:	b90b      	cbnz	r3, 8006fb8 <_puts_r+0x10>
 8006fb4:	f7ff ffc2 	bl	8006f3c <__sinit>
 8006fb8:	6e63      	ldr	r3, [r4, #100]	@ 0x64
 8006fba:	07db      	lsls	r3, r3, #31
 8006fbc:	d405      	bmi.n	8006fca <_puts_r+0x22>
 8006fbe:	89a3      	ldrh	r3, [r4, #12]
 8006fc0:	0598      	lsls	r0, r3, #22
 8006fc2:	d402      	bmi.n	8006fca <_puts_r+0x22>
 8006fc4:	6da0      	ldr	r0, [r4, #88]	@ 0x58
 8006fc6:	f000 fa28 	bl	800741a <__retarget_lock_acquire_recursive>
 8006fca:	89a3      	ldrh	r3, [r4, #12]
 8006fcc:	0719      	lsls	r1, r3, #28
 8006fce:	d502      	bpl.n	8006fd6 <_puts_r+0x2e>
 8006fd0:	6923      	ldr	r3, [r4, #16]
 8006fd2:	2b00      	cmp	r3, #0
 8006fd4:	d135      	bne.n	8007042 <_puts_r+0x9a>
 8006fd6:	4621      	mov	r1, r4
 8006fd8:	4628      	mov	r0, r5
 8006fda:	f000 f8f9 	bl	80071d0 <__swsetup_r>
 8006fde:	b380      	cbz	r0, 8007042 <_puts_r+0x9a>
 8006fe0:	f04f 35ff 	mov.w	r5, #4294967295
 8006fe4:	6e63      	ldr	r3, [r4, #100]	@ 0x64
 8006fe6:	07da      	lsls	r2, r3, #31
 8006fe8:	d405      	bmi.n	8006ff6 <_puts_r+0x4e>
 8006fea:	89a3      	ldrh	r3, [r4, #12]
 8006fec:	059b      	lsls	r3, r3, #22
 8006fee:	d402      	bmi.n	8006ff6 <_puts_r+0x4e>
 8006ff0:	6da0      	ldr	r0, [r4, #88]	@ 0x58
 8006ff2:	f000 fa13 	bl	800741c <__retarget_lock_release_recursive>
 8006ff6:	4628      	mov	r0, r5
 8006ff8:	bd70      	pop	{r4, r5, r6, pc}
 8006ffa:	2b00      	cmp	r3, #0
 8006ffc:	da04      	bge.n	8007008 <_puts_r+0x60>
 8006ffe:	69a2      	ldr	r2, [r4, #24]
 8007000:	429a      	cmp	r2, r3
 8007002:	dc17      	bgt.n	8007034 <_puts_r+0x8c>
 8007004:	290a      	cmp	r1, #10
 8007006:	d015      	beq.n	8007034 <_puts_r+0x8c>
 8007008:	6823      	ldr	r3, [r4, #0]
 800700a:	1c5a      	adds	r2, r3, #1
 800700c:	6022      	str	r2, [r4, #0]
 800700e:	7019      	strb	r1, [r3, #0]
 8007010:	68a3      	ldr	r3, [r4, #8]
 8007012:	f816 1f01 	ldrb.w	r1, [r6, #1]!
 8007016:	3b01      	subs	r3, #1
 8007018:	60a3      	str	r3, [r4, #8]
 800701a:	2900      	cmp	r1, #0
 800701c:	d1ed      	bne.n	8006ffa <_puts_r+0x52>
 800701e:	2b00      	cmp	r3, #0
 8007020:	da11      	bge.n	8007046 <_puts_r+0x9e>
 8007022:	4622      	mov	r2, r4
 8007024:	210a      	movs	r1, #10
 8007026:	4628      	mov	r0, r5
 8007028:	f000 f893 	bl	8007152 <__swbuf_r>
 800702c:	3001      	adds	r0, #1
 800702e:	d0d7      	beq.n	8006fe0 <_puts_r+0x38>
 8007030:	250a      	movs	r5, #10
 8007032:	e7d7      	b.n	8006fe4 <_puts_r+0x3c>
 8007034:	4622      	mov	r2, r4
 8007036:	4628      	mov	r0, r5
 8007038:	f000 f88b 	bl	8007152 <__swbuf_r>
 800703c:	3001      	adds	r0, #1
 800703e:	d1e7      	bne.n	8007010 <_puts_r+0x68>
 8007040:	e7ce      	b.n	8006fe0 <_puts_r+0x38>
 8007042:	3e01      	subs	r6, #1
 8007044:	e7e4      	b.n	8007010 <_puts_r+0x68>
 8007046:	6823      	ldr	r3, [r4, #0]
 8007048:	1c5a      	adds	r2, r3, #1
 800704a:	6022      	str	r2, [r4, #0]
 800704c:	220a      	movs	r2, #10
 800704e:	701a      	strb	r2, [r3, #0]
 8007050:	e7ee      	b.n	8007030 <_puts_r+0x88>
	...

08007054 <puts>:
 8007054:	4b02      	ldr	r3, [pc, #8]	@ (8007060 <puts+0xc>)
 8007056:	4601      	mov	r1, r0
 8007058:	6818      	ldr	r0, [r3, #0]
 800705a:	f7ff bfa5 	b.w	8006fa8 <_puts_r>
 800705e:	bf00      	nop
 8007060:	2000001c 	.word	0x2000001c

08007064 <sniprintf>:
 8007064:	b40c      	push	{r2, r3}
 8007066:	b530      	push	{r4, r5, lr}
 8007068:	4b17      	ldr	r3, [pc, #92]	@ (80070c8 <sniprintf+0x64>)
 800706a:	1e0c      	subs	r4, r1, #0
 800706c:	681d      	ldr	r5, [r3, #0]
 800706e:	b09d      	sub	sp, #116	@ 0x74
 8007070:	da08      	bge.n	8007084 <sniprintf+0x20>
 8007072:	238b      	movs	r3, #139	@ 0x8b
 8007074:	602b      	str	r3, [r5, #0]
 8007076:	f04f 30ff 	mov.w	r0, #4294967295
 800707a:	b01d      	add	sp, #116	@ 0x74
 800707c:	e8bd 4030 	ldmia.w	sp!, {r4, r5, lr}
 8007080:	b002      	add	sp, #8
 8007082:	4770      	bx	lr
 8007084:	f44f 7302 	mov.w	r3, #520	@ 0x208
 8007088:	f8ad 3014 	strh.w	r3, [sp, #20]
 800708c:	bf14      	ite	ne
 800708e:	f104 33ff 	addne.w	r3, r4, #4294967295
 8007092:	4623      	moveq	r3, r4
 8007094:	9304      	str	r3, [sp, #16]
 8007096:	9307      	str	r3, [sp, #28]
 8007098:	f64f 73ff 	movw	r3, #65535	@ 0xffff
 800709c:	9002      	str	r0, [sp, #8]
 800709e:	9006      	str	r0, [sp, #24]
 80070a0:	f8ad 3016 	strh.w	r3, [sp, #22]
 80070a4:	9a20      	ldr	r2, [sp, #128]	@ 0x80
 80070a6:	ab21      	add	r3, sp, #132	@ 0x84
 80070a8:	a902      	add	r1, sp, #8
 80070aa:	4628      	mov	r0, r5
 80070ac:	9301      	str	r3, [sp, #4]
 80070ae:	f000 fb19 	bl	80076e4 <_svfiprintf_r>
 80070b2:	1c43      	adds	r3, r0, #1
 80070b4:	bfbc      	itt	lt
 80070b6:	238b      	movlt	r3, #139	@ 0x8b
 80070b8:	602b      	strlt	r3, [r5, #0]
 80070ba:	2c00      	cmp	r4, #0
 80070bc:	d0dd      	beq.n	800707a <sniprintf+0x16>
 80070be:	9b02      	ldr	r3, [sp, #8]
 80070c0:	2200      	movs	r2, #0
 80070c2:	701a      	strb	r2, [r3, #0]
 80070c4:	e7d9      	b.n	800707a <sniprintf+0x16>
 80070c6:	bf00      	nop
 80070c8:	2000001c 	.word	0x2000001c

080070cc <__sread>:
 80070cc:	b510      	push	{r4, lr}
 80070ce:	460c      	mov	r4, r1
 80070d0:	f9b1 100e 	ldrsh.w	r1, [r1, #14]
 80070d4:	f000 f952 	bl	800737c <_read_r>
 80070d8:	2800      	cmp	r0, #0
 80070da:	bfab      	itete	ge
 80070dc:	6d63      	ldrge	r3, [r4, #84]	@ 0x54
 80070de:	89a3      	ldrhlt	r3, [r4, #12]
 80070e0:	181b      	addge	r3, r3, r0
 80070e2:	f423 5380 	biclt.w	r3, r3, #4096	@ 0x1000
 80070e6:	bfac      	ite	ge
 80070e8:	6563      	strge	r3, [r4, #84]	@ 0x54
 80070ea:	81a3      	strhlt	r3, [r4, #12]
 80070ec:	bd10      	pop	{r4, pc}

080070ee <__swrite>:
 80070ee:	e92d 41f0 	stmdb	sp!, {r4, r5, r6, r7, r8, lr}
 80070f2:	461f      	mov	r7, r3
 80070f4:	898b      	ldrh	r3, [r1, #12]
 80070f6:	05db      	lsls	r3, r3, #23
 80070f8:	4605      	mov	r5, r0
 80070fa:	460c      	mov	r4, r1
 80070fc:	4616      	mov	r6, r2
 80070fe:	d505      	bpl.n	800710c <__swrite+0x1e>
 8007100:	f9b1 100e 	ldrsh.w	r1, [r1, #14]
 8007104:	2302      	movs	r3, #2
 8007106:	2200      	movs	r2, #0
 8007108:	f000 f926 	bl	8007358 <_lseek_r>
 800710c:	89a3      	ldrh	r3, [r4, #12]
 800710e:	f9b4 100e 	ldrsh.w	r1, [r4, #14]
 8007112:	f423 5380 	bic.w	r3, r3, #4096	@ 0x1000
 8007116:	81a3      	strh	r3, [r4, #12]
 8007118:	4632      	mov	r2, r6
 800711a:	463b      	mov	r3, r7
 800711c:	4628      	mov	r0, r5
 800711e:	e8bd 41f0 	ldmia.w	sp!, {r4, r5, r6, r7, r8, lr}
 8007122:	f000 b93d 	b.w	80073a0 <_write_r>

08007126 <__sseek>:
 8007126:	b510      	push	{r4, lr}
 8007128:	460c      	mov	r4, r1
 800712a:	f9b1 100e 	ldrsh.w	r1, [r1, #14]
 800712e:	f000 f913 	bl	8007358 <_lseek_r>
 8007132:	1c43      	adds	r3, r0, #1
 8007134:	89a3      	ldrh	r3, [r4, #12]
 8007136:	bf15      	itete	ne
 8007138:	6560      	strne	r0, [r4, #84]	@ 0x54
 800713a:	f423 5380 	biceq.w	r3, r3, #4096	@ 0x1000
 800713e:	f443 5380 	orrne.w	r3, r3, #4096	@ 0x1000
 8007142:	81a3      	strheq	r3, [r4, #12]
 8007144:	bf18      	it	ne
 8007146:	81a3      	strhne	r3, [r4, #12]
 8007148:	bd10      	pop	{r4, pc}

0800714a <__sclose>:
 800714a:	f9b1 100e 	ldrsh.w	r1, [r1, #14]
 800714e:	f000 b89d 	b.w	800728c <_close_r>

08007152 <__swbuf_r>:
 8007152:	b5f8      	push	{r3, r4, r5, r6, r7, lr}
 8007154:	460e      	mov	r6, r1
 8007156:	4614      	mov	r4, r2
 8007158:	4605      	mov	r5, r0
 800715a:	b118      	cbz	r0, 8007164 <__swbuf_r+0x12>
 800715c:	6a03      	ldr	r3, [r0, #32]
 800715e:	b90b      	cbnz	r3, 8007164 <__swbuf_r+0x12>
 8007160:	f7ff feec 	bl	8006f3c <__sinit>
 8007164:	69a3      	ldr	r3, [r4, #24]
 8007166:	60a3      	str	r3, [r4, #8]
 8007168:	89a3      	ldrh	r3, [r4, #12]
 800716a:	071a      	lsls	r2, r3, #28
 800716c:	d501      	bpl.n	8007172 <__swbuf_r+0x20>
 800716e:	6923      	ldr	r3, [r4, #16]
 8007170:	b943      	cbnz	r3, 8007184 <__swbuf_r+0x32>
 8007172:	4621      	mov	r1, r4
 8007174:	4628      	mov	r0, r5
 8007176:	f000 f82b 	bl	80071d0 <__swsetup_r>
 800717a:	b118      	cbz	r0, 8007184 <__swbuf_r+0x32>
 800717c:	f04f 37ff 	mov.w	r7, #4294967295
 8007180:	4638      	mov	r0, r7
 8007182:	bdf8      	pop	{r3, r4, r5, r6, r7, pc}
 8007184:	6823      	ldr	r3, [r4, #0]
 8007186:	6922      	ldr	r2, [r4, #16]
 8007188:	1a98      	subs	r0, r3, r2
 800718a:	6963      	ldr	r3, [r4, #20]
 800718c:	b2f6      	uxtb	r6, r6
 800718e:	4283      	cmp	r3, r0
 8007190:	4637      	mov	r7, r6
 8007192:	dc05      	bgt.n	80071a0 <__swbuf_r+0x4e>
 8007194:	4621      	mov	r1, r4
 8007196:	4628      	mov	r0, r5
 8007198:	f000 fdb2 	bl	8007d00 <_fflush_r>
 800719c:	2800      	cmp	r0, #0
 800719e:	d1ed      	bne.n	800717c <__swbuf_r+0x2a>
 80071a0:	68a3      	ldr	r3, [r4, #8]
 80071a2:	3b01      	subs	r3, #1
 80071a4:	60a3      	str	r3, [r4, #8]
 80071a6:	6823      	ldr	r3, [r4, #0]
 80071a8:	1c5a      	adds	r2, r3, #1
 80071aa:	6022      	str	r2, [r4, #0]
 80071ac:	701e      	strb	r6, [r3, #0]
 80071ae:	6962      	ldr	r2, [r4, #20]
 80071b0:	1c43      	adds	r3, r0, #1
 80071b2:	429a      	cmp	r2, r3
 80071b4:	d004      	beq.n	80071c0 <__swbuf_r+0x6e>
 80071b6:	89a3      	ldrh	r3, [r4, #12]
 80071b8:	07db      	lsls	r3, r3, #31
 80071ba:	d5e1      	bpl.n	8007180 <__swbuf_r+0x2e>
 80071bc:	2e0a      	cmp	r6, #10
 80071be:	d1df      	bne.n	8007180 <__swbuf_r+0x2e>
 80071c0:	4621      	mov	r1, r4
 80071c2:	4628      	mov	r0, r5
 80071c4:	f000 fd9c 	bl	8007d00 <_fflush_r>
 80071c8:	2800      	cmp	r0, #0
 80071ca:	d0d9      	beq.n	8007180 <__swbuf_r+0x2e>
 80071cc:	e7d6      	b.n	800717c <__swbuf_r+0x2a>
	...

080071d0 <__swsetup_r>:
 80071d0:	b538      	push	{r3, r4, r5, lr}
 80071d2:	4b29      	ldr	r3, [pc, #164]	@ (8007278 <__swsetup_r+0xa8>)
 80071d4:	4605      	mov	r5, r0
 80071d6:	6818      	ldr	r0, [r3, #0]
 80071d8:	460c      	mov	r4, r1
 80071da:	b118      	cbz	r0, 80071e4 <__swsetup_r+0x14>
 80071dc:	6a03      	ldr	r3, [r0, #32]
 80071de:	b90b      	cbnz	r3, 80071e4 <__swsetup_r+0x14>
 80071e0:	f7ff feac 	bl	8006f3c <__sinit>
 80071e4:	f9b4 300c 	ldrsh.w	r3, [r4, #12]
 80071e8:	0719      	lsls	r1, r3, #28
 80071ea:	d422      	bmi.n	8007232 <__swsetup_r+0x62>
 80071ec:	06da      	lsls	r2, r3, #27
 80071ee:	d407      	bmi.n	8007200 <__swsetup_r+0x30>
 80071f0:	2209      	movs	r2, #9
 80071f2:	602a      	str	r2, [r5, #0]
 80071f4:	f043 0340 	orr.w	r3, r3, #64	@ 0x40
 80071f8:	81a3      	strh	r3, [r4, #12]
 80071fa:	f04f 30ff 	mov.w	r0, #4294967295
 80071fe:	e033      	b.n	8007268 <__swsetup_r+0x98>
 8007200:	0758      	lsls	r0, r3, #29
 8007202:	d512      	bpl.n	800722a <__swsetup_r+0x5a>
 8007204:	6b61      	ldr	r1, [r4, #52]	@ 0x34
 8007206:	b141      	cbz	r1, 800721a <__swsetup_r+0x4a>
 8007208:	f104 0344 	add.w	r3, r4, #68	@ 0x44
 800720c:	4299      	cmp	r1, r3
 800720e:	d002      	beq.n	8007216 <__swsetup_r+0x46>
 8007210:	4628      	mov	r0, r5
 8007212:	f000 f913 	bl	800743c <_free_r>
 8007216:	2300      	movs	r3, #0
 8007218:	6363      	str	r3, [r4, #52]	@ 0x34
 800721a:	89a3      	ldrh	r3, [r4, #12]
 800721c:	f023 0324 	bic.w	r3, r3, #36	@ 0x24
 8007220:	81a3      	strh	r3, [r4, #12]
 8007222:	2300      	movs	r3, #0
 8007224:	6063      	str	r3, [r4, #4]
 8007226:	6923      	ldr	r3, [r4, #16]
 8007228:	6023      	str	r3, [r4, #0]
 800722a:	89a3      	ldrh	r3, [r4, #12]
 800722c:	f043 0308 	orr.w	r3, r3, #8
 8007230:	81a3      	strh	r3, [r4, #12]
 8007232:	6923      	ldr	r3, [r4, #16]
 8007234:	b94b      	cbnz	r3, 800724a <__swsetup_r+0x7a>
 8007236:	89a3      	ldrh	r3, [r4, #12]
 8007238:	f403 7320 	and.w	r3, r3, #640	@ 0x280
 800723c:	f5b3 7f00 	cmp.w	r3, #512	@ 0x200
 8007240:	d003      	beq.n	800724a <__swsetup_r+0x7a>
 8007242:	4621      	mov	r1, r4
 8007244:	4628      	mov	r0, r5
 8007246:	f000 fda9 	bl	8007d9c <__smakebuf_r>
 800724a:	f9b4 300c 	ldrsh.w	r3, [r4, #12]
 800724e:	f013 0201 	ands.w	r2, r3, #1
 8007252:	d00a      	beq.n	800726a <__swsetup_r+0x9a>
 8007254:	2200      	movs	r2, #0
 8007256:	60a2      	str	r2, [r4, #8]
 8007258:	6962      	ldr	r2, [r4, #20]
 800725a:	4252      	negs	r2, r2
 800725c:	61a2      	str	r2, [r4, #24]
 800725e:	6922      	ldr	r2, [r4, #16]
 8007260:	b942      	cbnz	r2, 8007274 <__swsetup_r+0xa4>
 8007262:	f013 0080 	ands.w	r0, r3, #128	@ 0x80
 8007266:	d1c5      	bne.n	80071f4 <__swsetup_r+0x24>
 8007268:	bd38      	pop	{r3, r4, r5, pc}
 800726a:	0799      	lsls	r1, r3, #30
 800726c:	bf58      	it	pl
 800726e:	6962      	ldrpl	r2, [r4, #20]
 8007270:	60a2      	str	r2, [r4, #8]
 8007272:	e7f4      	b.n	800725e <__swsetup_r+0x8e>
 8007274:	2000      	movs	r0, #0
 8007276:	e7f7      	b.n	8007268 <__swsetup_r+0x98>
 8007278:	2000001c 	.word	0x2000001c

0800727c <memset>:
 800727c:	4402      	add	r2, r0
 800727e:	4603      	mov	r3, r0
 8007280:	4293      	cmp	r3, r2
 8007282:	d100      	bne.n	8007286 <memset+0xa>
 8007284:	4770      	bx	lr
 8007286:	f803 1b01 	strb.w	r1, [r3], #1
 800728a:	e7f9      	b.n	8007280 <memset+0x4>

0800728c <_close_r>:
 800728c:	b538      	push	{r3, r4, r5, lr}
 800728e:	4d06      	ldr	r5, [pc, #24]	@ (80072a8 <_close_r+0x1c>)
 8007290:	2300      	movs	r3, #0
 8007292:	4604      	mov	r4, r0
 8007294:	4608      	mov	r0, r1
 8007296:	602b      	str	r3, [r5, #0]
 8007298:	f7fa f855 	bl	8001346 <_close>
 800729c:	1c43      	adds	r3, r0, #1
 800729e:	d102      	bne.n	80072a6 <_close_r+0x1a>
 80072a0:	682b      	ldr	r3, [r5, #0]
 80072a2:	b103      	cbz	r3, 80072a6 <_close_r+0x1a>
 80072a4:	6023      	str	r3, [r4, #0]
 80072a6:	bd38      	pop	{r3, r4, r5, pc}
 80072a8:	20001628 	.word	0x20001628

080072ac <_reclaim_reent>:
 80072ac:	4b29      	ldr	r3, [pc, #164]	@ (8007354 <_reclaim_reent+0xa8>)
 80072ae:	681b      	ldr	r3, [r3, #0]
 80072b0:	4283      	cmp	r3, r0
 80072b2:	b570      	push	{r4, r5, r6, lr}
 80072b4:	4604      	mov	r4, r0
 80072b6:	d04b      	beq.n	8007350 <_reclaim_reent+0xa4>
 80072b8:	69c3      	ldr	r3, [r0, #28]
 80072ba:	b1ab      	cbz	r3, 80072e8 <_reclaim_reent+0x3c>
 80072bc:	68db      	ldr	r3, [r3, #12]
 80072be:	b16b      	cbz	r3, 80072dc <_reclaim_reent+0x30>
 80072c0:	2500      	movs	r5, #0
 80072c2:	69e3      	ldr	r3, [r4, #28]
 80072c4:	68db      	ldr	r3, [r3, #12]
 80072c6:	5959      	ldr	r1, [r3, r5]
 80072c8:	2900      	cmp	r1, #0
 80072ca:	d13b      	bne.n	8007344 <_reclaim_reent+0x98>
 80072cc:	3504      	adds	r5, #4
 80072ce:	2d80      	cmp	r5, #128	@ 0x80
 80072d0:	d1f7      	bne.n	80072c2 <_reclaim_reent+0x16>
 80072d2:	69e3      	ldr	r3, [r4, #28]
 80072d4:	4620      	mov	r0, r4
 80072d6:	68d9      	ldr	r1, [r3, #12]
 80072d8:	f000 f8b0 	bl	800743c <_free_r>
 80072dc:	69e3      	ldr	r3, [r4, #28]
 80072de:	6819      	ldr	r1, [r3, #0]
 80072e0:	b111      	cbz	r1, 80072e8 <_reclaim_reent+0x3c>
 80072e2:	4620      	mov	r0, r4
 80072e4:	f000 f8aa 	bl	800743c <_free_r>
 80072e8:	6961      	ldr	r1, [r4, #20]
 80072ea:	b111      	cbz	r1, 80072f2 <_reclaim_reent+0x46>
 80072ec:	4620      	mov	r0, r4
 80072ee:	f000 f8a5 	bl	800743c <_free_r>
 80072f2:	69e1      	ldr	r1, [r4, #28]
 80072f4:	b111      	cbz	r1, 80072fc <_reclaim_reent+0x50>
 80072f6:	4620      	mov	r0, r4
 80072f8:	f000 f8a0 	bl	800743c <_free_r>
 80072fc:	6b21      	ldr	r1, [r4, #48]	@ 0x30
 80072fe:	b111      	cbz	r1, 8007306 <_reclaim_reent+0x5a>
 8007300:	4620      	mov	r0, r4
 8007302:	f000 f89b 	bl	800743c <_free_r>
 8007306:	6b61      	ldr	r1, [r4, #52]	@ 0x34
 8007308:	b111      	cbz	r1, 8007310 <_reclaim_reent+0x64>
 800730a:	4620      	mov	r0, r4
 800730c:	f000 f896 	bl	800743c <_free_r>
 8007310:	6ba1      	ldr	r1, [r4, #56]	@ 0x38
 8007312:	b111      	cbz	r1, 800731a <_reclaim_reent+0x6e>
 8007314:	4620      	mov	r0, r4
 8007316:	f000 f891 	bl	800743c <_free_r>
 800731a:	6ca1      	ldr	r1, [r4, #72]	@ 0x48
 800731c:	b111      	cbz	r1, 8007324 <_reclaim_reent+0x78>
 800731e:	4620      	mov	r0, r4
 8007320:	f000 f88c 	bl	800743c <_free_r>
 8007324:	6c61      	ldr	r1, [r4, #68]	@ 0x44
 8007326:	b111      	cbz	r1, 800732e <_reclaim_reent+0x82>
 8007328:	4620      	mov	r0, r4
 800732a:	f000 f887 	bl	800743c <_free_r>
 800732e:	6ae1      	ldr	r1, [r4, #44]	@ 0x2c
 8007330:	b111      	cbz	r1, 8007338 <_reclaim_reent+0x8c>
 8007332:	4620      	mov	r0, r4
 8007334:	f000 f882 	bl	800743c <_free_r>
 8007338:	6a23      	ldr	r3, [r4, #32]
 800733a:	b14b      	cbz	r3, 8007350 <_reclaim_reent+0xa4>
 800733c:	4620      	mov	r0, r4
 800733e:	e8bd 4070 	ldmia.w	sp!, {r4, r5, r6, lr}
 8007342:	4718      	bx	r3
 8007344:	680e      	ldr	r6, [r1, #0]
 8007346:	4620      	mov	r0, r4
 8007348:	f000 f878 	bl	800743c <_free_r>
 800734c:	4631      	mov	r1, r6
 800734e:	e7bb      	b.n	80072c8 <_reclaim_reent+0x1c>
 8007350:	bd70      	pop	{r4, r5, r6, pc}
 8007352:	bf00      	nop
 8007354:	2000001c 	.word	0x2000001c

08007358 <_lseek_r>:
 8007358:	b538      	push	{r3, r4, r5, lr}
 800735a:	4d07      	ldr	r5, [pc, #28]	@ (8007378 <_lseek_r+0x20>)
 800735c:	4604      	mov	r4, r0
 800735e:	4608      	mov	r0, r1
 8007360:	4611      	mov	r1, r2
 8007362:	2200      	movs	r2, #0
 8007364:	602a      	str	r2, [r5, #0]
 8007366:	461a      	mov	r2, r3
 8007368:	f7fa f814 	bl	8001394 <_lseek>
 800736c:	1c43      	adds	r3, r0, #1
 800736e:	d102      	bne.n	8007376 <_lseek_r+0x1e>
 8007370:	682b      	ldr	r3, [r5, #0]
 8007372:	b103      	cbz	r3, 8007376 <_lseek_r+0x1e>
 8007374:	6023      	str	r3, [r4, #0]
 8007376:	bd38      	pop	{r3, r4, r5, pc}
 8007378:	20001628 	.word	0x20001628

0800737c <_read_r>:
 800737c:	b538      	push	{r3, r4, r5, lr}
 800737e:	4d07      	ldr	r5, [pc, #28]	@ (800739c <_read_r+0x20>)
 8007380:	4604      	mov	r4, r0
 8007382:	4608      	mov	r0, r1
 8007384:	4611      	mov	r1, r2
 8007386:	2200      	movs	r2, #0
 8007388:	602a      	str	r2, [r5, #0]
 800738a:	461a      	mov	r2, r3
 800738c:	f7f9 ffa2 	bl	80012d4 <_read>
 8007390:	1c43      	adds	r3, r0, #1
 8007392:	d102      	bne.n	800739a <_read_r+0x1e>
 8007394:	682b      	ldr	r3, [r5, #0]
 8007396:	b103      	cbz	r3, 800739a <_read_r+0x1e>
 8007398:	6023      	str	r3, [r4, #0]
 800739a:	bd38      	pop	{r3, r4, r5, pc}
 800739c:	20001628 	.word	0x20001628

080073a0 <_write_r>:
 80073a0:	b538      	push	{r3, r4, r5, lr}
 80073a2:	4d07      	ldr	r5, [pc, #28]	@ (80073c0 <_write_r+0x20>)
 80073a4:	4604      	mov	r4, r0
 80073a6:	4608      	mov	r0, r1
 80073a8:	4611      	mov	r1, r2
 80073aa:	2200      	movs	r2, #0
 80073ac:	602a      	str	r2, [r5, #0]
 80073ae:	461a      	mov	r2, r3
 80073b0:	f7f9 ffad 	bl	800130e <_write>
 80073b4:	1c43      	adds	r3, r0, #1
 80073b6:	d102      	bne.n	80073be <_write_r+0x1e>
 80073b8:	682b      	ldr	r3, [r5, #0]
 80073ba:	b103      	cbz	r3, 80073be <_write_r+0x1e>
 80073bc:	6023      	str	r3, [r4, #0]
 80073be:	bd38      	pop	{r3, r4, r5, pc}
 80073c0:	20001628 	.word	0x20001628

080073c4 <__errno>:
 80073c4:	4b01      	ldr	r3, [pc, #4]	@ (80073cc <__errno+0x8>)
 80073c6:	6818      	ldr	r0, [r3, #0]
 80073c8:	4770      	bx	lr
 80073ca:	bf00      	nop
 80073cc:	2000001c 	.word	0x2000001c

080073d0 <__libc_init_array>:
 80073d0:	b570      	push	{r4, r5, r6, lr}
 80073d2:	4d0d      	ldr	r5, [pc, #52]	@ (8007408 <__libc_init_array+0x38>)
 80073d4:	4c0d      	ldr	r4, [pc, #52]	@ (800740c <__libc_init_array+0x3c>)
 80073d6:	1b64      	subs	r4, r4, r5
 80073d8:	10a4      	asrs	r4, r4, #2
 80073da:	2600      	movs	r6, #0
 80073dc:	42a6      	cmp	r6, r4
 80073de:	d109      	bne.n	80073f4 <__libc_init_array+0x24>
 80073e0:	4d0b      	ldr	r5, [pc, #44]	@ (8007410 <__libc_init_array+0x40>)
 80073e2:	4c0c      	ldr	r4, [pc, #48]	@ (8007414 <__libc_init_array+0x44>)
 80073e4:	f000 fd98 	bl	8007f18 <_init>
 80073e8:	1b64      	subs	r4, r4, r5
 80073ea:	10a4      	asrs	r4, r4, #2
 80073ec:	2600      	movs	r6, #0
 80073ee:	42a6      	cmp	r6, r4
 80073f0:	d105      	bne.n	80073fe <__libc_init_array+0x2e>
 80073f2:	bd70      	pop	{r4, r5, r6, pc}
 80073f4:	f855 3b04 	ldr.w	r3, [r5], #4
 80073f8:	4798      	blx	r3
 80073fa:	3601      	adds	r6, #1
 80073fc:	e7ee      	b.n	80073dc <__libc_init_array+0xc>
 80073fe:	f855 3b04 	ldr.w	r3, [r5], #4
 8007402:	4798      	blx	r3
 8007404:	3601      	adds	r6, #1
 8007406:	e7f2      	b.n	80073ee <__libc_init_array+0x1e>
 8007408:	08008218 	.word	0x08008218
 800740c:	08008218 	.word	0x08008218
 8007410:	08008218 	.word	0x08008218
 8007414:	0800821c 	.word	0x0800821c

08007418 <__retarget_lock_init_recursive>:
 8007418:	4770      	bx	lr

0800741a <__retarget_lock_acquire_recursive>:
 800741a:	4770      	bx	lr

0800741c <__retarget_lock_release_recursive>:
 800741c:	4770      	bx	lr

0800741e <memcpy>:
 800741e:	440a      	add	r2, r1
 8007420:	4291      	cmp	r1, r2
 8007422:	f100 33ff 	add.w	r3, r0, #4294967295
 8007426:	d100      	bne.n	800742a <memcpy+0xc>
 8007428:	4770      	bx	lr
 800742a:	b510      	push	{r4, lr}
 800742c:	f811 4b01 	ldrb.w	r4, [r1], #1
 8007430:	f803 4f01 	strb.w	r4, [r3, #1]!
 8007434:	4291      	cmp	r1, r2
 8007436:	d1f9      	bne.n	800742c <memcpy+0xe>
 8007438:	bd10      	pop	{r4, pc}
	...

0800743c <_free_r>:
 800743c:	b538      	push	{r3, r4, r5, lr}
 800743e:	4605      	mov	r5, r0
 8007440:	2900      	cmp	r1, #0
 8007442:	d041      	beq.n	80074c8 <_free_r+0x8c>
 8007444:	f851 3c04 	ldr.w	r3, [r1, #-4]
 8007448:	1f0c      	subs	r4, r1, #4
 800744a:	2b00      	cmp	r3, #0
 800744c:	bfb8      	it	lt
 800744e:	18e4      	addlt	r4, r4, r3
 8007450:	f000 f8e0 	bl	8007614 <__malloc_lock>
 8007454:	4a1d      	ldr	r2, [pc, #116]	@ (80074cc <_free_r+0x90>)
 8007456:	6813      	ldr	r3, [r2, #0]
 8007458:	b933      	cbnz	r3, 8007468 <_free_r+0x2c>
 800745a:	6063      	str	r3, [r4, #4]
 800745c:	6014      	str	r4, [r2, #0]
 800745e:	4628      	mov	r0, r5
 8007460:	e8bd 4038 	ldmia.w	sp!, {r3, r4, r5, lr}
 8007464:	f000 b8dc 	b.w	8007620 <__malloc_unlock>
 8007468:	42a3      	cmp	r3, r4
 800746a:	d908      	bls.n	800747e <_free_r+0x42>
 800746c:	6820      	ldr	r0, [r4, #0]
 800746e:	1821      	adds	r1, r4, r0
 8007470:	428b      	cmp	r3, r1
 8007472:	bf01      	itttt	eq
 8007474:	6819      	ldreq	r1, [r3, #0]
 8007476:	685b      	ldreq	r3, [r3, #4]
 8007478:	1809      	addeq	r1, r1, r0
 800747a:	6021      	streq	r1, [r4, #0]
 800747c:	e7ed      	b.n	800745a <_free_r+0x1e>
 800747e:	461a      	mov	r2, r3
 8007480:	685b      	ldr	r3, [r3, #4]
 8007482:	b10b      	cbz	r3, 8007488 <_free_r+0x4c>
 8007484:	42a3      	cmp	r3, r4
 8007486:	d9fa      	bls.n	800747e <_free_r+0x42>
 8007488:	6811      	ldr	r1, [r2, #0]
 800748a:	1850      	adds	r0, r2, r1
 800748c:	42a0      	cmp	r0, r4
 800748e:	d10b      	bne.n	80074a8 <_free_r+0x6c>
 8007490:	6820      	ldr	r0, [r4, #0]
 8007492:	4401      	add	r1, r0
 8007494:	1850      	adds	r0, r2, r1
 8007496:	4283      	cmp	r3, r0
 8007498:	6011      	str	r1, [r2, #0]
 800749a:	d1e0      	bne.n	800745e <_free_r+0x22>
 800749c:	6818      	ldr	r0, [r3, #0]
 800749e:	685b      	ldr	r3, [r3, #4]
 80074a0:	6053      	str	r3, [r2, #4]
 80074a2:	4408      	add	r0, r1
 80074a4:	6010      	str	r0, [r2, #0]
 80074a6:	e7da      	b.n	800745e <_free_r+0x22>
 80074a8:	d902      	bls.n	80074b0 <_free_r+0x74>
 80074aa:	230c      	movs	r3, #12
 80074ac:	602b      	str	r3, [r5, #0]
 80074ae:	e7d6      	b.n	800745e <_free_r+0x22>
 80074b0:	6820      	ldr	r0, [r4, #0]
 80074b2:	1821      	adds	r1, r4, r0
 80074b4:	428b      	cmp	r3, r1
 80074b6:	bf04      	itt	eq
 80074b8:	6819      	ldreq	r1, [r3, #0]
 80074ba:	685b      	ldreq	r3, [r3, #4]
 80074bc:	6063      	str	r3, [r4, #4]
 80074be:	bf04      	itt	eq
 80074c0:	1809      	addeq	r1, r1, r0
 80074c2:	6021      	streq	r1, [r4, #0]
 80074c4:	6054      	str	r4, [r2, #4]
 80074c6:	e7ca      	b.n	800745e <_free_r+0x22>
 80074c8:	bd38      	pop	{r3, r4, r5, pc}
 80074ca:	bf00      	nop
 80074cc:	20001634 	.word	0x20001634

080074d0 <sbrk_aligned>:
 80074d0:	b570      	push	{r4, r5, r6, lr}
 80074d2:	4e0f      	ldr	r6, [pc, #60]	@ (8007510 <sbrk_aligned+0x40>)
 80074d4:	460c      	mov	r4, r1
 80074d6:	6831      	ldr	r1, [r6, #0]
 80074d8:	4605      	mov	r5, r0
 80074da:	b911      	cbnz	r1, 80074e2 <sbrk_aligned+0x12>
 80074dc:	f000 fcd6 	bl	8007e8c <_sbrk_r>
 80074e0:	6030      	str	r0, [r6, #0]
 80074e2:	4621      	mov	r1, r4
 80074e4:	4628      	mov	r0, r5
 80074e6:	f000 fcd1 	bl	8007e8c <_sbrk_r>
 80074ea:	1c43      	adds	r3, r0, #1
 80074ec:	d103      	bne.n	80074f6 <sbrk_aligned+0x26>
 80074ee:	f04f 34ff 	mov.w	r4, #4294967295
 80074f2:	4620      	mov	r0, r4
 80074f4:	bd70      	pop	{r4, r5, r6, pc}
 80074f6:	1cc4      	adds	r4, r0, #3
 80074f8:	f024 0403 	bic.w	r4, r4, #3
 80074fc:	42a0      	cmp	r0, r4
 80074fe:	d0f8      	beq.n	80074f2 <sbrk_aligned+0x22>
 8007500:	1a21      	subs	r1, r4, r0
 8007502:	4628      	mov	r0, r5
 8007504:	f000 fcc2 	bl	8007e8c <_sbrk_r>
 8007508:	3001      	adds	r0, #1
 800750a:	d1f2      	bne.n	80074f2 <sbrk_aligned+0x22>
 800750c:	e7ef      	b.n	80074ee <sbrk_aligned+0x1e>
 800750e:	bf00      	nop
 8007510:	20001630 	.word	0x20001630

08007514 <_malloc_r>:
 8007514:	e92d 43f8 	stmdb	sp!, {r3, r4, r5, r6, r7, r8, r9, lr}
 8007518:	1ccd      	adds	r5, r1, #3
 800751a:	f025 0503 	bic.w	r5, r5, #3
 800751e:	3508      	adds	r5, #8
 8007520:	2d0c      	cmp	r5, #12
 8007522:	bf38      	it	cc
 8007524:	250c      	movcc	r5, #12
 8007526:	2d00      	cmp	r5, #0
 8007528:	4606      	mov	r6, r0
 800752a:	db01      	blt.n	8007530 <_malloc_r+0x1c>
 800752c:	42a9      	cmp	r1, r5
 800752e:	d904      	bls.n	800753a <_malloc_r+0x26>
 8007530:	230c      	movs	r3, #12
 8007532:	6033      	str	r3, [r6, #0]
 8007534:	2000      	movs	r0, #0
 8007536:	e8bd 83f8 	ldmia.w	sp!, {r3, r4, r5, r6, r7, r8, r9, pc}
 800753a:	f8df 80d4 	ldr.w	r8, [pc, #212]	@ 8007610 <_malloc_r+0xfc>
 800753e:	f000 f869 	bl	8007614 <__malloc_lock>
 8007542:	f8d8 3000 	ldr.w	r3, [r8]
 8007546:	461c      	mov	r4, r3
 8007548:	bb44      	cbnz	r4, 800759c <_malloc_r+0x88>
 800754a:	4629      	mov	r1, r5
 800754c:	4630      	mov	r0, r6
 800754e:	f7ff ffbf 	bl	80074d0 <sbrk_aligned>
 8007552:	1c43      	adds	r3, r0, #1
 8007554:	4604      	mov	r4, r0
 8007556:	d158      	bne.n	800760a <_malloc_r+0xf6>
 8007558:	f8d8 4000 	ldr.w	r4, [r8]
 800755c:	4627      	mov	r7, r4
 800755e:	2f00      	cmp	r7, #0
 8007560:	d143      	bne.n	80075ea <_malloc_r+0xd6>
 8007562:	2c00      	cmp	r4, #0
 8007564:	d04b      	beq.n	80075fe <_malloc_r+0xea>
 8007566:	6823      	ldr	r3, [r4, #0]
 8007568:	4639      	mov	r1, r7
 800756a:	4630      	mov	r0, r6
 800756c:	eb04 0903 	add.w	r9, r4, r3
 8007570:	f000 fc8c 	bl	8007e8c <_sbrk_r>
 8007574:	4581      	cmp	r9, r0
 8007576:	d142      	bne.n	80075fe <_malloc_r+0xea>
 8007578:	6821      	ldr	r1, [r4, #0]
 800757a:	1a6d      	subs	r5, r5, r1
 800757c:	4629      	mov	r1, r5
 800757e:	4630      	mov	r0, r6
 8007580:	f7ff ffa6 	bl	80074d0 <sbrk_aligned>
 8007584:	3001      	adds	r0, #1
 8007586:	d03a      	beq.n	80075fe <_malloc_r+0xea>
 8007588:	6823      	ldr	r3, [r4, #0]
 800758a:	442b      	add	r3, r5
 800758c:	6023      	str	r3, [r4, #0]
 800758e:	f8d8 3000 	ldr.w	r3, [r8]
 8007592:	685a      	ldr	r2, [r3, #4]
 8007594:	bb62      	cbnz	r2, 80075f0 <_malloc_r+0xdc>
 8007596:	f8c8 7000 	str.w	r7, [r8]
 800759a:	e00f      	b.n	80075bc <_malloc_r+0xa8>
 800759c:	6822      	ldr	r2, [r4, #0]
 800759e:	1b52      	subs	r2, r2, r5
 80075a0:	d420      	bmi.n	80075e4 <_malloc_r+0xd0>
 80075a2:	2a0b      	cmp	r2, #11
 80075a4:	d917      	bls.n	80075d6 <_malloc_r+0xc2>
 80075a6:	1961      	adds	r1, r4, r5
 80075a8:	42a3      	cmp	r3, r4
 80075aa:	6025      	str	r5, [r4, #0]
 80075ac:	bf18      	it	ne
 80075ae:	6059      	strne	r1, [r3, #4]
 80075b0:	6863      	ldr	r3, [r4, #4]
 80075b2:	bf08      	it	eq
 80075b4:	f8c8 1000 	streq.w	r1, [r8]
 80075b8:	5162      	str	r2, [r4, r5]
 80075ba:	604b      	str	r3, [r1, #4]
 80075bc:	4630      	mov	r0, r6
 80075be:	f000 f82f 	bl	8007620 <__malloc_unlock>
 80075c2:	f104 000b 	add.w	r0, r4, #11
 80075c6:	1d23      	adds	r3, r4, #4
 80075c8:	f020 0007 	bic.w	r0, r0, #7
 80075cc:	1ac2      	subs	r2, r0, r3
 80075ce:	bf1c      	itt	ne
 80075d0:	1a1b      	subne	r3, r3, r0
 80075d2:	50a3      	strne	r3, [r4, r2]
 80075d4:	e7af      	b.n	8007536 <_malloc_r+0x22>
 80075d6:	6862      	ldr	r2, [r4, #4]
 80075d8:	42a3      	cmp	r3, r4
 80075da:	bf0c      	ite	eq
 80075dc:	f8c8 2000 	streq.w	r2, [r8]
 80075e0:	605a      	strne	r2, [r3, #4]
 80075e2:	e7eb      	b.n	80075bc <_malloc_r+0xa8>
 80075e4:	4623      	mov	r3, r4
 80075e6:	6864      	ldr	r4, [r4, #4]
 80075e8:	e7ae      	b.n	8007548 <_malloc_r+0x34>
 80075ea:	463c      	mov	r4, r7
 80075ec:	687f      	ldr	r7, [r7, #4]
 80075ee:	e7b6      	b.n	800755e <_malloc_r+0x4a>
 80075f0:	461a      	mov	r2, r3
 80075f2:	685b      	ldr	r3, [r3, #4]
 80075f4:	42a3      	cmp	r3, r4
 80075f6:	d1fb      	bne.n	80075f0 <_malloc_r+0xdc>
 80075f8:	2300      	movs	r3, #0
 80075fa:	6053      	str	r3, [r2, #4]
 80075fc:	e7de      	b.n	80075bc <_malloc_r+0xa8>
 80075fe:	230c      	movs	r3, #12
 8007600:	6033      	str	r3, [r6, #0]
 8007602:	4630      	mov	r0, r6
 8007604:	f000 f80c 	bl	8007620 <__malloc_unlock>
 8007608:	e794      	b.n	8007534 <_malloc_r+0x20>
 800760a:	6005      	str	r5, [r0, #0]
 800760c:	e7d6      	b.n	80075bc <_malloc_r+0xa8>
 800760e:	bf00      	nop
 8007610:	20001634 	.word	0x20001634

08007614 <__malloc_lock>:
 8007614:	4801      	ldr	r0, [pc, #4]	@ (800761c <__malloc_lock+0x8>)
 8007616:	f7ff bf00 	b.w	800741a <__retarget_lock_acquire_recursive>
 800761a:	bf00      	nop
 800761c:	2000162c 	.word	0x2000162c

08007620 <__malloc_unlock>:
 8007620:	4801      	ldr	r0, [pc, #4]	@ (8007628 <__malloc_unlock+0x8>)
 8007622:	f7ff befb 	b.w	800741c <__retarget_lock_release_recursive>
 8007626:	bf00      	nop
 8007628:	2000162c 	.word	0x2000162c

0800762c <__ssputs_r>:
 800762c:	e92d 47f0 	stmdb	sp!, {r4, r5, r6, r7, r8, r9, sl, lr}
 8007630:	688e      	ldr	r6, [r1, #8]
 8007632:	461f      	mov	r7, r3
 8007634:	42be      	cmp	r6, r7
 8007636:	680b      	ldr	r3, [r1, #0]
 8007638:	4682      	mov	sl, r0
 800763a:	460c      	mov	r4, r1
 800763c:	4690      	mov	r8, r2
 800763e:	d82d      	bhi.n	800769c <__ssputs_r+0x70>
 8007640:	f9b1 200c 	ldrsh.w	r2, [r1, #12]
 8007644:	f412 6f90 	tst.w	r2, #1152	@ 0x480
 8007648:	d026      	beq.n	8007698 <__ssputs_r+0x6c>
 800764a:	6965      	ldr	r5, [r4, #20]
 800764c:	6909      	ldr	r1, [r1, #16]
 800764e:	eb05 0545 	add.w	r5, r5, r5, lsl #1
 8007652:	eba3 0901 	sub.w	r9, r3, r1
 8007656:	eb05 75d5 	add.w	r5, r5, r5, lsr #31
 800765a:	1c7b      	adds	r3, r7, #1
 800765c:	444b      	add	r3, r9
 800765e:	106d      	asrs	r5, r5, #1
 8007660:	429d      	cmp	r5, r3
 8007662:	bf38      	it	cc
 8007664:	461d      	movcc	r5, r3
 8007666:	0553      	lsls	r3, r2, #21
 8007668:	d527      	bpl.n	80076ba <__ssputs_r+0x8e>
 800766a:	4629      	mov	r1, r5
 800766c:	f7ff ff52 	bl	8007514 <_malloc_r>
 8007670:	4606      	mov	r6, r0
 8007672:	b360      	cbz	r0, 80076ce <__ssputs_r+0xa2>
 8007674:	6921      	ldr	r1, [r4, #16]
 8007676:	464a      	mov	r2, r9
 8007678:	f7ff fed1 	bl	800741e <memcpy>
 800767c:	89a3      	ldrh	r3, [r4, #12]
 800767e:	f423 6390 	bic.w	r3, r3, #1152	@ 0x480
 8007682:	f043 0380 	orr.w	r3, r3, #128	@ 0x80
 8007686:	81a3      	strh	r3, [r4, #12]
 8007688:	6126      	str	r6, [r4, #16]
 800768a:	6165      	str	r5, [r4, #20]
 800768c:	444e      	add	r6, r9
 800768e:	eba5 0509 	sub.w	r5, r5, r9
 8007692:	6026      	str	r6, [r4, #0]
 8007694:	60a5      	str	r5, [r4, #8]
 8007696:	463e      	mov	r6, r7
 8007698:	42be      	cmp	r6, r7
 800769a:	d900      	bls.n	800769e <__ssputs_r+0x72>
 800769c:	463e      	mov	r6, r7
 800769e:	6820      	ldr	r0, [r4, #0]
 80076a0:	4632      	mov	r2, r6
 80076a2:	4641      	mov	r1, r8
 80076a4:	f000 fbb6 	bl	8007e14 <memmove>
 80076a8:	68a3      	ldr	r3, [r4, #8]
 80076aa:	1b9b      	subs	r3, r3, r6
 80076ac:	60a3      	str	r3, [r4, #8]
 80076ae:	6823      	ldr	r3, [r4, #0]
 80076b0:	4433      	add	r3, r6
 80076b2:	6023      	str	r3, [r4, #0]
 80076b4:	2000      	movs	r0, #0
 80076b6:	e8bd 87f0 	ldmia.w	sp!, {r4, r5, r6, r7, r8, r9, sl, pc}
 80076ba:	462a      	mov	r2, r5
 80076bc:	f000 fbf6 	bl	8007eac <_realloc_r>
 80076c0:	4606      	mov	r6, r0
 80076c2:	2800      	cmp	r0, #0
 80076c4:	d1e0      	bne.n	8007688 <__ssputs_r+0x5c>
 80076c6:	6921      	ldr	r1, [r4, #16]
 80076c8:	4650      	mov	r0, sl
 80076ca:	f7ff feb7 	bl	800743c <_free_r>
 80076ce:	230c      	movs	r3, #12
 80076d0:	f8ca 3000 	str.w	r3, [sl]
 80076d4:	89a3      	ldrh	r3, [r4, #12]
 80076d6:	f043 0340 	orr.w	r3, r3, #64	@ 0x40
 80076da:	81a3      	strh	r3, [r4, #12]
 80076dc:	f04f 30ff 	mov.w	r0, #4294967295
 80076e0:	e7e9      	b.n	80076b6 <__ssputs_r+0x8a>
	...

080076e4 <_svfiprintf_r>:
 80076e4:	e92d 4ff0 	stmdb	sp!, {r4, r5, r6, r7, r8, r9, sl, fp, lr}
 80076e8:	4698      	mov	r8, r3
 80076ea:	898b      	ldrh	r3, [r1, #12]
 80076ec:	061b      	lsls	r3, r3, #24
 80076ee:	b09d      	sub	sp, #116	@ 0x74
 80076f0:	4607      	mov	r7, r0
 80076f2:	460d      	mov	r5, r1
 80076f4:	4614      	mov	r4, r2
 80076f6:	d510      	bpl.n	800771a <_svfiprintf_r+0x36>
 80076f8:	690b      	ldr	r3, [r1, #16]
 80076fa:	b973      	cbnz	r3, 800771a <_svfiprintf_r+0x36>
 80076fc:	2140      	movs	r1, #64	@ 0x40
 80076fe:	f7ff ff09 	bl	8007514 <_malloc_r>
 8007702:	6028      	str	r0, [r5, #0]
 8007704:	6128      	str	r0, [r5, #16]
 8007706:	b930      	cbnz	r0, 8007716 <_svfiprintf_r+0x32>
 8007708:	230c      	movs	r3, #12
 800770a:	603b      	str	r3, [r7, #0]
 800770c:	f04f 30ff 	mov.w	r0, #4294967295
 8007710:	b01d      	add	sp, #116	@ 0x74
 8007712:	e8bd 8ff0 	ldmia.w	sp!, {r4, r5, r6, r7, r8, r9, sl, fp, pc}
 8007716:	2340      	movs	r3, #64	@ 0x40
 8007718:	616b      	str	r3, [r5, #20]
 800771a:	2300      	movs	r3, #0
 800771c:	9309      	str	r3, [sp, #36]	@ 0x24
 800771e:	2320      	movs	r3, #32
 8007720:	f88d 3029 	strb.w	r3, [sp, #41]	@ 0x29
 8007724:	f8cd 800c 	str.w	r8, [sp, #12]
 8007728:	2330      	movs	r3, #48	@ 0x30
 800772a:	f8df 819c 	ldr.w	r8, [pc, #412]	@ 80078c8 <_svfiprintf_r+0x1e4>
 800772e:	f88d 302a 	strb.w	r3, [sp, #42]	@ 0x2a
 8007732:	f04f 0901 	mov.w	r9, #1
 8007736:	4623      	mov	r3, r4
 8007738:	469a      	mov	sl, r3
 800773a:	f813 2b01 	ldrb.w	r2, [r3], #1
 800773e:	b10a      	cbz	r2, 8007744 <_svfiprintf_r+0x60>
 8007740:	2a25      	cmp	r2, #37	@ 0x25
 8007742:	d1f9      	bne.n	8007738 <_svfiprintf_r+0x54>
 8007744:	ebba 0b04 	subs.w	fp, sl, r4
 8007748:	d00b      	beq.n	8007762 <_svfiprintf_r+0x7e>
 800774a:	465b      	mov	r3, fp
 800774c:	4622      	mov	r2, r4
 800774e:	4629      	mov	r1, r5
 8007750:	4638      	mov	r0, r7
 8007752:	f7ff ff6b 	bl	800762c <__ssputs_r>
 8007756:	3001      	adds	r0, #1
 8007758:	f000 80a7 	beq.w	80078aa <_svfiprintf_r+0x1c6>
 800775c:	9a09      	ldr	r2, [sp, #36]	@ 0x24
 800775e:	445a      	add	r2, fp
 8007760:	9209      	str	r2, [sp, #36]	@ 0x24
 8007762:	f89a 3000 	ldrb.w	r3, [sl]
 8007766:	2b00      	cmp	r3, #0
 8007768:	f000 809f 	beq.w	80078aa <_svfiprintf_r+0x1c6>
 800776c:	2300      	movs	r3, #0
 800776e:	f04f 32ff 	mov.w	r2, #4294967295
 8007772:	e9cd 2305 	strd	r2, r3, [sp, #20]
 8007776:	f10a 0a01 	add.w	sl, sl, #1
 800777a:	9304      	str	r3, [sp, #16]
 800777c:	9307      	str	r3, [sp, #28]
 800777e:	f88d 3053 	strb.w	r3, [sp, #83]	@ 0x53
 8007782:	931a      	str	r3, [sp, #104]	@ 0x68
 8007784:	4654      	mov	r4, sl
 8007786:	2205      	movs	r2, #5
 8007788:	f814 1b01 	ldrb.w	r1, [r4], #1
 800778c:	484e      	ldr	r0, [pc, #312]	@ (80078c8 <_svfiprintf_r+0x1e4>)
 800778e:	f7f8 fd27 	bl	80001e0 <memchr>
 8007792:	9a04      	ldr	r2, [sp, #16]
 8007794:	b9d8      	cbnz	r0, 80077ce <_svfiprintf_r+0xea>
 8007796:	06d0      	lsls	r0, r2, #27
 8007798:	bf44      	itt	mi
 800779a:	2320      	movmi	r3, #32
 800779c:	f88d 3053 	strbmi.w	r3, [sp, #83]	@ 0x53
 80077a0:	0711      	lsls	r1, r2, #28
 80077a2:	bf44      	itt	mi
 80077a4:	232b      	movmi	r3, #43	@ 0x2b
 80077a6:	f88d 3053 	strbmi.w	r3, [sp, #83]	@ 0x53
 80077aa:	f89a 3000 	ldrb.w	r3, [sl]
 80077ae:	2b2a      	cmp	r3, #42	@ 0x2a
 80077b0:	d015      	beq.n	80077de <_svfiprintf_r+0xfa>
 80077b2:	9a07      	ldr	r2, [sp, #28]
 80077b4:	4654      	mov	r4, sl
 80077b6:	2000      	movs	r0, #0
 80077b8:	f04f 0c0a 	mov.w	ip, #10
 80077bc:	4621      	mov	r1, r4
 80077be:	f811 3b01 	ldrb.w	r3, [r1], #1
 80077c2:	3b30      	subs	r3, #48	@ 0x30
 80077c4:	2b09      	cmp	r3, #9
 80077c6:	d94b      	bls.n	8007860 <_svfiprintf_r+0x17c>
 80077c8:	b1b0      	cbz	r0, 80077f8 <_svfiprintf_r+0x114>
 80077ca:	9207      	str	r2, [sp, #28]
 80077cc:	e014      	b.n	80077f8 <_svfiprintf_r+0x114>
 80077ce:	eba0 0308 	sub.w	r3, r0, r8
 80077d2:	fa09 f303 	lsl.w	r3, r9, r3
 80077d6:	4313      	orrs	r3, r2
 80077d8:	9304      	str	r3, [sp, #16]
 80077da:	46a2      	mov	sl, r4
 80077dc:	e7d2      	b.n	8007784 <_svfiprintf_r+0xa0>
 80077de:	9b03      	ldr	r3, [sp, #12]
 80077e0:	1d19      	adds	r1, r3, #4
 80077e2:	681b      	ldr	r3, [r3, #0]
 80077e4:	9103      	str	r1, [sp, #12]
 80077e6:	2b00      	cmp	r3, #0
 80077e8:	bfbb      	ittet	lt
 80077ea:	425b      	neglt	r3, r3
 80077ec:	f042 0202 	orrlt.w	r2, r2, #2
 80077f0:	9307      	strge	r3, [sp, #28]
 80077f2:	9307      	strlt	r3, [sp, #28]
 80077f4:	bfb8      	it	lt
 80077f6:	9204      	strlt	r2, [sp, #16]
 80077f8:	7823      	ldrb	r3, [r4, #0]
 80077fa:	2b2e      	cmp	r3, #46	@ 0x2e
 80077fc:	d10a      	bne.n	8007814 <_svfiprintf_r+0x130>
 80077fe:	7863      	ldrb	r3, [r4, #1]
 8007800:	2b2a      	cmp	r3, #42	@ 0x2a
 8007802:	d132      	bne.n	800786a <_svfiprintf_r+0x186>
 8007804:	9b03      	ldr	r3, [sp, #12]
 8007806:	1d1a      	adds	r2, r3, #4
 8007808:	681b      	ldr	r3, [r3, #0]
 800780a:	9203      	str	r2, [sp, #12]
 800780c:	ea43 73e3 	orr.w	r3, r3, r3, asr #31
 8007810:	3402      	adds	r4, #2
 8007812:	9305      	str	r3, [sp, #20]
 8007814:	f8df a0c0 	ldr.w	sl, [pc, #192]	@ 80078d8 <_svfiprintf_r+0x1f4>
 8007818:	7821      	ldrb	r1, [r4, #0]
 800781a:	2203      	movs	r2, #3
 800781c:	4650      	mov	r0, sl
 800781e:	f7f8 fcdf 	bl	80001e0 <memchr>
 8007822:	b138      	cbz	r0, 8007834 <_svfiprintf_r+0x150>
 8007824:	9b04      	ldr	r3, [sp, #16]
 8007826:	eba0 000a 	sub.w	r0, r0, sl
 800782a:	2240      	movs	r2, #64	@ 0x40
 800782c:	4082      	lsls	r2, r0
 800782e:	4313      	orrs	r3, r2
 8007830:	3401      	adds	r4, #1
 8007832:	9304      	str	r3, [sp, #16]
 8007834:	f814 1b01 	ldrb.w	r1, [r4], #1
 8007838:	4824      	ldr	r0, [pc, #144]	@ (80078cc <_svfiprintf_r+0x1e8>)
 800783a:	f88d 1028 	strb.w	r1, [sp, #40]	@ 0x28
 800783e:	2206      	movs	r2, #6
 8007840:	f7f8 fcce 	bl	80001e0 <memchr>
 8007844:	2800      	cmp	r0, #0
 8007846:	d036      	beq.n	80078b6 <_svfiprintf_r+0x1d2>
 8007848:	4b21      	ldr	r3, [pc, #132]	@ (80078d0 <_svfiprintf_r+0x1ec>)
 800784a:	bb1b      	cbnz	r3, 8007894 <_svfiprintf_r+0x1b0>
 800784c:	9b03      	ldr	r3, [sp, #12]
 800784e:	3307      	adds	r3, #7
 8007850:	f023 0307 	bic.w	r3, r3, #7
 8007854:	3308      	adds	r3, #8
 8007856:	9303      	str	r3, [sp, #12]
 8007858:	9b09      	ldr	r3, [sp, #36]	@ 0x24
 800785a:	4433      	add	r3, r6
 800785c:	9309      	str	r3, [sp, #36]	@ 0x24
 800785e:	e76a      	b.n	8007736 <_svfiprintf_r+0x52>
 8007860:	fb0c 3202 	mla	r2, ip, r2, r3
 8007864:	460c      	mov	r4, r1
 8007866:	2001      	movs	r0, #1
 8007868:	e7a8      	b.n	80077bc <_svfiprintf_r+0xd8>
 800786a:	2300      	movs	r3, #0
 800786c:	3401      	adds	r4, #1
 800786e:	9305      	str	r3, [sp, #20]
 8007870:	4619      	mov	r1, r3
 8007872:	f04f 0c0a 	mov.w	ip, #10
 8007876:	4620      	mov	r0, r4
 8007878:	f810 2b01 	ldrb.w	r2, [r0], #1
 800787c:	3a30      	subs	r2, #48	@ 0x30
 800787e:	2a09      	cmp	r2, #9
 8007880:	d903      	bls.n	800788a <_svfiprintf_r+0x1a6>
 8007882:	2b00      	cmp	r3, #0
 8007884:	d0c6      	beq.n	8007814 <_svfiprintf_r+0x130>
 8007886:	9105      	str	r1, [sp, #20]
 8007888:	e7c4      	b.n	8007814 <_svfiprintf_r+0x130>
 800788a:	fb0c 2101 	mla	r1, ip, r1, r2
 800788e:	4604      	mov	r4, r0
 8007890:	2301      	movs	r3, #1
 8007892:	e7f0      	b.n	8007876 <_svfiprintf_r+0x192>
 8007894:	ab03      	add	r3, sp, #12
 8007896:	9300      	str	r3, [sp, #0]
 8007898:	462a      	mov	r2, r5
 800789a:	4b0e      	ldr	r3, [pc, #56]	@ (80078d4 <_svfiprintf_r+0x1f0>)
 800789c:	a904      	add	r1, sp, #16
 800789e:	4638      	mov	r0, r7
 80078a0:	f3af 8000 	nop.w
 80078a4:	1c42      	adds	r2, r0, #1
 80078a6:	4606      	mov	r6, r0
 80078a8:	d1d6      	bne.n	8007858 <_svfiprintf_r+0x174>
 80078aa:	89ab      	ldrh	r3, [r5, #12]
 80078ac:	065b      	lsls	r3, r3, #25
 80078ae:	f53f af2d 	bmi.w	800770c <_svfiprintf_r+0x28>
 80078b2:	9809      	ldr	r0, [sp, #36]	@ 0x24
 80078b4:	e72c      	b.n	8007710 <_svfiprintf_r+0x2c>
 80078b6:	ab03      	add	r3, sp, #12
 80078b8:	9300      	str	r3, [sp, #0]
 80078ba:	462a      	mov	r2, r5
 80078bc:	4b05      	ldr	r3, [pc, #20]	@ (80078d4 <_svfiprintf_r+0x1f0>)
 80078be:	a904      	add	r1, sp, #16
 80078c0:	4638      	mov	r0, r7
 80078c2:	f000 f879 	bl	80079b8 <_printf_i>
 80078c6:	e7ed      	b.n	80078a4 <_svfiprintf_r+0x1c0>
 80078c8:	080081dd 	.word	0x080081dd
 80078cc:	080081e7 	.word	0x080081e7
 80078d0:	00000000 	.word	0x00000000
 80078d4:	0800762d 	.word	0x0800762d
 80078d8:	080081e3 	.word	0x080081e3

080078dc <_printf_common>:
 80078dc:	e92d 47f0 	stmdb	sp!, {r4, r5, r6, r7, r8, r9, sl, lr}
 80078e0:	4616      	mov	r6, r2
 80078e2:	4698      	mov	r8, r3
 80078e4:	688a      	ldr	r2, [r1, #8]
 80078e6:	690b      	ldr	r3, [r1, #16]
 80078e8:	f8dd 9020 	ldr.w	r9, [sp, #32]
 80078ec:	4293      	cmp	r3, r2
 80078ee:	bfb8      	it	lt
 80078f0:	4613      	movlt	r3, r2
 80078f2:	6033      	str	r3, [r6, #0]
 80078f4:	f891 2043 	ldrb.w	r2, [r1, #67]	@ 0x43
 80078f8:	4607      	mov	r7, r0
 80078fa:	460c      	mov	r4, r1
 80078fc:	b10a      	cbz	r2, 8007902 <_printf_common+0x26>
 80078fe:	3301      	adds	r3, #1
 8007900:	6033      	str	r3, [r6, #0]
 8007902:	6823      	ldr	r3, [r4, #0]
 8007904:	0699      	lsls	r1, r3, #26
 8007906:	bf42      	ittt	mi
 8007908:	6833      	ldrmi	r3, [r6, #0]
 800790a:	3302      	addmi	r3, #2
 800790c:	6033      	strmi	r3, [r6, #0]
 800790e:	6825      	ldr	r5, [r4, #0]
 8007910:	f015 0506 	ands.w	r5, r5, #6
 8007914:	d106      	bne.n	8007924 <_printf_common+0x48>
 8007916:	f104 0a19 	add.w	sl, r4, #25
 800791a:	68e3      	ldr	r3, [r4, #12]
 800791c:	6832      	ldr	r2, [r6, #0]
 800791e:	1a9b      	subs	r3, r3, r2
 8007920:	42ab      	cmp	r3, r5
 8007922:	dc26      	bgt.n	8007972 <_printf_common+0x96>
 8007924:	f894 3043 	ldrb.w	r3, [r4, #67]	@ 0x43
 8007928:	6822      	ldr	r2, [r4, #0]
 800792a:	3b00      	subs	r3, #0
 800792c:	bf18      	it	ne
 800792e:	2301      	movne	r3, #1
 8007930:	0692      	lsls	r2, r2, #26
 8007932:	d42b      	bmi.n	800798c <_printf_common+0xb0>
 8007934:	f104 0243 	add.w	r2, r4, #67	@ 0x43
 8007938:	4641      	mov	r1, r8
 800793a:	4638      	mov	r0, r7
 800793c:	47c8      	blx	r9
 800793e:	3001      	adds	r0, #1
 8007940:	d01e      	beq.n	8007980 <_printf_common+0xa4>
 8007942:	6823      	ldr	r3, [r4, #0]
 8007944:	6922      	ldr	r2, [r4, #16]
 8007946:	f003 0306 	and.w	r3, r3, #6
 800794a:	2b04      	cmp	r3, #4
 800794c:	bf02      	ittt	eq
 800794e:	68e5      	ldreq	r5, [r4, #12]
 8007950:	6833      	ldreq	r3, [r6, #0]
 8007952:	1aed      	subeq	r5, r5, r3
 8007954:	68a3      	ldr	r3, [r4, #8]
 8007956:	bf0c      	ite	eq
 8007958:	ea25 75e5 	biceq.w	r5, r5, r5, asr #31
 800795c:	2500      	movne	r5, #0
 800795e:	4293      	cmp	r3, r2
 8007960:	bfc4      	itt	gt
 8007962:	1a9b      	subgt	r3, r3, r2
 8007964:	18ed      	addgt	r5, r5, r3
 8007966:	2600      	movs	r6, #0
 8007968:	341a      	adds	r4, #26
 800796a:	42b5      	cmp	r5, r6
 800796c:	d11a      	bne.n	80079a4 <_printf_common+0xc8>
 800796e:	2000      	movs	r0, #0
 8007970:	e008      	b.n	8007984 <_printf_common+0xa8>
 8007972:	2301      	movs	r3, #1
 8007974:	4652      	mov	r2, sl
 8007976:	4641      	mov	r1, r8
 8007978:	4638      	mov	r0, r7
 800797a:	47c8      	blx	r9
 800797c:	3001      	adds	r0, #1
 800797e:	d103      	bne.n	8007988 <_printf_common+0xac>
 8007980:	f04f 30ff 	mov.w	r0, #4294967295
 8007984:	e8bd 87f0 	ldmia.w	sp!, {r4, r5, r6, r7, r8, r9, sl, pc}
 8007988:	3501      	adds	r5, #1
 800798a:	e7c6      	b.n	800791a <_printf_common+0x3e>
 800798c:	18e1      	adds	r1, r4, r3
 800798e:	1c5a      	adds	r2, r3, #1
 8007990:	2030      	movs	r0, #48	@ 0x30
 8007992:	f881 0043 	strb.w	r0, [r1, #67]	@ 0x43
 8007996:	4422      	add	r2, r4
 8007998:	f894 1045 	ldrb.w	r1, [r4, #69]	@ 0x45
 800799c:	f882 1043 	strb.w	r1, [r2, #67]	@ 0x43
 80079a0:	3302      	adds	r3, #2
 80079a2:	e7c7      	b.n	8007934 <_printf_common+0x58>
 80079a4:	2301      	movs	r3, #1
 80079a6:	4622      	mov	r2, r4
 80079a8:	4641      	mov	r1, r8
 80079aa:	4638      	mov	r0, r7
 80079ac:	47c8      	blx	r9
 80079ae:	3001      	adds	r0, #1
 80079b0:	d0e6      	beq.n	8007980 <_printf_common+0xa4>
 80079b2:	3601      	adds	r6, #1
 80079b4:	e7d9      	b.n	800796a <_printf_common+0x8e>
	...

080079b8 <_printf_i>:
 80079b8:	e92d 47ff 	stmdb	sp!, {r0, r1, r2, r3, r4, r5, r6, r7, r8, r9, sl, lr}
 80079bc:	7e0f      	ldrb	r7, [r1, #24]
 80079be:	9e0c      	ldr	r6, [sp, #48]	@ 0x30
 80079c0:	2f78      	cmp	r7, #120	@ 0x78
 80079c2:	4691      	mov	r9, r2
 80079c4:	4680      	mov	r8, r0
 80079c6:	460c      	mov	r4, r1
 80079c8:	469a      	mov	sl, r3
 80079ca:	f101 0243 	add.w	r2, r1, #67	@ 0x43
 80079ce:	d807      	bhi.n	80079e0 <_printf_i+0x28>
 80079d0:	2f62      	cmp	r7, #98	@ 0x62
 80079d2:	d80a      	bhi.n	80079ea <_printf_i+0x32>
 80079d4:	2f00      	cmp	r7, #0
 80079d6:	f000 80d2 	beq.w	8007b7e <_printf_i+0x1c6>
 80079da:	2f58      	cmp	r7, #88	@ 0x58
 80079dc:	f000 80b9 	beq.w	8007b52 <_printf_i+0x19a>
 80079e0:	f104 0642 	add.w	r6, r4, #66	@ 0x42
 80079e4:	f884 7042 	strb.w	r7, [r4, #66]	@ 0x42
 80079e8:	e03a      	b.n	8007a60 <_printf_i+0xa8>
 80079ea:	f1a7 0363 	sub.w	r3, r7, #99	@ 0x63
 80079ee:	2b15      	cmp	r3, #21
 80079f0:	d8f6      	bhi.n	80079e0 <_printf_i+0x28>
 80079f2:	a101      	add	r1, pc, #4	@ (adr r1, 80079f8 <_printf_i+0x40>)
 80079f4:	f851 f023 	ldr.w	pc, [r1, r3, lsl #2]
 80079f8:	08007a51 	.word	0x08007a51
 80079fc:	08007a65 	.word	0x08007a65
 8007a00:	080079e1 	.word	0x080079e1
 8007a04:	080079e1 	.word	0x080079e1
 8007a08:	080079e1 	.word	0x080079e1
 8007a0c:	080079e1 	.word	0x080079e1
 8007a10:	08007a65 	.word	0x08007a65
 8007a14:	080079e1 	.word	0x080079e1
 8007a18:	080079e1 	.word	0x080079e1
 8007a1c:	080079e1 	.word	0x080079e1
 8007a20:	080079e1 	.word	0x080079e1
 8007a24:	08007b65 	.word	0x08007b65
 8007a28:	08007a8f 	.word	0x08007a8f
 8007a2c:	08007b1f 	.word	0x08007b1f
 8007a30:	080079e1 	.word	0x080079e1
 8007a34:	080079e1 	.word	0x080079e1
 8007a38:	08007b87 	.word	0x08007b87
 8007a3c:	080079e1 	.word	0x080079e1
 8007a40:	08007a8f 	.word	0x08007a8f
 8007a44:	080079e1 	.word	0x080079e1
 8007a48:	080079e1 	.word	0x080079e1
 8007a4c:	08007b27 	.word	0x08007b27
 8007a50:	6833      	ldr	r3, [r6, #0]
 8007a52:	1d1a      	adds	r2, r3, #4
 8007a54:	681b      	ldr	r3, [r3, #0]
 8007a56:	6032      	str	r2, [r6, #0]
 8007a58:	f104 0642 	add.w	r6, r4, #66	@ 0x42
 8007a5c:	f884 3042 	strb.w	r3, [r4, #66]	@ 0x42
 8007a60:	2301      	movs	r3, #1
 8007a62:	e09d      	b.n	8007ba0 <_printf_i+0x1e8>
 8007a64:	6833      	ldr	r3, [r6, #0]
 8007a66:	6820      	ldr	r0, [r4, #0]
 8007a68:	1d19      	adds	r1, r3, #4
 8007a6a:	6031      	str	r1, [r6, #0]
 8007a6c:	0606      	lsls	r6, r0, #24
 8007a6e:	d501      	bpl.n	8007a74 <_printf_i+0xbc>
 8007a70:	681d      	ldr	r5, [r3, #0]
 8007a72:	e003      	b.n	8007a7c <_printf_i+0xc4>
 8007a74:	0645      	lsls	r5, r0, #25
 8007a76:	d5fb      	bpl.n	8007a70 <_printf_i+0xb8>
 8007a78:	f9b3 5000 	ldrsh.w	r5, [r3]
 8007a7c:	2d00      	cmp	r5, #0
 8007a7e:	da03      	bge.n	8007a88 <_printf_i+0xd0>
 8007a80:	232d      	movs	r3, #45	@ 0x2d
 8007a82:	426d      	negs	r5, r5
 8007a84:	f884 3043 	strb.w	r3, [r4, #67]	@ 0x43
 8007a88:	4859      	ldr	r0, [pc, #356]	@ (8007bf0 <_printf_i+0x238>)
 8007a8a:	230a      	movs	r3, #10
 8007a8c:	e011      	b.n	8007ab2 <_printf_i+0xfa>
 8007a8e:	6821      	ldr	r1, [r4, #0]
 8007a90:	6833      	ldr	r3, [r6, #0]
 8007a92:	0608      	lsls	r0, r1, #24
 8007a94:	f853 5b04 	ldr.w	r5, [r3], #4
 8007a98:	d402      	bmi.n	8007aa0 <_printf_i+0xe8>
 8007a9a:	0649      	lsls	r1, r1, #25
 8007a9c:	bf48      	it	mi
 8007a9e:	b2ad      	uxthmi	r5, r5
 8007aa0:	2f6f      	cmp	r7, #111	@ 0x6f
 8007aa2:	4853      	ldr	r0, [pc, #332]	@ (8007bf0 <_printf_i+0x238>)
 8007aa4:	6033      	str	r3, [r6, #0]
 8007aa6:	bf14      	ite	ne
 8007aa8:	230a      	movne	r3, #10
 8007aaa:	2308      	moveq	r3, #8
 8007aac:	2100      	movs	r1, #0
 8007aae:	f884 1043 	strb.w	r1, [r4, #67]	@ 0x43
 8007ab2:	6866      	ldr	r6, [r4, #4]
 8007ab4:	60a6      	str	r6, [r4, #8]
 8007ab6:	2e00      	cmp	r6, #0
 8007ab8:	bfa2      	ittt	ge
 8007aba:	6821      	ldrge	r1, [r4, #0]
 8007abc:	f021 0104 	bicge.w	r1, r1, #4
 8007ac0:	6021      	strge	r1, [r4, #0]
 8007ac2:	b90d      	cbnz	r5, 8007ac8 <_printf_i+0x110>
 8007ac4:	2e00      	cmp	r6, #0
 8007ac6:	d04b      	beq.n	8007b60 <_printf_i+0x1a8>
 8007ac8:	4616      	mov	r6, r2
 8007aca:	fbb5 f1f3 	udiv	r1, r5, r3
 8007ace:	fb03 5711 	mls	r7, r3, r1, r5
 8007ad2:	5dc7      	ldrb	r7, [r0, r7]
 8007ad4:	f806 7d01 	strb.w	r7, [r6, #-1]!
 8007ad8:	462f      	mov	r7, r5
 8007ada:	42bb      	cmp	r3, r7
 8007adc:	460d      	mov	r5, r1
 8007ade:	d9f4      	bls.n	8007aca <_printf_i+0x112>
 8007ae0:	2b08      	cmp	r3, #8
 8007ae2:	d10b      	bne.n	8007afc <_printf_i+0x144>
 8007ae4:	6823      	ldr	r3, [r4, #0]
 8007ae6:	07df      	lsls	r7, r3, #31
 8007ae8:	d508      	bpl.n	8007afc <_printf_i+0x144>
 8007aea:	6923      	ldr	r3, [r4, #16]
 8007aec:	6861      	ldr	r1, [r4, #4]
 8007aee:	4299      	cmp	r1, r3
 8007af0:	bfde      	ittt	le
 8007af2:	2330      	movle	r3, #48	@ 0x30
 8007af4:	f806 3c01 	strble.w	r3, [r6, #-1]
 8007af8:	f106 36ff 	addle.w	r6, r6, #4294967295
 8007afc:	1b92      	subs	r2, r2, r6
 8007afe:	6122      	str	r2, [r4, #16]
 8007b00:	f8cd a000 	str.w	sl, [sp]
 8007b04:	464b      	mov	r3, r9
 8007b06:	aa03      	add	r2, sp, #12
 8007b08:	4621      	mov	r1, r4
 8007b0a:	4640      	mov	r0, r8
 8007b0c:	f7ff fee6 	bl	80078dc <_printf_common>
 8007b10:	3001      	adds	r0, #1
 8007b12:	d14a      	bne.n	8007baa <_printf_i+0x1f2>
 8007b14:	f04f 30ff 	mov.w	r0, #4294967295
 8007b18:	b004      	add	sp, #16
 8007b1a:	e8bd 87f0 	ldmia.w	sp!, {r4, r5, r6, r7, r8, r9, sl, pc}
 8007b1e:	6823      	ldr	r3, [r4, #0]
 8007b20:	f043 0320 	orr.w	r3, r3, #32
 8007b24:	6023      	str	r3, [r4, #0]
 8007b26:	4833      	ldr	r0, [pc, #204]	@ (8007bf4 <_printf_i+0x23c>)
 8007b28:	2778      	movs	r7, #120	@ 0x78
 8007b2a:	f884 7045 	strb.w	r7, [r4, #69]	@ 0x45
 8007b2e:	6823      	ldr	r3, [r4, #0]
 8007b30:	6831      	ldr	r1, [r6, #0]
 8007b32:	061f      	lsls	r7, r3, #24
 8007b34:	f851 5b04 	ldr.w	r5, [r1], #4
 8007b38:	d402      	bmi.n	8007b40 <_printf_i+0x188>
 8007b3a:	065f      	lsls	r7, r3, #25
 8007b3c:	bf48      	it	mi
 8007b3e:	b2ad      	uxthmi	r5, r5
 8007b40:	6031      	str	r1, [r6, #0]
 8007b42:	07d9      	lsls	r1, r3, #31
 8007b44:	bf44      	itt	mi
 8007b46:	f043 0320 	orrmi.w	r3, r3, #32
 8007b4a:	6023      	strmi	r3, [r4, #0]
 8007b4c:	b11d      	cbz	r5, 8007b56 <_printf_i+0x19e>
 8007b4e:	2310      	movs	r3, #16
 8007b50:	e7ac      	b.n	8007aac <_printf_i+0xf4>
 8007b52:	4827      	ldr	r0, [pc, #156]	@ (8007bf0 <_printf_i+0x238>)
 8007b54:	e7e9      	b.n	8007b2a <_printf_i+0x172>
 8007b56:	6823      	ldr	r3, [r4, #0]
 8007b58:	f023 0320 	bic.w	r3, r3, #32
 8007b5c:	6023      	str	r3, [r4, #0]
 8007b5e:	e7f6      	b.n	8007b4e <_printf_i+0x196>
 8007b60:	4616      	mov	r6, r2
 8007b62:	e7bd      	b.n	8007ae0 <_printf_i+0x128>
 8007b64:	6833      	ldr	r3, [r6, #0]
 8007b66:	6825      	ldr	r5, [r4, #0]
 8007b68:	6961      	ldr	r1, [r4, #20]
 8007b6a:	1d18      	adds	r0, r3, #4
 8007b6c:	6030      	str	r0, [r6, #0]
 8007b6e:	062e      	lsls	r6, r5, #24
 8007b70:	681b      	ldr	r3, [r3, #0]
 8007b72:	d501      	bpl.n	8007b78 <_printf_i+0x1c0>
 8007b74:	6019      	str	r1, [r3, #0]
 8007b76:	e002      	b.n	8007b7e <_printf_i+0x1c6>
 8007b78:	0668      	lsls	r0, r5, #25
 8007b7a:	d5fb      	bpl.n	8007b74 <_printf_i+0x1bc>
 8007b7c:	8019      	strh	r1, [r3, #0]
 8007b7e:	2300      	movs	r3, #0
 8007b80:	6123      	str	r3, [r4, #16]
 8007b82:	4616      	mov	r6, r2
 8007b84:	e7bc      	b.n	8007b00 <_printf_i+0x148>
 8007b86:	6833      	ldr	r3, [r6, #0]
 8007b88:	1d1a      	adds	r2, r3, #4
 8007b8a:	6032      	str	r2, [r6, #0]
 8007b8c:	681e      	ldr	r6, [r3, #0]
 8007b8e:	6862      	ldr	r2, [r4, #4]
 8007b90:	2100      	movs	r1, #0
 8007b92:	4630      	mov	r0, r6
 8007b94:	f7f8 fb24 	bl	80001e0 <memchr>
 8007b98:	b108      	cbz	r0, 8007b9e <_printf_i+0x1e6>
 8007b9a:	1b80      	subs	r0, r0, r6
 8007b9c:	6060      	str	r0, [r4, #4]
 8007b9e:	6863      	ldr	r3, [r4, #4]
 8007ba0:	6123      	str	r3, [r4, #16]
 8007ba2:	2300      	movs	r3, #0
 8007ba4:	f884 3043 	strb.w	r3, [r4, #67]	@ 0x43
 8007ba8:	e7aa      	b.n	8007b00 <_printf_i+0x148>
 8007baa:	6923      	ldr	r3, [r4, #16]
 8007bac:	4632      	mov	r2, r6
 8007bae:	4649      	mov	r1, r9
 8007bb0:	4640      	mov	r0, r8
 8007bb2:	47d0      	blx	sl
 8007bb4:	3001      	adds	r0, #1
 8007bb6:	d0ad      	beq.n	8007b14 <_printf_i+0x15c>
 8007bb8:	6823      	ldr	r3, [r4, #0]
 8007bba:	079b      	lsls	r3, r3, #30
 8007bbc:	d413      	bmi.n	8007be6 <_printf_i+0x22e>
 8007bbe:	68e0      	ldr	r0, [r4, #12]
 8007bc0:	9b03      	ldr	r3, [sp, #12]
 8007bc2:	4298      	cmp	r0, r3
 8007bc4:	bfb8      	it	lt
 8007bc6:	4618      	movlt	r0, r3
 8007bc8:	e7a6      	b.n	8007b18 <_printf_i+0x160>
 8007bca:	2301      	movs	r3, #1
 8007bcc:	4632      	mov	r2, r6
 8007bce:	4649      	mov	r1, r9
 8007bd0:	4640      	mov	r0, r8
 8007bd2:	47d0      	blx	sl
 8007bd4:	3001      	adds	r0, #1
 8007bd6:	d09d      	beq.n	8007b14 <_printf_i+0x15c>
 8007bd8:	3501      	adds	r5, #1
 8007bda:	68e3      	ldr	r3, [r4, #12]
 8007bdc:	9903      	ldr	r1, [sp, #12]
 8007bde:	1a5b      	subs	r3, r3, r1
 8007be0:	42ab      	cmp	r3, r5
 8007be2:	dcf2      	bgt.n	8007bca <_printf_i+0x212>
 8007be4:	e7eb      	b.n	8007bbe <_printf_i+0x206>
 8007be6:	2500      	movs	r5, #0
 8007be8:	f104 0619 	add.w	r6, r4, #25
 8007bec:	e7f5      	b.n	8007bda <_printf_i+0x222>
 8007bee:	bf00      	nop
 8007bf0:	080081ee 	.word	0x080081ee
 8007bf4:	080081ff 	.word	0x080081ff

08007bf8 <__sflush_r>:
 8007bf8:	f9b1 200c 	ldrsh.w	r2, [r1, #12]
 8007bfc:	e92d 41f0 	stmdb	sp!, {r4, r5, r6, r7, r8, lr}
 8007c00:	0716      	lsls	r6, r2, #28
 8007c02:	4605      	mov	r5, r0
 8007c04:	460c      	mov	r4, r1
 8007c06:	d454      	bmi.n	8007cb2 <__sflush_r+0xba>
 8007c08:	684b      	ldr	r3, [r1, #4]
 8007c0a:	2b00      	cmp	r3, #0
 8007c0c:	dc02      	bgt.n	8007c14 <__sflush_r+0x1c>
 8007c0e:	6c0b      	ldr	r3, [r1, #64]	@ 0x40
 8007c10:	2b00      	cmp	r3, #0
 8007c12:	dd48      	ble.n	8007ca6 <__sflush_r+0xae>
 8007c14:	6ae6      	ldr	r6, [r4, #44]	@ 0x2c
 8007c16:	2e00      	cmp	r6, #0
 8007c18:	d045      	beq.n	8007ca6 <__sflush_r+0xae>
 8007c1a:	2300      	movs	r3, #0
 8007c1c:	f412 5280 	ands.w	r2, r2, #4096	@ 0x1000
 8007c20:	682f      	ldr	r7, [r5, #0]
 8007c22:	6a21      	ldr	r1, [r4, #32]
 8007c24:	602b      	str	r3, [r5, #0]
 8007c26:	d030      	beq.n	8007c8a <__sflush_r+0x92>
 8007c28:	6d62      	ldr	r2, [r4, #84]	@ 0x54
 8007c2a:	89a3      	ldrh	r3, [r4, #12]
 8007c2c:	0759      	lsls	r1, r3, #29
 8007c2e:	d505      	bpl.n	8007c3c <__sflush_r+0x44>
 8007c30:	6863      	ldr	r3, [r4, #4]
 8007c32:	1ad2      	subs	r2, r2, r3
 8007c34:	6b63      	ldr	r3, [r4, #52]	@ 0x34
 8007c36:	b10b      	cbz	r3, 8007c3c <__sflush_r+0x44>
 8007c38:	6c23      	ldr	r3, [r4, #64]	@ 0x40
 8007c3a:	1ad2      	subs	r2, r2, r3
 8007c3c:	2300      	movs	r3, #0
 8007c3e:	6ae6      	ldr	r6, [r4, #44]	@ 0x2c
 8007c40:	6a21      	ldr	r1, [r4, #32]
 8007c42:	4628      	mov	r0, r5
 8007c44:	47b0      	blx	r6
 8007c46:	1c43      	adds	r3, r0, #1
 8007c48:	89a3      	ldrh	r3, [r4, #12]
 8007c4a:	d106      	bne.n	8007c5a <__sflush_r+0x62>
 8007c4c:	6829      	ldr	r1, [r5, #0]
 8007c4e:	291d      	cmp	r1, #29
 8007c50:	d82b      	bhi.n	8007caa <__sflush_r+0xb2>
 8007c52:	4a2a      	ldr	r2, [pc, #168]	@ (8007cfc <__sflush_r+0x104>)
 8007c54:	410a      	asrs	r2, r1
 8007c56:	07d6      	lsls	r6, r2, #31
 8007c58:	d427      	bmi.n	8007caa <__sflush_r+0xb2>
 8007c5a:	2200      	movs	r2, #0
 8007c5c:	6062      	str	r2, [r4, #4]
 8007c5e:	04d9      	lsls	r1, r3, #19
 8007c60:	6922      	ldr	r2, [r4, #16]
 8007c62:	6022      	str	r2, [r4, #0]
 8007c64:	d504      	bpl.n	8007c70 <__sflush_r+0x78>
 8007c66:	1c42      	adds	r2, r0, #1
 8007c68:	d101      	bne.n	8007c6e <__sflush_r+0x76>
 8007c6a:	682b      	ldr	r3, [r5, #0]
 8007c6c:	b903      	cbnz	r3, 8007c70 <__sflush_r+0x78>
 8007c6e:	6560      	str	r0, [r4, #84]	@ 0x54
 8007c70:	6b61      	ldr	r1, [r4, #52]	@ 0x34
 8007c72:	602f      	str	r7, [r5, #0]
 8007c74:	b1b9      	cbz	r1, 8007ca6 <__sflush_r+0xae>
 8007c76:	f104 0344 	add.w	r3, r4, #68	@ 0x44
 8007c7a:	4299      	cmp	r1, r3
 8007c7c:	d002      	beq.n	8007c84 <__sflush_r+0x8c>
 8007c7e:	4628      	mov	r0, r5
 8007c80:	f7ff fbdc 	bl	800743c <_free_r>
 8007c84:	2300      	movs	r3, #0
 8007c86:	6363      	str	r3, [r4, #52]	@ 0x34
 8007c88:	e00d      	b.n	8007ca6 <__sflush_r+0xae>
 8007c8a:	2301      	movs	r3, #1
 8007c8c:	4628      	mov	r0, r5
 8007c8e:	47b0      	blx	r6
 8007c90:	4602      	mov	r2, r0
 8007c92:	1c50      	adds	r0, r2, #1
 8007c94:	d1c9      	bne.n	8007c2a <__sflush_r+0x32>
 8007c96:	682b      	ldr	r3, [r5, #0]
 8007c98:	2b00      	cmp	r3, #0
 8007c9a:	d0c6      	beq.n	8007c2a <__sflush_r+0x32>
 8007c9c:	2b1d      	cmp	r3, #29
 8007c9e:	d001      	beq.n	8007ca4 <__sflush_r+0xac>
 8007ca0:	2b16      	cmp	r3, #22
 8007ca2:	d11e      	bne.n	8007ce2 <__sflush_r+0xea>
 8007ca4:	602f      	str	r7, [r5, #0]
 8007ca6:	2000      	movs	r0, #0
 8007ca8:	e022      	b.n	8007cf0 <__sflush_r+0xf8>
 8007caa:	f043 0340 	orr.w	r3, r3, #64	@ 0x40
 8007cae:	b21b      	sxth	r3, r3
 8007cb0:	e01b      	b.n	8007cea <__sflush_r+0xf2>
 8007cb2:	690f      	ldr	r7, [r1, #16]
 8007cb4:	2f00      	cmp	r7, #0
 8007cb6:	d0f6      	beq.n	8007ca6 <__sflush_r+0xae>
 8007cb8:	0793      	lsls	r3, r2, #30
 8007cba:	680e      	ldr	r6, [r1, #0]
 8007cbc:	bf08      	it	eq
 8007cbe:	694b      	ldreq	r3, [r1, #20]
 8007cc0:	600f      	str	r7, [r1, #0]
 8007cc2:	bf18      	it	ne
 8007cc4:	2300      	movne	r3, #0
 8007cc6:	eba6 0807 	sub.w	r8, r6, r7
 8007cca:	608b      	str	r3, [r1, #8]
 8007ccc:	f1b8 0f00 	cmp.w	r8, #0
 8007cd0:	dde9      	ble.n	8007ca6 <__sflush_r+0xae>
 8007cd2:	6a21      	ldr	r1, [r4, #32]
 8007cd4:	6aa6      	ldr	r6, [r4, #40]	@ 0x28
 8007cd6:	4643      	mov	r3, r8
 8007cd8:	463a      	mov	r2, r7
 8007cda:	4628      	mov	r0, r5
 8007cdc:	47b0      	blx	r6
 8007cde:	2800      	cmp	r0, #0
 8007ce0:	dc08      	bgt.n	8007cf4 <__sflush_r+0xfc>
 8007ce2:	f9b4 300c 	ldrsh.w	r3, [r4, #12]
 8007ce6:	f043 0340 	orr.w	r3, r3, #64	@ 0x40
 8007cea:	81a3      	strh	r3, [r4, #12]
 8007cec:	f04f 30ff 	mov.w	r0, #4294967295
 8007cf0:	e8bd 81f0 	ldmia.w	sp!, {r4, r5, r6, r7, r8, pc}
 8007cf4:	4407      	add	r7, r0
 8007cf6:	eba8 0800 	sub.w	r8, r8, r0
 8007cfa:	e7e7      	b.n	8007ccc <__sflush_r+0xd4>
 8007cfc:	dfbffffe 	.word	0xdfbffffe

08007d00 <_fflush_r>:
 8007d00:	b538      	push	{r3, r4, r5, lr}
 8007d02:	690b      	ldr	r3, [r1, #16]
 8007d04:	4605      	mov	r5, r0
 8007d06:	460c      	mov	r4, r1
 8007d08:	b913      	cbnz	r3, 8007d10 <_fflush_r+0x10>
 8007d0a:	2500      	movs	r5, #0
 8007d0c:	4628      	mov	r0, r5
 8007d0e:	bd38      	pop	{r3, r4, r5, pc}
 8007d10:	b118      	cbz	r0, 8007d1a <_fflush_r+0x1a>
 8007d12:	6a03      	ldr	r3, [r0, #32]
 8007d14:	b90b      	cbnz	r3, 8007d1a <_fflush_r+0x1a>
 8007d16:	f7ff f911 	bl	8006f3c <__sinit>
 8007d1a:	f9b4 300c 	ldrsh.w	r3, [r4, #12]
 8007d1e:	2b00      	cmp	r3, #0
 8007d20:	d0f3      	beq.n	8007d0a <_fflush_r+0xa>
 8007d22:	6e62      	ldr	r2, [r4, #100]	@ 0x64
 8007d24:	07d0      	lsls	r0, r2, #31
 8007d26:	d404      	bmi.n	8007d32 <_fflush_r+0x32>
 8007d28:	0599      	lsls	r1, r3, #22
 8007d2a:	d402      	bmi.n	8007d32 <_fflush_r+0x32>
 8007d2c:	6da0      	ldr	r0, [r4, #88]	@ 0x58
 8007d2e:	f7ff fb74 	bl	800741a <__retarget_lock_acquire_recursive>
 8007d32:	4628      	mov	r0, r5
 8007d34:	4621      	mov	r1, r4
 8007d36:	f7ff ff5f 	bl	8007bf8 <__sflush_r>
 8007d3a:	6e63      	ldr	r3, [r4, #100]	@ 0x64
 8007d3c:	07da      	lsls	r2, r3, #31
 8007d3e:	4605      	mov	r5, r0
 8007d40:	d4e4      	bmi.n	8007d0c <_fflush_r+0xc>
 8007d42:	89a3      	ldrh	r3, [r4, #12]
 8007d44:	059b      	lsls	r3, r3, #22
 8007d46:	d4e1      	bmi.n	8007d0c <_fflush_r+0xc>
 8007d48:	6da0      	ldr	r0, [r4, #88]	@ 0x58
 8007d4a:	f7ff fb67 	bl	800741c <__retarget_lock_release_recursive>
 8007d4e:	e7dd      	b.n	8007d0c <_fflush_r+0xc>

08007d50 <__swhatbuf_r>:
 8007d50:	b570      	push	{r4, r5, r6, lr}
 8007d52:	460c      	mov	r4, r1
 8007d54:	f9b1 100e 	ldrsh.w	r1, [r1, #14]
 8007d58:	2900      	cmp	r1, #0
 8007d5a:	b096      	sub	sp, #88	@ 0x58
 8007d5c:	4615      	mov	r5, r2
 8007d5e:	461e      	mov	r6, r3
 8007d60:	da0d      	bge.n	8007d7e <__swhatbuf_r+0x2e>
 8007d62:	89a3      	ldrh	r3, [r4, #12]
 8007d64:	f013 0f80 	tst.w	r3, #128	@ 0x80
 8007d68:	f04f 0100 	mov.w	r1, #0
 8007d6c:	bf14      	ite	ne
 8007d6e:	2340      	movne	r3, #64	@ 0x40
 8007d70:	f44f 6380 	moveq.w	r3, #1024	@ 0x400
 8007d74:	2000      	movs	r0, #0
 8007d76:	6031      	str	r1, [r6, #0]
 8007d78:	602b      	str	r3, [r5, #0]
 8007d7a:	b016      	add	sp, #88	@ 0x58
 8007d7c:	bd70      	pop	{r4, r5, r6, pc}
 8007d7e:	466a      	mov	r2, sp
 8007d80:	f000 f862 	bl	8007e48 <_fstat_r>
 8007d84:	2800      	cmp	r0, #0
 8007d86:	dbec      	blt.n	8007d62 <__swhatbuf_r+0x12>
 8007d88:	9901      	ldr	r1, [sp, #4]
 8007d8a:	f401 4170 	and.w	r1, r1, #61440	@ 0xf000
 8007d8e:	f5a1 5300 	sub.w	r3, r1, #8192	@ 0x2000
 8007d92:	4259      	negs	r1, r3
 8007d94:	4159      	adcs	r1, r3
 8007d96:	f44f 6380 	mov.w	r3, #1024	@ 0x400
 8007d9a:	e7eb      	b.n	8007d74 <__swhatbuf_r+0x24>

08007d9c <__smakebuf_r>:
 8007d9c:	898b      	ldrh	r3, [r1, #12]
 8007d9e:	b5f7      	push	{r0, r1, r2, r4, r5, r6, r7, lr}
 8007da0:	079d      	lsls	r5, r3, #30
 8007da2:	4606      	mov	r6, r0
 8007da4:	460c      	mov	r4, r1
 8007da6:	d507      	bpl.n	8007db8 <__smakebuf_r+0x1c>
 8007da8:	f104 0347 	add.w	r3, r4, #71	@ 0x47
 8007dac:	6023      	str	r3, [r4, #0]
 8007dae:	6123      	str	r3, [r4, #16]
 8007db0:	2301      	movs	r3, #1
 8007db2:	6163      	str	r3, [r4, #20]
 8007db4:	b003      	add	sp, #12
 8007db6:	bdf0      	pop	{r4, r5, r6, r7, pc}
 8007db8:	ab01      	add	r3, sp, #4
 8007dba:	466a      	mov	r2, sp
 8007dbc:	f7ff ffc8 	bl	8007d50 <__swhatbuf_r>
 8007dc0:	9f00      	ldr	r7, [sp, #0]
 8007dc2:	4605      	mov	r5, r0
 8007dc4:	4639      	mov	r1, r7
 8007dc6:	4630      	mov	r0, r6
 8007dc8:	f7ff fba4 	bl	8007514 <_malloc_r>
 8007dcc:	b948      	cbnz	r0, 8007de2 <__smakebuf_r+0x46>
 8007dce:	f9b4 300c 	ldrsh.w	r3, [r4, #12]
 8007dd2:	059a      	lsls	r2, r3, #22
 8007dd4:	d4ee      	bmi.n	8007db4 <__smakebuf_r+0x18>
 8007dd6:	f023 0303 	bic.w	r3, r3, #3
 8007dda:	f043 0302 	orr.w	r3, r3, #2
 8007dde:	81a3      	strh	r3, [r4, #12]
 8007de0:	e7e2      	b.n	8007da8 <__smakebuf_r+0xc>
 8007de2:	89a3      	ldrh	r3, [r4, #12]
 8007de4:	6020      	str	r0, [r4, #0]
 8007de6:	f043 0380 	orr.w	r3, r3, #128	@ 0x80
 8007dea:	81a3      	strh	r3, [r4, #12]
 8007dec:	9b01      	ldr	r3, [sp, #4]
 8007dee:	e9c4 0704 	strd	r0, r7, [r4, #16]
 8007df2:	b15b      	cbz	r3, 8007e0c <__smakebuf_r+0x70>
 8007df4:	f9b4 100e 	ldrsh.w	r1, [r4, #14]
 8007df8:	4630      	mov	r0, r6
 8007dfa:	f000 f837 	bl	8007e6c <_isatty_r>
 8007dfe:	b128      	cbz	r0, 8007e0c <__smakebuf_r+0x70>
 8007e00:	89a3      	ldrh	r3, [r4, #12]
 8007e02:	f023 0303 	bic.w	r3, r3, #3
 8007e06:	f043 0301 	orr.w	r3, r3, #1
 8007e0a:	81a3      	strh	r3, [r4, #12]
 8007e0c:	89a3      	ldrh	r3, [r4, #12]
 8007e0e:	431d      	orrs	r5, r3
 8007e10:	81a5      	strh	r5, [r4, #12]
 8007e12:	e7cf      	b.n	8007db4 <__smakebuf_r+0x18>

08007e14 <memmove>:
 8007e14:	4288      	cmp	r0, r1
 8007e16:	b510      	push	{r4, lr}
 8007e18:	eb01 0402 	add.w	r4, r1, r2
 8007e1c:	d902      	bls.n	8007e24 <memmove+0x10>
 8007e1e:	4284      	cmp	r4, r0
 8007e20:	4623      	mov	r3, r4
 8007e22:	d807      	bhi.n	8007e34 <memmove+0x20>
 8007e24:	1e43      	subs	r3, r0, #1
 8007e26:	42a1      	cmp	r1, r4
 8007e28:	d008      	beq.n	8007e3c <memmove+0x28>
 8007e2a:	f811 2b01 	ldrb.w	r2, [r1], #1
 8007e2e:	f803 2f01 	strb.w	r2, [r3, #1]!
 8007e32:	e7f8      	b.n	8007e26 <memmove+0x12>
 8007e34:	4402      	add	r2, r0
 8007e36:	4601      	mov	r1, r0
 8007e38:	428a      	cmp	r2, r1
 8007e3a:	d100      	bne.n	8007e3e <memmove+0x2a>
 8007e3c:	bd10      	pop	{r4, pc}
 8007e3e:	f813 4d01 	ldrb.w	r4, [r3, #-1]!
 8007e42:	f802 4d01 	strb.w	r4, [r2, #-1]!
 8007e46:	e7f7      	b.n	8007e38 <memmove+0x24>

08007e48 <_fstat_r>:
 8007e48:	b538      	push	{r3, r4, r5, lr}
 8007e4a:	4d07      	ldr	r5, [pc, #28]	@ (8007e68 <_fstat_r+0x20>)
 8007e4c:	2300      	movs	r3, #0
 8007e4e:	4604      	mov	r4, r0
 8007e50:	4608      	mov	r0, r1
 8007e52:	4611      	mov	r1, r2
 8007e54:	602b      	str	r3, [r5, #0]
 8007e56:	f7f9 fa82 	bl	800135e <_fstat>
 8007e5a:	1c43      	adds	r3, r0, #1
 8007e5c:	d102      	bne.n	8007e64 <_fstat_r+0x1c>
 8007e5e:	682b      	ldr	r3, [r5, #0]
 8007e60:	b103      	cbz	r3, 8007e64 <_fstat_r+0x1c>
 8007e62:	6023      	str	r3, [r4, #0]
 8007e64:	bd38      	pop	{r3, r4, r5, pc}
 8007e66:	bf00      	nop
 8007e68:	20001628 	.word	0x20001628

08007e6c <_isatty_r>:
 8007e6c:	b538      	push	{r3, r4, r5, lr}
 8007e6e:	4d06      	ldr	r5, [pc, #24]	@ (8007e88 <_isatty_r+0x1c>)
 8007e70:	2300      	movs	r3, #0
 8007e72:	4604      	mov	r4, r0
 8007e74:	4608      	mov	r0, r1
 8007e76:	602b      	str	r3, [r5, #0]
 8007e78:	f7f9 fa81 	bl	800137e <_isatty>
 8007e7c:	1c43      	adds	r3, r0, #1
 8007e7e:	d102      	bne.n	8007e86 <_isatty_r+0x1a>
 8007e80:	682b      	ldr	r3, [r5, #0]
 8007e82:	b103      	cbz	r3, 8007e86 <_isatty_r+0x1a>
 8007e84:	6023      	str	r3, [r4, #0]
 8007e86:	bd38      	pop	{r3, r4, r5, pc}
 8007e88:	20001628 	.word	0x20001628

08007e8c <_sbrk_r>:
 8007e8c:	b538      	push	{r3, r4, r5, lr}
 8007e8e:	4d06      	ldr	r5, [pc, #24]	@ (8007ea8 <_sbrk_r+0x1c>)
 8007e90:	2300      	movs	r3, #0
 8007e92:	4604      	mov	r4, r0
 8007e94:	4608      	mov	r0, r1
 8007e96:	602b      	str	r3, [r5, #0]
 8007e98:	f7f9 fa8a 	bl	80013b0 <_sbrk>
 8007e9c:	1c43      	adds	r3, r0, #1
 8007e9e:	d102      	bne.n	8007ea6 <_sbrk_r+0x1a>
 8007ea0:	682b      	ldr	r3, [r5, #0]
 8007ea2:	b103      	cbz	r3, 8007ea6 <_sbrk_r+0x1a>
 8007ea4:	6023      	str	r3, [r4, #0]
 8007ea6:	bd38      	pop	{r3, r4, r5, pc}
 8007ea8:	20001628 	.word	0x20001628

08007eac <_realloc_r>:
 8007eac:	e92d 41f0 	stmdb	sp!, {r4, r5, r6, r7, r8, lr}
 8007eb0:	4680      	mov	r8, r0
 8007eb2:	4615      	mov	r5, r2
 8007eb4:	460c      	mov	r4, r1
 8007eb6:	b921      	cbnz	r1, 8007ec2 <_realloc_r+0x16>
 8007eb8:	e8bd 41f0 	ldmia.w	sp!, {r4, r5, r6, r7, r8, lr}
 8007ebc:	4611      	mov	r1, r2
 8007ebe:	f7ff bb29 	b.w	8007514 <_malloc_r>
 8007ec2:	b92a      	cbnz	r2, 8007ed0 <_realloc_r+0x24>
 8007ec4:	f7ff faba 	bl	800743c <_free_r>
 8007ec8:	2400      	movs	r4, #0
 8007eca:	4620      	mov	r0, r4
 8007ecc:	e8bd 81f0 	ldmia.w	sp!, {r4, r5, r6, r7, r8, pc}
 8007ed0:	f000 f81a 	bl	8007f08 <_malloc_usable_size_r>
 8007ed4:	4285      	cmp	r5, r0
 8007ed6:	4606      	mov	r6, r0
 8007ed8:	d802      	bhi.n	8007ee0 <_realloc_r+0x34>
 8007eda:	ebb5 0f50 	cmp.w	r5, r0, lsr #1
 8007ede:	d8f4      	bhi.n	8007eca <_realloc_r+0x1e>
 8007ee0:	4629      	mov	r1, r5
 8007ee2:	4640      	mov	r0, r8
 8007ee4:	f7ff fb16 	bl	8007514 <_malloc_r>
 8007ee8:	4607      	mov	r7, r0
 8007eea:	2800      	cmp	r0, #0
 8007eec:	d0ec      	beq.n	8007ec8 <_realloc_r+0x1c>
 8007eee:	42b5      	cmp	r5, r6
 8007ef0:	462a      	mov	r2, r5
 8007ef2:	4621      	mov	r1, r4
 8007ef4:	bf28      	it	cs
 8007ef6:	4632      	movcs	r2, r6
 8007ef8:	f7ff fa91 	bl	800741e <memcpy>
 8007efc:	4621      	mov	r1, r4
 8007efe:	4640      	mov	r0, r8
 8007f00:	f7ff fa9c 	bl	800743c <_free_r>
 8007f04:	463c      	mov	r4, r7
 8007f06:	e7e0      	b.n	8007eca <_realloc_r+0x1e>

08007f08 <_malloc_usable_size_r>:
 8007f08:	f851 3c04 	ldr.w	r3, [r1, #-4]
 8007f0c:	1f18      	subs	r0, r3, #4
 8007f0e:	2b00      	cmp	r3, #0
 8007f10:	bfbc      	itt	lt
 8007f12:	580b      	ldrlt	r3, [r1, r0]
 8007f14:	18c0      	addlt	r0, r0, r3
 8007f16:	4770      	bx	lr

08007f18 <_init>:
 8007f18:	b5f8      	push	{r3, r4, r5, r6, r7, lr}
 8007f1a:	bf00      	nop
 8007f1c:	bcf8      	pop	{r3, r4, r5, r6, r7}
 8007f1e:	bc08      	pop	{r3}
 8007f20:	469e      	mov	lr, r3
 8007f22:	4770      	bx	lr

08007f24 <_fini>:
 8007f24:	b5f8      	push	{r3, r4, r5, r6, r7, lr}
 8007f26:	bf00      	nop
 8007f28:	bcf8      	pop	{r3, r4, r5, r6, r7}
 8007f2a:	bc08      	pop	{r3}
 8007f2c:	469e      	mov	lr, r3
 8007f2e:	4770      	bx	lr
